ARM GAS  /tmp/cc3DFwjY.s 			page 1


   1              		.syntax unified
   2              		.cpu cortex-m4
   3              		.eabi_attribute 27, 3
   4              		.eabi_attribute 28, 1
   5              		.fpu fpv4-sp-d16
   6              		.eabi_attribute 20, 1
   7              		.eabi_attribute 21, 1
   8              		.eabi_attribute 23, 3
   9              		.eabi_attribute 24, 1
  10              		.eabi_attribute 25, 1
  11              		.eabi_attribute 26, 1
  12              		.eabi_attribute 30, 2
  13              		.eabi_attribute 34, 1
  14              		.eabi_attribute 18, 4
  15              		.thumb
  16              		.file	"serial_usb.c"
  17              		.text
  18              	.Ltext0:
  19              		.cfi_sections	.debug_frame
  20              		.section	.text.onotify,"ax",%progbits
  21              		.align	2
  22              		.p2align 4,,15
  23              		.thumb
  24              		.thumb_func
  25              		.type	onotify, %function
  26              	onotify:
  27              	.LFB127:
  28              		.file 1 "../../ChibiOS/os/hal/src/serial_usb.c"
  29              		.loc 1 144 0
  30              		.cfi_startproc
  31              		@ args = 0, pretend = 0, frame = 0
  32              		@ frame_needed = 0, uses_anonymous_args = 0
  33              	.LVL0:
  34 0000 70B5     		push	{r4, r5, r6, lr}
  35              	.LCFI0:
  36              		.cfi_def_cfa_offset 16
  37              		.cfi_offset 4, -16
  38              		.cfi_offset 5, -12
  39              		.cfi_offset 6, -8
  40              		.cfi_offset 14, -4
  41              		.loc 1 146 0
  42 0002 046A     		ldr	r4, [r0, #32]
  43              	.LVL1:
  44              		.loc 1 150 0
  45 0004 D4F85432 		ldr	r3, [r4, #596]
  46 0008 1B68     		ldr	r3, [r3, #0]
  47 000a 1A78     		ldrb	r2, [r3, #0]	@ zero_extendqisi2
  48 000c 042A     		cmp	r2, #4
  49 000e 00D0     		beq	.L7
  50              	.L1:
  51 0010 70BD     		pop	{r4, r5, r6, pc}
  52              	.L7:
  53              		.loc 1 155 0
  54 0012 9D89     		ldrh	r5, [r3, #12]
  55 0014 05F00205 		and	r5, r5, #2
  56 0018 ADB2     		uxth	r5, r5
  57 001a 002D     		cmp	r5, #0
ARM GAS  /tmp/cc3DFwjY.s 			page 2


  58 001c F8D1     		bne	.L1
  59              		.loc 1 156 0 discriminator 1
  60 001e 216C     		ldr	r1, [r4, #64]
  61 0020 E26B     		ldr	r2, [r4, #60]
  62 0022 A36B     		ldr	r3, [r4, #56]
  63 0024 8A1A     		subs	r2, r1, r2
  64              	.LVL2:
  65              		.loc 1 155 0 discriminator 1
  66 0026 D61A     		subs	r6, r2, r3
  67              	.LVL3:
  68 0028 F2D0     		beq	.L1
  69              		.loc 1 157 0
  70 002a FFF7FEFF 		bl	dbg_check_unlock
  71              	.LVL4:
  72              	.LBB2:
  73 002e 2B46     		mov	r3, r5
  74              	.LVL5:
  75              	@ 157 "../../ChibiOS/os/hal/src/serial_usb.c" 1
  76 0030 83F31188 		msr     BASEPRI, r3
  77              	@ 0 "" 2
  78              	.LVL6:
  79              		.thumb
  80              	.LBE2:
  81              		.loc 1 159 0
  82 0034 D4F85422 		ldr	r2, [r4, #596]
  83 0038 3346     		mov	r3, r6
  84              	.LVL7:
  85 003a 1068     		ldr	r0, [r2, #0]
  86 003c 0121     		movs	r1, #1
  87 003e 04F13002 		add	r2, r4, #48
  88 0042 FFF7FEFF 		bl	usbPrepareQueuedTransmit
  89              	.LVL8:
  90              	.LBB3:
  91              		.loc 1 163 0
  92 0046 2023     		movs	r3, #32
  93              	.LVL9:
  94              	@ 163 "../../ChibiOS/os/hal/src/serial_usb.c" 1
  95 0048 83F31188 		msr     BASEPRI, r3
  96              	@ 0 "" 2
  97              	.LVL10:
  98              		.thumb
  99              	.LBE3:
 100 004c FFF7FEFF 		bl	dbg_check_lock
 101              	.LVL11:
 102              		.loc 1 164 0
 103 0050 D4F85432 		ldr	r3, [r4, #596]
 104 0054 1868     		ldr	r0, [r3, #0]
 105 0056 0121     		movs	r1, #1
 106              		.loc 1 166 0
 107 0058 BDE87040 		pop	{r4, r5, r6, lr}
 108              		.loc 1 164 0
 109 005c FFF7FEBF 		b	usbStartTransmitI
 110              	.LVL12:
 111              		.cfi_endproc
 112              	.LFE127:
 113              		.size	onotify, .-onotify
 114              		.section	.text.inotify,"ax",%progbits
ARM GAS  /tmp/cc3DFwjY.s 			page 3


 115              		.align	2
 116              		.p2align 4,,15
 117              		.thumb
 118              		.thumb_func
 119              		.type	inotify, %function
 120              	inotify:
 121              	.LFB126:
 122              		.loc 1 114 0
 123              		.cfi_startproc
 124              		@ args = 0, pretend = 0, frame = 0
 125              		@ frame_needed = 0, uses_anonymous_args = 0
 126              	.LVL13:
 127 0000 F8B5     		push	{r3, r4, r5, r6, r7, lr}
 128              	.LCFI1:
 129              		.cfi_def_cfa_offset 24
 130              		.cfi_offset 3, -24
 131              		.cfi_offset 4, -20
 132              		.cfi_offset 5, -16
 133              		.cfi_offset 6, -12
 134              		.cfi_offset 7, -8
 135              		.cfi_offset 14, -4
 136              		.loc 1 116 0
 137 0002 046A     		ldr	r4, [r0, #32]
 138              	.LVL14:
 139              		.loc 1 120 0
 140 0004 D4F85432 		ldr	r3, [r4, #596]
 141 0008 1A68     		ldr	r2, [r3, #0]
 142 000a 1378     		ldrb	r3, [r2, #0]	@ zero_extendqisi2
 143 000c 042B     		cmp	r3, #4
 144 000e 00D0     		beq	.L10
 145              	.L8:
 146 0010 F8BD     		pop	{r3, r4, r5, r6, r7, pc}
 147              	.L10:
 148              		.loc 1 127 0
 149 0012 D589     		ldrh	r5, [r2, #14]
 150              		.loc 1 126 0
 151 0014 5369     		ldr	r3, [r2, #20]
 152              		.loc 1 127 0
 153 0016 05F00205 		and	r5, r5, #2
 154 001a ADB2     		uxth	r5, r5
 155              		.loc 1 126 0
 156 001c 5E8A     		ldrh	r6, [r3, #18]
 157              	.LVL15:
 158              		.loc 1 127 0
 159 001e 002D     		cmp	r5, #0
 160 0020 F6D1     		bne	.L8
 161              		.loc 1 128 0 discriminator 1
 162 0022 E769     		ldr	r7, [r4, #28]
 163 0024 A269     		ldr	r2, [r4, #24]
 164 0026 6369     		ldr	r3, [r4, #20]
 165 0028 BF1A     		subs	r7, r7, r2
 166 002a FF1A     		subs	r7, r7, r3
 167              	.LVL16:
 168              		.loc 1 127 0 discriminator 1
 169 002c BE42     		cmp	r6, r7
 170 002e EFD8     		bhi	.L8
 171              		.loc 1 129 0
ARM GAS  /tmp/cc3DFwjY.s 			page 4


 172 0030 FFF7FEFF 		bl	dbg_check_unlock
 173              	.LVL17:
 174              	.LBB4:
 175 0034 2B46     		mov	r3, r5
 176              	.LVL18:
 177              	@ 129 "../../ChibiOS/os/hal/src/serial_usb.c" 1
 178 0036 83F31188 		msr     BASEPRI, r3
 179              	@ 0 "" 2
 180              	.LVL19:
 181              		.thumb
 182              	.LBE4:
 183              		.loc 1 132 0
 184 003a D4F85422 		ldr	r2, [r4, #596]
 185              		.loc 1 131 0
 186 003e B7FBF6F3 		udiv	r3, r7, r6
 187              	.LVL20:
 188              		.loc 1 132 0
 189 0042 06FB03F3 		mul	r3, r6, r3
 190              	.LVL21:
 191 0046 1068     		ldr	r0, [r2, #0]
 192 0048 0121     		movs	r1, #1
 193 004a 04F10C02 		add	r2, r4, #12
 194 004e FFF7FEFF 		bl	usbPrepareQueuedReceive
 195              	.LVL22:
 196              	.LBB5:
 197              		.loc 1 136 0
 198 0052 2023     		movs	r3, #32
 199              	.LVL23:
 200              	@ 136 "../../ChibiOS/os/hal/src/serial_usb.c" 1
 201 0054 83F31188 		msr     BASEPRI, r3
 202              	@ 0 "" 2
 203              	.LVL24:
 204              		.thumb
 205              	.LBE5:
 206 0058 FFF7FEFF 		bl	dbg_check_lock
 207              	.LVL25:
 208              		.loc 1 137 0
 209 005c D4F85432 		ldr	r3, [r4, #596]
 210 0060 1868     		ldr	r0, [r3, #0]
 211 0062 0121     		movs	r1, #1
 212              		.loc 1 139 0
 213 0064 BDE8F840 		pop	{r3, r4, r5, r6, r7, lr}
 214              		.loc 1 137 0
 215 0068 FFF7FEBF 		b	usbStartReceiveI
 216              	.LVL26:
 217              		.cfi_endproc
 218              	.LFE126:
 219              		.size	inotify, .-inotify
 220 006c AFF30080 		.section	.text.readt,"ax",%progbits
 221              		.align	2
 222              		.p2align 4,,15
 223              		.thumb
 224              		.thumb_func
 225              		.type	readt, %function
 226              	readt:
 227              	.LFB125:
 228              		.loc 1 101 0
ARM GAS  /tmp/cc3DFwjY.s 			page 5


 229              		.cfi_startproc
 230              		@ args = 0, pretend = 0, frame = 0
 231              		@ frame_needed = 0, uses_anonymous_args = 0
 232              		@ link register save eliminated.
 233              	.LVL27:
 234              		.loc 1 103 0
 235 0000 0C30     		adds	r0, r0, #12
 236              	.LVL28:
 237              		.loc 1 104 0
 238              		.loc 1 103 0
 239 0002 FFF7FEBF 		b	chIQReadTimeout
 240              	.LVL29:
 241              		.cfi_endproc
 242              	.LFE125:
 243              		.size	readt, .-readt
 244 0006 00BFAFF3 		.section	.text.read,"ax",%progbits
 244      0080AFF3 
 244      0080
 245              		.align	2
 246              		.p2align 4,,15
 247              		.thumb
 248              		.thumb_func
 249              		.type	read, %function
 250              	read:
 251              	.LFB119:
 252              		.loc 1 70 0
 253              		.cfi_startproc
 254              		@ args = 0, pretend = 0, frame = 0
 255              		@ frame_needed = 0, uses_anonymous_args = 0
 256              		@ link register save eliminated.
 257              	.LVL30:
 258              		.loc 1 72 0
 259 0000 0C30     		adds	r0, r0, #12
 260              	.LVL31:
 261 0002 4FF0FF33 		mov	r3, #-1
 262              		.loc 1 74 0
 263              		.loc 1 72 0
 264 0006 FFF7FEBF 		b	chIQReadTimeout
 265              	.LVL32:
 266              		.cfi_endproc
 267              	.LFE119:
 268              		.size	read, .-read
 269 000a 00BFAFF3 		.section	.text.writet,"ax",%progbits
 269      0080
 270              		.align	2
 271              		.p2align 4,,15
 272              		.thumb
 273              		.thumb_func
 274              		.type	writet, %function
 275              	writet:
 276              	.LFB124:
 277              		.loc 1 96 0
 278              		.cfi_startproc
 279              		@ args = 0, pretend = 0, frame = 0
 280              		@ frame_needed = 0, uses_anonymous_args = 0
 281              		@ link register save eliminated.
 282              	.LVL33:
ARM GAS  /tmp/cc3DFwjY.s 			page 6


 283              		.loc 1 98 0
 284 0000 3030     		adds	r0, r0, #48
 285              	.LVL34:
 286              		.loc 1 99 0
 287              		.loc 1 98 0
 288 0002 FFF7FEBF 		b	chOQWriteTimeout
 289              	.LVL35:
 290              		.cfi_endproc
 291              	.LFE124:
 292              		.size	writet, .-writet
 293 0006 00BFAFF3 		.section	.text.write,"ax",%progbits
 293      0080AFF3 
 293      0080
 294              		.align	2
 295              		.p2align 4,,15
 296              		.thumb
 297              		.thumb_func
 298              		.type	write, %function
 299              	write:
 300              	.LFB118:
 301              		.loc 1 64 0
 302              		.cfi_startproc
 303              		@ args = 0, pretend = 0, frame = 0
 304              		@ frame_needed = 0, uses_anonymous_args = 0
 305              		@ link register save eliminated.
 306              	.LVL36:
 307              		.loc 1 66 0
 308 0000 3030     		adds	r0, r0, #48
 309              	.LVL37:
 310 0002 4FF0FF33 		mov	r3, #-1
 311              		.loc 1 68 0
 312              		.loc 1 66 0
 313 0006 FFF7FEBF 		b	chOQWriteTimeout
 314              	.LVL38:
 315              		.cfi_endproc
 316              	.LFE118:
 317              		.size	write, .-write
 318 000a 00BFAFF3 		.section	.text.gett,"ax",%progbits
 318      0080
 319              		.align	2
 320              		.p2align 4,,15
 321              		.thumb
 322              		.thumb_func
 323              		.type	gett, %function
 324              	gett:
 325              	.LFB123:
 326              		.loc 1 91 0
 327              		.cfi_startproc
 328              		@ args = 0, pretend = 0, frame = 0
 329              		@ frame_needed = 0, uses_anonymous_args = 0
 330              		@ link register save eliminated.
 331              	.LVL39:
 332              		.loc 1 93 0
 333 0000 0C30     		adds	r0, r0, #12
 334              	.LVL40:
 335              		.loc 1 94 0
 336              		.loc 1 93 0
ARM GAS  /tmp/cc3DFwjY.s 			page 7


 337 0002 FFF7FEBF 		b	chIQGetTimeout
 338              	.LVL41:
 339              		.cfi_endproc
 340              	.LFE123:
 341              		.size	gett, .-gett
 342 0006 00BFAFF3 		.section	.text.get,"ax",%progbits
 342      0080AFF3 
 342      0080
 343              		.align	2
 344              		.p2align 4,,15
 345              		.thumb
 346              		.thumb_func
 347              		.type	get, %function
 348              	get:
 349              	.LFB121:
 350              		.loc 1 81 0
 351              		.cfi_startproc
 352              		@ args = 0, pretend = 0, frame = 0
 353              		@ frame_needed = 0, uses_anonymous_args = 0
 354              		@ link register save eliminated.
 355              	.LVL42:
 356              		.loc 1 83 0
 357 0000 0C30     		adds	r0, r0, #12
 358              	.LVL43:
 359 0002 4FF0FF31 		mov	r1, #-1
 360              		.loc 1 84 0
 361              		.loc 1 83 0
 362 0006 FFF7FEBF 		b	chIQGetTimeout
 363              	.LVL44:
 364              		.cfi_endproc
 365              	.LFE121:
 366              		.size	get, .-get
 367 000a 00BFAFF3 		.section	.text.putt,"ax",%progbits
 367      0080
 368              		.align	2
 369              		.p2align 4,,15
 370              		.thumb
 371              		.thumb_func
 372              		.type	putt, %function
 373              	putt:
 374              	.LFB122:
 375              		.loc 1 86 0
 376              		.cfi_startproc
 377              		@ args = 0, pretend = 0, frame = 0
 378              		@ frame_needed = 0, uses_anonymous_args = 0
 379              		@ link register save eliminated.
 380              	.LVL45:
 381              		.loc 1 88 0
 382 0000 3030     		adds	r0, r0, #48
 383              	.LVL46:
 384              		.loc 1 89 0
 385              		.loc 1 88 0
 386 0002 FFF7FEBF 		b	chOQPutTimeout
 387              	.LVL47:
 388              		.cfi_endproc
 389              	.LFE122:
 390              		.size	putt, .-putt
ARM GAS  /tmp/cc3DFwjY.s 			page 8


 391 0006 00BFAFF3 		.section	.text.put,"ax",%progbits
 391      0080AFF3 
 391      0080
 392              		.align	2
 393              		.p2align 4,,15
 394              		.thumb
 395              		.thumb_func
 396              		.type	put, %function
 397              	put:
 398              	.LFB120:
 399              		.loc 1 76 0
 400              		.cfi_startproc
 401              		@ args = 0, pretend = 0, frame = 0
 402              		@ frame_needed = 0, uses_anonymous_args = 0
 403              		@ link register save eliminated.
 404              	.LVL48:
 405              		.loc 1 78 0
 406 0000 3030     		adds	r0, r0, #48
 407              	.LVL49:
 408 0002 4FF0FF32 		mov	r2, #-1
 409              		.loc 1 79 0
 410              		.loc 1 78 0
 411 0006 FFF7FEBF 		b	chOQPutTimeout
 412              	.LVL50:
 413              		.cfi_endproc
 414              	.LFE120:
 415              		.size	put, .-put
 416 000a 00BFAFF3 		.section	.text.sduInit,"ax",%progbits
 416      0080
 417              		.align	2
 418              		.p2align 4,,15
 419              		.global	sduInit
 420              		.thumb
 421              		.thumb_func
 422              		.type	sduInit, %function
 423              	sduInit:
 424              	.LFB128:
 425              		.loc 1 179 0
 426              		.cfi_startproc
 427              		@ args = 0, pretend = 0, frame = 0
 428              		@ frame_needed = 0, uses_anonymous_args = 0
 429              		@ link register save eliminated.
 430 0000 7047     		bx	lr
 431              		.cfi_endproc
 432              	.LFE128:
 433              		.size	sduInit, .-sduInit
 434 0002 00BFAFF3 		.section	.text.sduObjectInit,"ax",%progbits
 434      0080AFF3 
 434      0080AFF3 
 434      0080
 435              		.align	2
 436              		.p2align 4,,15
 437              		.global	sduObjectInit
 438              		.thumb
 439              		.thumb_func
 440              		.type	sduObjectInit, %function
 441              	sduObjectInit:
ARM GAS  /tmp/cc3DFwjY.s 			page 9


 442              	.LFB129:
 443              		.loc 1 191 0
 444              		.cfi_startproc
 445              		@ args = 0, pretend = 0, frame = 0
 446              		@ frame_needed = 0, uses_anonymous_args = 0
 447              	.LVL51:
 448              		.loc 1 191 0
 449 0000 30B5     		push	{r4, r5, lr}
 450              	.LCFI2:
 451              		.cfi_def_cfa_offset 12
 452              		.cfi_offset 4, -12
 453              		.cfi_offset 5, -8
 454              		.cfi_offset 14, -4
 455              		.loc 1 193 0
 456 0002 40F20003 		movw	r3, #:lower16:.LANCHOR0
 457 0006 0546     		mov	r5, r0
 458 0008 C0F20003 		movt	r3, #:upper16:.LANCHOR0
 459              		.loc 1 191 0
 460 000c 0446     		mov	r4, r0
 461              		.loc 1 193 0
 462 000e 45F8043B 		str	r3, [r5], #4
 463              		.loc 1 191 0
 464 0012 83B0     		sub	sp, sp, #12
 465              	.LCFI3:
 466              		.cfi_def_cfa_offset 24
 467              		.loc 1 194 0
 468 0014 6560     		str	r5, [r4, #4]
 469              		.loc 1 196 0
 470 0016 40F20003 		movw	r3, #:lower16:inotify
 471              		.loc 1 195 0
 472 001a 0125     		movs	r5, #1
 473              		.loc 1 196 0
 474 001c 04F15401 		add	r1, r4, #84
 475              		.loc 1 195 0
 476 0020 2572     		strb	r5, [r4, #8]
 477              		.loc 1 196 0
 478 0022 00F10C00 		add	r0, r0, #12
 479              	.LVL52:
 480 0026 4FF48072 		mov	r2, #256
 481 002a C0F20003 		movt	r3, #:upper16:inotify
 482 002e 0094     		str	r4, [sp, #0]
 483 0030 FFF7FEFF 		bl	chIQInit
 484              	.LVL53:
 485              		.loc 1 197 0
 486 0034 40F20003 		movw	r3, #:lower16:onotify
 487 0038 0094     		str	r4, [sp, #0]
 488 003a 04F13000 		add	r0, r4, #48
 489 003e 04F5AA71 		add	r1, r4, #340
 490 0042 4FF48072 		mov	r2, #256
 491 0046 C0F20003 		movt	r3, #:upper16:onotify
 492 004a FFF7FEFF 		bl	chOQInit
 493              	.LVL54:
 494              		.loc 1 198 0
 495 004e 03B0     		add	sp, sp, #12
 496 0050 30BD     		pop	{r4, r5, pc}
 497              		.cfi_endproc
 498              	.LFE129:
ARM GAS  /tmp/cc3DFwjY.s 			page 10


 499              		.size	sduObjectInit, .-sduObjectInit
 500 0052 00BFAFF3 		.section	.text.sduStart,"ax",%progbits
 500      0080AFF3 
 500      0080AFF3 
 500      0080
 501              		.align	2
 502              		.p2align 4,,15
 503              		.global	sduStart
 504              		.thumb
 505              		.thumb_func
 506              		.type	sduStart, %function
 507              	sduStart:
 508              	.LFB130:
 509              		.loc 1 208 0
 510              		.cfi_startproc
 511              		@ args = 0, pretend = 0, frame = 0
 512              		@ frame_needed = 0, uses_anonymous_args = 0
 513              	.LVL55:
 514 0000 38B5     		push	{r3, r4, r5, lr}
 515              	.LCFI4:
 516              		.cfi_def_cfa_offset 16
 517              		.cfi_offset 3, -16
 518              		.cfi_offset 4, -12
 519              		.cfi_offset 5, -8
 520              		.cfi_offset 14, -4
 521              		.loc 1 210 0
 522 0002 0446     		mov	r4, r0
 523              		.loc 1 208 0
 524 0004 0D46     		mov	r5, r1
 525              		.loc 1 210 0
 526 0006 B8B1     		cbz	r0, .L24
 527              	.LVL56:
 528              	.L22:
 529              	.LBB6:
 530              		.loc 1 212 0
 531 0008 2023     		movs	r3, #32
 532              	.LVL57:
 533              	@ 212 "../../ChibiOS/os/hal/src/serial_usb.c" 1
 534 000a 83F31188 		msr     BASEPRI, r3
 535              	@ 0 "" 2
 536              	.LVL58:
 537              		.thumb
 538              	.LBE6:
 539 000e FFF7FEFF 		bl	dbg_check_lock
 540              	.LVL59:
 541              		.loc 1 213 0
 542 0012 237A     		ldrb	r3, [r4, #8]	@ zero_extendqisi2
 543 0014 013B     		subs	r3, r3, #1
 544 0016 012B     		cmp	r3, #1
 545 0018 02D9     		bls	.L23
 546              		.loc 1 213 0 is_stmt 0 discriminator 1
 547 001a 0948     		ldr	r0, .L25
 548 001c FFF7FEFF 		bl	chDbgPanic
 549              	.LVL60:
 550              	.L23:
 551              		.loc 1 217 0 is_stmt 1
 552 0020 2B68     		ldr	r3, [r5, #0]
ARM GAS  /tmp/cc3DFwjY.s 			page 11


 553              		.loc 1 216 0
 554 0022 C4F85452 		str	r5, [r4, #596]
 555              		.loc 1 217 0
 556 0026 9C60     		str	r4, [r3, #8]
 557              		.loc 1 218 0
 558 0028 0223     		movs	r3, #2
 559 002a 2372     		strb	r3, [r4, #8]
 560              		.loc 1 219 0
 561 002c FFF7FEFF 		bl	dbg_check_unlock
 562              	.LVL61:
 563              	.LBB7:
 564 0030 0023     		movs	r3, #0
 565              	.LVL62:
 566              	@ 219 "../../ChibiOS/os/hal/src/serial_usb.c" 1
 567 0032 83F31188 		msr     BASEPRI, r3
 568              	@ 0 "" 2
 569              	.LVL63:
 570              		.thumb
 571 0036 38BD     		pop	{r3, r4, r5, pc}
 572              	.LVL64:
 573              	.L24:
 574              	.LBE7:
 575              		.loc 1 210 0 discriminator 1
 576 0038 0248     		ldr	r0, .L25+4
 577              	.LVL65:
 578 003a FFF7FEFF 		bl	chDbgPanic
 579              	.LVL66:
 580 003e E3E7     		b	.L22
 581              	.L26:
 582              		.align	2
 583              	.L25:
 584 0040 10000000 		.word	.LC1
 585 0044 00000000 		.word	.LC0
 586              		.cfi_endproc
 587              	.LFE130:
 588              		.size	sduStart, .-sduStart
 589 0048 AFF30080 		.section	.text.sduStop,"ax",%progbits
 589      AFF30080 
 590              		.align	2
 591              		.p2align 4,,15
 592              		.global	sduStop
 593              		.thumb
 594              		.thumb_func
 595              		.type	sduStop, %function
 596              	sduStop:
 597              	.LFB131:
 598              		.loc 1 231 0
 599              		.cfi_startproc
 600              		@ args = 0, pretend = 0, frame = 0
 601              		@ frame_needed = 0, uses_anonymous_args = 0
 602              	.LVL67:
 603 0000 10B5     		push	{r4, lr}
 604              	.LCFI5:
 605              		.cfi_def_cfa_offset 8
 606              		.cfi_offset 4, -8
 607              		.cfi_offset 14, -4
 608              		.loc 1 233 0
ARM GAS  /tmp/cc3DFwjY.s 			page 12


 609 0002 0446     		mov	r4, r0
 610 0004 98B1     		cbz	r0, .L30
 611              	.LVL68:
 612              	.L28:
 613              	.LBB8:
 614              		.loc 1 235 0
 615 0006 2023     		movs	r3, #32
 616              	.LVL69:
 617              	@ 235 "../../ChibiOS/os/hal/src/serial_usb.c" 1
 618 0008 83F31188 		msr     BASEPRI, r3
 619              	@ 0 "" 2
 620              	.LVL70:
 621              		.thumb
 622              	.LBE8:
 623 000c FFF7FEFF 		bl	dbg_check_lock
 624              	.LVL71:
 625              		.loc 1 236 0
 626 0010 237A     		ldrb	r3, [r4, #8]	@ zero_extendqisi2
 627 0012 013B     		subs	r3, r3, #1
 628 0014 012B     		cmp	r3, #1
 629 0016 02D9     		bls	.L29
 630              		.loc 1 236 0 is_stmt 0 discriminator 1
 631 0018 0748     		ldr	r0, .L31
 632 001a FFF7FEFF 		bl	chDbgPanic
 633              	.LVL72:
 634              	.L29:
 635              		.loc 1 239 0 is_stmt 1
 636 001e 0123     		movs	r3, #1
 637 0020 2372     		strb	r3, [r4, #8]
 638              		.loc 1 240 0
 639 0022 FFF7FEFF 		bl	dbg_check_unlock
 640              	.LVL73:
 641              	.LBB9:
 642 0026 0023     		movs	r3, #0
 643              	.LVL74:
 644              	@ 240 "../../ChibiOS/os/hal/src/serial_usb.c" 1
 645 0028 83F31188 		msr     BASEPRI, r3
 646              	@ 0 "" 2
 647              	.LVL75:
 648              		.thumb
 649 002c 10BD     		pop	{r4, pc}
 650              	.LVL76:
 651              	.L30:
 652              	.LBE9:
 653              		.loc 1 233 0 discriminator 1
 654 002e 0348     		ldr	r0, .L31+4
 655              	.LVL77:
 656 0030 FFF7FEFF 		bl	chDbgPanic
 657              	.LVL78:
 658 0034 E7E7     		b	.L28
 659              	.L32:
 660 0036 00BF     		.align	2
 661              	.L31:
 662 0038 2C000000 		.word	.LC3
 663 003c 20000000 		.word	.LC2
 664              		.cfi_endproc
 665              	.LFE131:
ARM GAS  /tmp/cc3DFwjY.s 			page 13


 666              		.size	sduStop, .-sduStop
 667              		.section	.text.sduConfigureHookI,"ax",%progbits
 668              		.align	2
 669              		.p2align 4,,15
 670              		.global	sduConfigureHookI
 671              		.thumb
 672              		.thumb_func
 673              		.type	sduConfigureHookI, %function
 674              	sduConfigureHookI:
 675              	.LFB132:
 676              		.loc 1 250 0
 677              		.cfi_startproc
 678              		@ args = 0, pretend = 0, frame = 0
 679              		@ frame_needed = 0, uses_anonymous_args = 0
 680              	.LVL79:
 681 0000 70B5     		push	{r4, r5, r6, lr}
 682              	.LCFI6:
 683              		.cfi_def_cfa_offset 16
 684              		.cfi_offset 4, -16
 685              		.cfi_offset 5, -12
 686              		.cfi_offset 6, -8
 687              		.cfi_offset 14, -4
 688              		.loc 1 251 0
 689 0002 8568     		ldr	r5, [r0, #8]
 690              	.LVL80:
 691              		.loc 1 253 0
 692 0004 05F10C06 		add	r6, r5, #12
 693              		.loc 1 250 0
 694 0008 0446     		mov	r4, r0
 695              		.loc 1 253 0
 696 000a 3046     		mov	r0, r6
 697              	.LVL81:
 698 000c FFF7FEFF 		bl	chIQResetI
 699              	.LVL82:
 700              		.loc 1 254 0
 701 0010 05F13000 		add	r0, r5, #48
 702 0014 FFF7FEFF 		bl	chOQResetI
 703              	.LVL83:
 704              		.loc 1 255 0
 705 0018 281D     		adds	r0, r5, #4
 706 001a 0121     		movs	r1, #1
 707 001c FFF7FEFF 		bl	chEvtBroadcastFlagsI
 708              	.LVL84:
 709              		.loc 1 259 0
 710 0020 6369     		ldr	r3, [r4, #20]
 711              		.loc 1 258 0
 712 0022 0121     		movs	r1, #1
 713 0024 2046     		mov	r0, r4
 714 0026 3246     		mov	r2, r6
 715 0028 5B8A     		ldrh	r3, [r3, #18]
 716 002a FFF7FEFF 		bl	usbPrepareQueuedReceive
 717              	.LVL85:
 718              		.loc 1 260 0
 719 002e 2046     		mov	r0, r4
 720 0030 0121     		movs	r1, #1
 721              		.loc 1 261 0
 722 0032 BDE87040 		pop	{r4, r5, r6, lr}
ARM GAS  /tmp/cc3DFwjY.s 			page 14


 723              		.loc 1 260 0
 724 0036 FFF7FEBF 		b	usbStartReceiveI
 725              	.LVL86:
 726              		.cfi_endproc
 727              	.LFE132:
 728              		.size	sduConfigureHookI, .-sduConfigureHookI
 729 003a 00BFAFF3 		.section	.text.sduRequestsHook,"ax",%progbits
 729      0080
 730              		.align	2
 731              		.p2align 4,,15
 732              		.global	sduRequestsHook
 733              		.thumb
 734              		.thumb_func
 735              		.type	sduRequestsHook, %function
 736              	sduRequestsHook:
 737              	.LFB133:
 738              		.loc 1 278 0
 739              		.cfi_startproc
 740              		@ args = 0, pretend = 0, frame = 0
 741              		@ frame_needed = 0, uses_anonymous_args = 0
 742              		@ link register save eliminated.
 743              	.LVL87:
 744              		.loc 1 280 0
 745 0000 90F83030 		ldrb	r3, [r0, #48]	@ zero_extendqisi2
 746 0004 03F06003 		and	r3, r3, #96
 747 0008 202B     		cmp	r3, #32
 748 000a 01D0     		beq	.L42
 749              	.L41:
 750              		.loc 1 293 0
 751 000c 0020     		movs	r0, #0
 752              	.LVL88:
 753              		.loc 1 297 0
 754 000e 7047     		bx	lr
 755              	.LVL89:
 756              	.L42:
 757              		.loc 1 281 0
 758 0010 90F83130 		ldrb	r3, [r0, #49]	@ zero_extendqisi2
 759 0014 212B     		cmp	r3, #33
 760 0016 03D0     		beq	.L36
 761 0018 222B     		cmp	r3, #34
 762 001a 09D0     		beq	.L38
 763 001c 202B     		cmp	r3, #32
 764 001e F5D1     		bne	.L41
 765              	.L36:
 766              		.loc 1 286 0
 767 0020 064B     		ldr	r3, .L43
 768 0022 4362     		str	r3, [r0, #36]
 769 0024 0723     		movs	r3, #7
 770 0026 8362     		str	r3, [r0, #40]
 771 0028 0023     		movs	r3, #0
 772 002a C362     		str	r3, [r0, #44]
 773              		.loc 1 287 0
 774 002c 0120     		movs	r0, #1
 775              	.LVL90:
 776 002e 7047     		bx	lr
 777              	.LVL91:
 778              	.L38:
ARM GAS  /tmp/cc3DFwjY.s 			page 15


 779              		.loc 1 290 0
 780 0030 0023     		movs	r3, #0
 781 0032 4362     		str	r3, [r0, #36]
 782 0034 8362     		str	r3, [r0, #40]
 783 0036 C362     		str	r3, [r0, #44]
 784              		.loc 1 291 0
 785 0038 0120     		movs	r0, #1
 786              	.LVL92:
 787 003a 7047     		bx	lr
 788              	.L44:
 789              		.align	2
 790              	.L43:
 791 003c 00000000 		.word	.LANCHOR1
 792              		.cfi_endproc
 793              	.LFE133:
 794              		.size	sduRequestsHook, .-sduRequestsHook
 795              		.section	.text.sduDataTransmitted,"ax",%progbits
 796              		.align	2
 797              		.p2align 4,,15
 798              		.global	sduDataTransmitted
 799              		.thumb
 800              		.thumb_func
 801              		.type	sduDataTransmitted, %function
 802              	sduDataTransmitted:
 803              	.LFB134:
 804              		.loc 1 307 0
 805              		.cfi_startproc
 806              		@ args = 0, pretend = 0, frame = 0
 807              		@ frame_needed = 0, uses_anonymous_args = 0
 808              	.LVL93:
 809 0000 F8B5     		push	{r3, r4, r5, r6, r7, lr}
 810              	.LCFI7:
 811              		.cfi_def_cfa_offset 24
 812              		.cfi_offset 3, -24
 813              		.cfi_offset 4, -20
 814              		.cfi_offset 5, -16
 815              		.cfi_offset 6, -12
 816              		.cfi_offset 7, -8
 817              		.cfi_offset 14, -4
 818              		.loc 1 309 0
 819 0002 8468     		ldr	r4, [r0, #8]
 820              	.LVL94:
 821              		.loc 1 307 0
 822 0004 0546     		mov	r5, r0
 823 0006 0E46     		mov	r6, r1
 824              	.LBB10:
 825              		.loc 1 313 0
 826 0008 2023     		movs	r3, #32
 827              	.LVL95:
 828              	@ 313 "../../ChibiOS/os/hal/src/serial_usb.c" 1
 829 000a 83F31188 		msr     BASEPRI, r3
 830              	@ 0 "" 2
 831              	.LVL96:
 832              		.thumb
 833              	.LBE10:
 834 000e FFF7FEFF 		bl	dbg_check_lock_from_isr
 835              	.LVL97:
ARM GAS  /tmp/cc3DFwjY.s 			page 16


 836              		.loc 1 314 0
 837 0012 0821     		movs	r1, #8
 838 0014 201D     		adds	r0, r4, #4
 839 0016 FFF7FEFF 		bl	chEvtBroadcastFlagsI
 840              	.LVL98:
 841              		.loc 1 316 0
 842 001a 216C     		ldr	r1, [r4, #64]
 843 001c E26B     		ldr	r2, [r4, #60]
 844 001e A36B     		ldr	r3, [r4, #56]
 845 0020 8A1A     		subs	r2, r1, r2
 846              	.LVL99:
 847 0022 D71A     		subs	r7, r2, r3
 848              	.LVL100:
 849 0024 24D1     		bne	.L49
 850              		.loc 1 326 0
 851 0026 331D     		adds	r3, r6, #4
 852 0028 55F82330 		ldr	r3, [r5, r3, lsl #2]
 853 002c 5969     		ldr	r1, [r3, #20]
 854              		.loc 1 327 0
 855 002e 1A8A     		ldrh	r2, [r3, #16]
 856              		.loc 1 326 0
 857 0030 4B68     		ldr	r3, [r1, #4]
 858              		.loc 1 327 0
 859 0032 013A     		subs	r2, r2, #1
 860              		.loc 1 326 0
 861 0034 12EA0307 		ands	r7, r2, r3
 862              	.LVL101:
 863 0038 05D0     		beq	.L50
 864              	.LVL102:
 865              	.L47:
 866              		.loc 1 340 0
 867 003a FFF7FEFF 		bl	dbg_check_unlock_from_isr
 868              	.LVL103:
 869              	.LBB11:
 870 003e 0023     		movs	r3, #0
 871              	.LVL104:
 872              	@ 340 "../../ChibiOS/os/hal/src/serial_usb.c" 1
 873 0040 83F31188 		msr     BASEPRI, r3
 874              	@ 0 "" 2
 875              	.LVL105:
 876              		.thumb
 877 0044 F8BD     		pop	{r3, r4, r5, r6, r7, pc}
 878              	.LVL106:
 879              	.L50:
 880              	.LBE11:
 881              		.loc 1 332 0
 882 0046 FFF7FEFF 		bl	dbg_check_unlock_from_isr
 883              	.LVL107:
 884              	.LBB12:
 885 004a 3B46     		mov	r3, r7
 886              	.LVL108:
 887              	@ 332 "../../ChibiOS/os/hal/src/serial_usb.c" 1
 888 004c 83F31188 		msr     BASEPRI, r3
 889              	@ 0 "" 2
 890              	.LVL109:
 891              		.thumb
 892              	.L48:
ARM GAS  /tmp/cc3DFwjY.s 			page 17


 893              	.LBE12:
 894              		.loc 1 334 0
 895 0050 2846     		mov	r0, r5
 896 0052 3146     		mov	r1, r6
 897 0054 04F13002 		add	r2, r4, #48
 898 0058 FFF7FEFF 		bl	usbPrepareQueuedTransmit
 899              	.LVL110:
 900              	.LBB13:
 901              		.loc 1 336 0
 902 005c 2023     		movs	r3, #32
 903              	.LVL111:
 904              	@ 336 "../../ChibiOS/os/hal/src/serial_usb.c" 1
 905 005e 83F31188 		msr     BASEPRI, r3
 906              	@ 0 "" 2
 907              	.LVL112:
 908              		.thumb
 909              	.LBE13:
 910 0062 FFF7FEFF 		bl	dbg_check_lock_from_isr
 911              	.LVL113:
 912              		.loc 1 337 0
 913 0066 2846     		mov	r0, r5
 914 0068 3146     		mov	r1, r6
 915 006a FFF7FEFF 		bl	usbStartTransmitI
 916              	.LVL114:
 917 006e E4E7     		b	.L47
 918              	.LVL115:
 919              	.L49:
 920              		.loc 1 319 0
 921 0070 FFF7FEFF 		bl	dbg_check_unlock_from_isr
 922              	.LVL116:
 923              	.LBB14:
 924 0074 0023     		movs	r3, #0
 925              	.LVL117:
 926              	@ 319 "../../ChibiOS/os/hal/src/serial_usb.c" 1
 927 0076 83F31188 		msr     BASEPRI, r3
 928              	@ 0 "" 2
 929              	.LVL118:
 930              		.thumb
 931              	.LBE14:
 932              		.loc 1 321 0
 933 007a 3B46     		mov	r3, r7
 934              	.LVL119:
 935 007c E8E7     		b	.L48
 936              		.cfi_endproc
 937              	.LFE134:
 938              		.size	sduDataTransmitted, .-sduDataTransmitted
 939 007e 00BF     		.section	.text.sduDataReceived,"ax",%progbits
 940              		.align	2
 941              		.p2align 4,,15
 942              		.global	sduDataReceived
 943              		.thumb
 944              		.thumb_func
 945              		.type	sduDataReceived, %function
 946              	sduDataReceived:
 947              	.LFB135:
 948              		.loc 1 351 0
 949              		.cfi_startproc
ARM GAS  /tmp/cc3DFwjY.s 			page 18


 950              		@ args = 0, pretend = 0, frame = 0
 951              		@ frame_needed = 0, uses_anonymous_args = 0
 952              	.LVL120:
 953 0000 2DE9F041 		push	{r4, r5, r6, r7, r8, lr}
 954              	.LCFI8:
 955              		.cfi_def_cfa_offset 24
 956              		.cfi_offset 4, -24
 957              		.cfi_offset 5, -20
 958              		.cfi_offset 6, -16
 959              		.cfi_offset 7, -12
 960              		.cfi_offset 8, -8
 961              		.cfi_offset 14, -4
 962              	.LBB15:
 963              		.loc 1 357 0
 964 0004 2023     		movs	r3, #32
 965              	.LVL121:
 966              	.LBE15:
 967              		.loc 1 353 0
 968 0006 8468     		ldr	r4, [r0, #8]
 969              	.LVL122:
 970              		.loc 1 351 0
 971 0008 0546     		mov	r5, r0
 972 000a 8846     		mov	r8, r1
 973              	.LBB16:
 974              		.loc 1 357 0
 975              	@ 357 "../../ChibiOS/os/hal/src/serial_usb.c" 1
 976 000c 83F31188 		msr     BASEPRI, r3
 977              	@ 0 "" 2
 978              	.LVL123:
 979              		.thumb
 980              	.LBE16:
 981 0010 FFF7FEFF 		bl	dbg_check_lock_from_isr
 982              	.LVL124:
 983              		.loc 1 358 0
 984 0014 0421     		movs	r1, #4
 985 0016 201D     		adds	r0, r4, #4
 986 0018 FFF7FEFF 		bl	chEvtBroadcastFlagsI
 987              	.LVL125:
 988              		.loc 1 362 0
 989 001c 6969     		ldr	r1, [r5, #20]
 990              		.loc 1 363 0
 991 001e E769     		ldr	r7, [r4, #28]
 992 0020 A269     		ldr	r2, [r4, #24]
 993 0022 6369     		ldr	r3, [r4, #20]
 994              		.loc 1 362 0
 995 0024 4E8A     		ldrh	r6, [r1, #18]
 996              	.LVL126:
 997              		.loc 1 363 0
 998 0026 BF1A     		subs	r7, r7, r2
 999 0028 FF1A     		subs	r7, r7, r3
 1000              	.LVL127:
 1001 002a BE42     		cmp	r6, r7
 1002 002c 17D8     		bhi	.L52
 1003              		.loc 1 366 0
 1004 002e FFF7FEFF 		bl	dbg_check_unlock_from_isr
 1005              	.LVL128:
 1006              	.LBB17:
ARM GAS  /tmp/cc3DFwjY.s 			page 19


 1007 0032 0023     		movs	r3, #0
 1008              	.LVL129:
 1009              	@ 366 "../../ChibiOS/os/hal/src/serial_usb.c" 1
 1010 0034 83F31188 		msr     BASEPRI, r3
 1011              	@ 0 "" 2
 1012              	.LVL130:
 1013              		.thumb
 1014              	.LBE17:
 1015              		.loc 1 368 0
 1016 0038 B7FBF6F3 		udiv	r3, r7, r6
 1017              	.LVL131:
 1018              		.loc 1 369 0
 1019 003c 06FB03F3 		mul	r3, r6, r3
 1020              	.LVL132:
 1021 0040 2846     		mov	r0, r5
 1022 0042 4146     		mov	r1, r8
 1023 0044 04F10C02 		add	r2, r4, #12
 1024 0048 FFF7FEFF 		bl	usbPrepareQueuedReceive
 1025              	.LVL133:
 1026              	.LBB18:
 1027              		.loc 1 371 0
 1028 004c 2023     		movs	r3, #32
 1029              	.LVL134:
 1030              	@ 371 "../../ChibiOS/os/hal/src/serial_usb.c" 1
 1031 004e 83F31188 		msr     BASEPRI, r3
 1032              	@ 0 "" 2
 1033              	.LVL135:
 1034              		.thumb
 1035              	.LBE18:
 1036 0052 FFF7FEFF 		bl	dbg_check_lock_from_isr
 1037              	.LVL136:
 1038              		.loc 1 372 0
 1039 0056 2846     		mov	r0, r5
 1040 0058 4146     		mov	r1, r8
 1041 005a FFF7FEFF 		bl	usbStartReceiveI
 1042              	.LVL137:
 1043              	.L52:
 1044              		.loc 1 375 0
 1045 005e FFF7FEFF 		bl	dbg_check_unlock_from_isr
 1046              	.LVL138:
 1047              	.LBB19:
 1048 0062 0023     		movs	r3, #0
 1049              	.LVL139:
 1050              	@ 375 "../../ChibiOS/os/hal/src/serial_usb.c" 1
 1051 0064 83F31188 		msr     BASEPRI, r3
 1052              	@ 0 "" 2
 1053              	.LVL140:
 1054              		.thumb
 1055 0068 BDE8F081 		pop	{r4, r5, r6, r7, r8, pc}
 1056              	.LBE19:
 1057              		.cfi_endproc
 1058              	.LFE135:
 1059              		.size	sduDataReceived, .-sduDataReceived
 1060 006c AFF30080 		.section	.text.sduInterruptTransmitted,"ax",%progbits
 1061              		.align	2
 1062              		.p2align 4,,15
 1063              		.global	sduInterruptTransmitted
ARM GAS  /tmp/cc3DFwjY.s 			page 20


 1064              		.thumb
 1065              		.thumb_func
 1066              		.type	sduInterruptTransmitted, %function
 1067              	sduInterruptTransmitted:
 1068              	.LFB136:
 1069              		.loc 1 386 0
 1070              		.cfi_startproc
 1071              		@ args = 0, pretend = 0, frame = 0
 1072              		@ frame_needed = 0, uses_anonymous_args = 0
 1073              		@ link register save eliminated.
 1074              	.LVL141:
 1075 0000 7047     		bx	lr
 1076              		.cfi_endproc
 1077              	.LFE136:
 1078              		.size	sduInterruptTransmitted, .-sduInterruptTransmitted
 1079 0002 00BFAFF3 		.section	.rodata.str1.4,"aMS",%progbits,1
 1079      0080AFF3 
 1079      0080AFF3 
 1079      0080
 1080              		.align	2
 1081              	.LC0:
 1082 0000 22736475 		.ascii	"\"sduStart\"()\000"
 1082      53746172 
 1082      74222829 
 1082      00
 1083 000d 000000   		.space	3
 1084              	.LC1:
 1085 0010 73647553 		.ascii	"sduStart(), #1\000"
 1085      74617274 
 1085      28292C20 
 1085      233100
 1086 001f 00       		.space	1
 1087              	.LC2:
 1088 0020 22736453 		.ascii	"\"sdStop\"()\000"
 1088      746F7022 
 1088      282900
 1089 002b 00       		.space	1
 1090              	.LC3:
 1091 002c 73647553 		.ascii	"sduStop(), #1\000"
 1091      746F7028 
 1091      292C2023 
 1091      3100
 1092 003a 0000     		.section	.rodata.vmt,"a",%progbits
 1093              		.align	2
 1094              		.set	.LANCHOR0,. + 0
 1095              		.type	vmt, %object
 1096              		.size	vmt, 32
 1097              	vmt:
 1098 0000 00000000 		.word	write
 1099 0004 00000000 		.word	read
 1100 0008 00000000 		.word	put
 1101 000c 00000000 		.word	get
 1102 0010 00000000 		.word	putt
 1103 0014 00000000 		.word	gett
 1104 0018 00000000 		.word	writet
 1105 001c 00000000 		.word	readt
 1106              		.section	.data.linecoding,"aw",%progbits
ARM GAS  /tmp/cc3DFwjY.s 			page 21


 1107              		.align	2
 1108              		.set	.LANCHOR1,. + 0
 1109              		.type	linecoding, %object
 1110              		.size	linecoding, 7
 1111              	linecoding:
 1112 0000 00       		.byte	0
 1113 0001 96       		.byte	-106
 1114 0002 00       		.byte	0
 1115 0003 00       		.byte	0
 1116 0004 00       		.byte	0
 1117 0005 00       		.byte	0
 1118 0006 08       		.byte	8
 1119 0007 00       		.text
 1120              	.Letext0:
 1121              		.file 2 "/home/david/toolchains/psas/x-tools/stm32f407/arm-psas-eabi/bin/../lib/gcc/arm-psas-eabi/
 1122              		.file 3 "/home/david/toolchains/psas/x-tools/stm32f407/arm-psas-eabi/bin/../lib/gcc/arm-psas-eabi/
 1123              		.file 4 "../../ChibiOS/os/ports/GCC/ARMCMx/chtypes.h"
 1124              		.file 5 "../../ChibiOS/os/kernel/include/chlists.h"
 1125              		.file 6 "../../ChibiOS/os/kernel/include/chthreads.h"
 1126              		.file 7 "../../ChibiOS/os/ports/GCC/ARMCMx/chcore_v7m.h"
 1127              		.file 8 "../../ChibiOS/os/kernel/include/chmtx.h"
 1128              		.file 9 "../../ChibiOS/os/kernel/include/chevents.h"
 1129              		.file 10 "../../ChibiOS/os/kernel/include/chqueues.h"
 1130              		.file 11 "../../ChibiOS/os/hal/include/usb.h"
 1131              		.file 12 "../../ChibiOS/os/hal/platforms/STM32/OTGv1/usb_lld.h"
 1132              		.file 13 "../../ChibiOS/os/hal/platforms/STM32/OTGv1/stm32_otg.h"
 1133              		.file 14 "../../ChibiOS/os/hal/include/serial_usb.h"
 1134              		.file 15 "../../ChibiOS/os/hal/include/usb_cdc.h"
 1135              		.file 16 "../../ChibiOS/os/kernel/include/chdebug.h"
 1136              		.file 17 "../../ChibiOS/os/ports/common/ARMCMx/CMSIS/include/core_cm4.h"