ARM GAS  /tmp/ccbklE7Y.s 			page 1


   1              		.syntax unified
   2              		.cpu cortex-m4
   3              		.eabi_attribute 27, 3
   4              		.eabi_attribute 28, 1
   5              		.fpu fpv4-sp-d16
   6              		.eabi_attribute 20, 1
   7              		.eabi_attribute 21, 1
   8              		.eabi_attribute 23, 3
   9              		.eabi_attribute 24, 1
  10              		.eabi_attribute 25, 1
  11              		.eabi_attribute 26, 1
  12              		.eabi_attribute 30, 2
  13              		.eabi_attribute 34, 1
  14              		.eabi_attribute 18, 4
  15              		.thumb
  16              		.file	"spi_lld.c"
  17              		.text
  18              	.Ltext0:
  19              		.cfi_sections	.debug_frame
  20              		.section	.text.spi_lld_serve_tx_interrupt,"ax",%progbits
  21              		.align	2
  22              		.p2align 4,,15
  23              		.thumb
  24              		.thumb_func
  25              		.type	spi_lld_serve_tx_interrupt, %function
  26              	spi_lld_serve_tx_interrupt:
  27              	.LFB119:
  28              		.file 1 "../../ChibiOS/os/hal/platforms/STM32/SPIv1/spi_lld.c"
  29              		.loc 1 124 0
  30              		.cfi_startproc
  31              		@ args = 0, pretend = 0, frame = 0
  32              		@ frame_needed = 0, uses_anonymous_args = 0
  33              		@ link register save eliminated.
  34              	.LVL0:
  35              		.loc 1 129 0
  36 0000 11F00C0F 		tst	r1, #12
  37 0004 00D1     		bne	.L4
  38 0006 7047     		bx	lr
  39              	.L4:
  40              		.loc 1 136 0
  41              		.loc 1 130 0
  42 0008 FFF7FEBF 		b	port_halt
  43              	.LVL1:
  44              		.cfi_endproc
  45              	.LFE119:
  46              		.size	spi_lld_serve_tx_interrupt, .-spi_lld_serve_tx_interrupt
  47 000c AFF30080 		.section	.text.spi_lld_serve_rx_interrupt,"ax",%progbits
  48              		.align	2
  49              		.p2align 4,,15
  50              		.thumb
  51              		.thumb_func
  52              		.type	spi_lld_serve_rx_interrupt, %function
  53              	spi_lld_serve_rx_interrupt:
  54              	.LFB118:
  55              		.loc 1 98 0
  56              		.cfi_startproc
  57              		@ args = 0, pretend = 0, frame = 0
ARM GAS  /tmp/ccbklE7Y.s 			page 2


  58              		@ frame_needed = 0, uses_anonymous_args = 0
  59              	.LVL2:
  60              		.loc 1 102 0
  61 0000 11F00C0F 		tst	r1, #12
  62              		.loc 1 98 0
  63 0004 70B5     		push	{r4, r5, r6, lr}
  64              	.LCFI0:
  65              		.cfi_def_cfa_offset 16
  66              		.cfi_offset 4, -16
  67              		.cfi_offset 5, -12
  68              		.cfi_offset 6, -8
  69              		.cfi_offset 14, -4
  70              		.loc 1 98 0
  71 0006 0446     		mov	r4, r0
  72              		.loc 1 102 0
  73 0008 3CD1     		bne	.L20
  74              	.LVL3:
  75              	.L6:
  76              		.loc 1 110 0
  77 000a 606A     		ldr	r0, [r4, #36]
  78 000c 0268     		ldr	r2, [r0, #0]
  79 000e 1368     		ldr	r3, [r2, #0]
  80 0010 23F00103 		bic	r3, r3, #1
  81 0014 1360     		str	r3, [r2, #0]
  82              	.L7:
  83              		.loc 1 110 0 is_stmt 0 discriminator 1
  84 0016 1368     		ldr	r3, [r2, #0]
  85 0018 D907     		lsls	r1, r3, #31
  86 001a FCD4     		bmi	.L7
  87              		.loc 1 110 0 discriminator 2
  88 001c 057A     		ldrb	r5, [r0, #8]	@ zero_extendqisi2
  89              		.loc 1 111 0 is_stmt 1 discriminator 2
  90 001e 216A     		ldr	r1, [r4, #32]
  91              		.loc 1 110 0 discriminator 2
  92 0020 4368     		ldr	r3, [r0, #4]
  93              		.loc 1 111 0 discriminator 2
  94 0022 0A68     		ldr	r2, [r1, #0]
  95              		.loc 1 110 0 discriminator 2
  96 0024 3D20     		movs	r0, #61
  97 0026 00FA05F0 		lsl	r0, r0, r5
  98 002a 1860     		str	r0, [r3, #0]
  99              		.loc 1 111 0 discriminator 2
 100 002c 1368     		ldr	r3, [r2, #0]
 101 002e 23F00103 		bic	r3, r3, #1
 102 0032 1360     		str	r3, [r2, #0]
 103              	.L8:
 104              		.loc 1 111 0 is_stmt 0 discriminator 1
 105 0034 1368     		ldr	r3, [r2, #0]
 106 0036 DB07     		lsls	r3, r3, #31
 107 0038 FCD4     		bmi	.L8
 108              		.loc 1 115 0 is_stmt 1 discriminator 2
 109 003a 6368     		ldr	r3, [r4, #4]
 110              		.loc 1 111 0 discriminator 2
 111 003c 087A     		ldrb	r0, [r1, #8]	@ zero_extendqisi2
 112 003e 4A68     		ldr	r2, [r1, #4]
 113              		.loc 1 115 0 discriminator 2
 114 0040 1B68     		ldr	r3, [r3, #0]
ARM GAS  /tmp/ccbklE7Y.s 			page 3


 115              		.loc 1 111 0 discriminator 2
 116 0042 3D21     		movs	r1, #61
 117 0044 01FA00F1 		lsl	r1, r1, r0
 118 0048 1160     		str	r1, [r2, #0]
 119              		.loc 1 115 0 discriminator 2
 120 004a C3B1     		cbz	r3, .L9
 121              		.loc 1 115 0 is_stmt 0 discriminator 1
 122 004c 0422     		movs	r2, #4
 123 004e 2270     		strb	r2, [r4, #0]
 124 0050 2046     		mov	r0, r4
 125 0052 9847     		blx	r3
 126              	.LVL4:
 127 0054 2378     		ldrb	r3, [r4, #0]	@ zero_extendqisi2
 128 0056 042B     		cmp	r3, #4
 129 0058 11D0     		beq	.L9
 130              	.L10:
 131              		.loc 1 115 0 discriminator 4
 132 005a A568     		ldr	r5, [r4, #8]
 133 005c 75B1     		cbz	r5, .L5
 134              	.LVL5:
 135              	.LBB2:
 136              		.loc 1 115 0 discriminator 5
 137 005e 0026     		movs	r6, #0
 138 0060 A660     		str	r6, [r4, #8]
 139              	.LBB3:
 140 0062 2023     		movs	r3, #32
 141              	.LVL6:
 142              	@ 115 "../../ChibiOS/os/hal/platforms/STM32/SPIv1/spi_lld.c" 1
 143 0064 83F31188 		msr     BASEPRI, r3
 144              	@ 0 "" 2
 145              	.LVL7:
 146              		.thumb
 147              	.LBE3:
 148 0068 FFF7FEFF 		bl	dbg_check_lock_from_isr
 149              	.LVL8:
 150 006c 2846     		mov	r0, r5
 151 006e FFF7FEFF 		bl	chSchReadyI
 152              	.LVL9:
 153 0072 FFF7FEFF 		bl	dbg_check_unlock_from_isr
 154              	.LVL10:
 155              	.LBB4:
 156 0076 3346     		mov	r3, r6
 157              	.LVL11:
 158              	@ 115 "../../ChibiOS/os/hal/platforms/STM32/SPIv1/spi_lld.c" 1
 159 0078 83F31188 		msr     BASEPRI, r3
 160              	@ 0 "" 2
 161              	.LVL12:
 162              		.thumb
 163              	.L5:
 164 007c 70BD     		pop	{r4, r5, r6, pc}
 165              	.LVL13:
 166              	.L9:
 167              	.LBE4:
 168              	.LBE2:
 169              		.loc 1 115 0 discriminator 2
 170 007e 0223     		movs	r3, #2
 171 0080 2370     		strb	r3, [r4, #0]
ARM GAS  /tmp/ccbklE7Y.s 			page 4


 172 0082 EAE7     		b	.L10
 173              	.LVL14:
 174              	.L20:
 175              		.loc 1 103 0 is_stmt 1
 176 0084 FFF7FEFF 		bl	port_halt
 177              	.LVL15:
 178 0088 BFE7     		b	.L6
 179              		.cfi_endproc
 180              	.LFE118:
 181              		.size	spi_lld_serve_rx_interrupt, .-spi_lld_serve_rx_interrupt
 182 008a 00BFAFF3 		.section	.text.spi_lld_init,"ax",%progbits
 182      0080
 183              		.align	2
 184              		.p2align 4,,15
 185              		.global	spi_lld_init
 186              		.thumb
 187              		.thumb_func
 188              		.type	spi_lld_init, %function
 189              	spi_lld_init:
 190              	.LFB120:
 191              		.loc 1 151 0
 192              		.cfi_startproc
 193              		@ args = 0, pretend = 0, frame = 0
 194              		@ frame_needed = 0, uses_anonymous_args = 0
 195 0000 38B5     		push	{r3, r4, r5, lr}
 196              	.LCFI1:
 197              		.cfi_def_cfa_offset 16
 198              		.cfi_offset 3, -16
 199              		.cfi_offset 4, -12
 200              		.cfi_offset 5, -8
 201              		.cfi_offset 14, -4
 202              		.loc 1 153 0
 203 0002 40F20003 		movw	r3, #:lower16:.LANCHOR0
 204              		.loc 1 156 0
 205 0006 40F20004 		movw	r4, #:lower16:.LANCHOR1
 206 000a C0F20004 		movt	r4, #:upper16:.LANCHOR1
 207              		.loc 1 153 0
 208 000e C0F20003 		movt	r3, #:upper16:.LANCHOR0
 209 0012 4FF6FF72 		movw	r2, #65535
 210              		.loc 1 156 0
 211 0016 2046     		mov	r0, r4
 212              		.loc 1 153 0
 213 0018 1A80     		strh	r2, [r3, #0]	@ movhi
 214              		.loc 1 156 0
 215 001a FFF7FEFF 		bl	spiObjectInit
 216              	.LVL16:
 217              		.loc 1 158 0
 218 001e 0949     		ldr	r1, .L22
 219              		.loc 1 157 0
 220 0020 4FF44050 		mov	r0, #12288
 221              		.loc 1 160 0
 222 0024 1622     		movs	r2, #22
 223              		.loc 1 166 0
 224 0026 4623     		movs	r3, #70
 225              		.loc 1 157 0
 226 0028 C4F20100 		movt	r0, 16385
 227              		.loc 1 159 0
ARM GAS  /tmp/ccbklE7Y.s 			page 5


 228 002c 01F12405 		add	r5, r1, #36
 229              		.loc 1 160 0
 230 0030 C0F20162 		movt	r2, 1537
 231              		.loc 1 166 0
 232 0034 C0F20163 		movt	r3, 1537
 233              		.loc 1 157 0
 234 0038 E061     		str	r0, [r4, #28]
 235              		.loc 1 158 0
 236 003a 2162     		str	r1, [r4, #32]
 237              		.loc 1 159 0
 238 003c 6562     		str	r5, [r4, #36]
 239              		.loc 1 160 0
 240 003e A262     		str	r2, [r4, #40]
 241              		.loc 1 166 0
 242 0040 E362     		str	r3, [r4, #44]
 243 0042 38BD     		pop	{r3, r4, r5, pc}
 244              	.L23:
 245              		.align	2
 246              	.L22:
 247 0044 60000000 		.word	_stm32_dma_streams+96
 248              		.cfi_endproc
 249              	.LFE120:
 250              		.size	spi_lld_init, .-spi_lld_init
 251 0048 AFF30080 		.section	.text.spi_lld_start,"ax",%progbits
 251      AFF30080 
 252              		.align	2
 253              		.p2align 4,,15
 254              		.global	spi_lld_start
 255              		.thumb
 256              		.thumb_func
 257              		.type	spi_lld_start, %function
 258              	spi_lld_start:
 259              	.LFB121:
 260              		.loc 1 217 0
 261              		.cfi_startproc
 262              		@ args = 0, pretend = 0, frame = 0
 263              		@ frame_needed = 0, uses_anonymous_args = 0
 264              	.LVL17:
 265 0000 38B5     		push	{r3, r4, r5, lr}
 266              	.LCFI2:
 267              		.cfi_def_cfa_offset 16
 268              		.cfi_offset 3, -16
 269              		.cfi_offset 4, -12
 270              		.cfi_offset 5, -8
 271              		.cfi_offset 14, -4
 272              		.loc 1 220 0
 273 0002 0378     		ldrb	r3, [r0, #0]	@ zero_extendqisi2
 274 0004 012B     		cmp	r3, #1
 275              		.loc 1 217 0
 276 0006 0446     		mov	r4, r0
 277              		.loc 1 220 0
 278 0008 27D0     		beq	.L38
 279 000a C369     		ldr	r3, [r0, #28]
 280              	.LVL18:
 281              	.L25:
 282              		.loc 1 276 0
 283 000c 6268     		ldr	r2, [r4, #4]
ARM GAS  /tmp/ccbklE7Y.s 			page 6


 284              		.loc 1 279 0
 285 000e A06A     		ldr	r0, [r4, #40]
 286              		.loc 1 276 0
 287 0010 5289     		ldrh	r2, [r2, #10]
 288 0012 02F40061 		and	r1, r2, #2048
 289 0016 89B2     		uxth	r1, r1
 290 0018 B9B1     		cbz	r1, .L39
 291              		.loc 1 287 0
 292 001a E16A     		ldr	r1, [r4, #44]
 293              		.loc 1 285 0
 294 001c 20F4F040 		bic	r0, r0, #30720
 295              		.loc 1 287 0
 296 0020 21F4F041 		bic	r1, r1, #30720
 297              		.loc 1 286 0
 298 0024 40F42050 		orr	r0, r0, #10240
 299              		.loc 1 288 0
 300 0028 41F42051 		orr	r1, r1, #10240
 301              		.loc 1 285 0
 302 002c A062     		str	r0, [r4, #40]
 303              		.loc 1 287 0
 304 002e E162     		str	r1, [r4, #44]
 305              	.L30:
 306              		.loc 1 292 0
 307 0030 42F44172 		orr	r2, r2, #772
 308              		.loc 1 291 0
 309 0034 0021     		movs	r1, #0
 310 0036 1980     		strh	r1, [r3, #0]	@ movhi
 311              		.loc 1 292 0
 312 0038 1A80     		strh	r2, [r3, #0]	@ movhi
 313              		.loc 1 294 0
 314 003a 0722     		movs	r2, #7
 315 003c 9A80     		strh	r2, [r3, #4]	@ movhi
 316              		.loc 1 295 0
 317 003e 1A88     		ldrh	r2, [r3, #0]
 318 0040 92B2     		uxth	r2, r2
 319 0042 42F04002 		orr	r2, r2, #64
 320 0046 1A80     		strh	r2, [r3, #0]	@ movhi
 321 0048 38BD     		pop	{r3, r4, r5, pc}
 322              	.L39:
 323              		.loc 1 281 0
 324 004a E16A     		ldr	r1, [r4, #44]
 325              		.loc 1 279 0
 326 004c 20F4F040 		bic	r0, r0, #30720
 327              		.loc 1 281 0
 328 0050 21F4F041 		bic	r1, r1, #30720
 329              		.loc 1 278 0
 330 0054 A062     		str	r0, [r4, #40]
 331              		.loc 1 280 0
 332 0056 E162     		str	r1, [r4, #44]
 333 0058 EAE7     		b	.L30
 334              	.LVL19:
 335              	.L38:
 336              		.loc 1 222 0
 337 005a 164D     		ldr	r5, .L43
 338 005c A842     		cmp	r0, r5
 339 005e 09D0     		beq	.L40
 340              	.LVL20:
ARM GAS  /tmp/ccbklE7Y.s 			page 7


 341              	.L26:
 342              		.loc 1 271 0
 343 0060 216A     		ldr	r1, [r4, #32]
 344              		.loc 1 272 0
 345 0062 626A     		ldr	r2, [r4, #36]
 346              		.loc 1 271 0
 347 0064 E369     		ldr	r3, [r4, #28]
 348 0066 0868     		ldr	r0, [r1, #0]
 349              		.loc 1 272 0
 350 0068 1168     		ldr	r1, [r2, #0]
 351              		.loc 1 271 0
 352 006a 03F10C02 		add	r2, r3, #12
 353 006e 8260     		str	r2, [r0, #8]
 354              		.loc 1 272 0
 355 0070 8A60     		str	r2, [r1, #8]
 356 0072 CBE7     		b	.L25
 357              	.LVL21:
 358              	.L40:
 359              	.LBB5:
 360              		.loc 1 224 0
 361 0074 006A     		ldr	r0, [r0, #32]
 362              	.LVL22:
 363 0076 104A     		ldr	r2, .L43+4
 364 0078 0A21     		movs	r1, #10
 365 007a 2346     		mov	r3, r4
 366 007c FFF7FEFF 		bl	dmaStreamAllocate
 367              	.LVL23:
 368              		.loc 1 228 0
 369 0080 78B9     		cbnz	r0, .L41
 370              	.LVL24:
 371              	.L27:
 372              		.loc 1 229 0
 373 0082 686A     		ldr	r0, [r5, #36]
 374 0084 0D4A     		ldr	r2, .L43+8
 375 0086 0B4B     		ldr	r3, .L43
 376 0088 0A21     		movs	r1, #10
 377 008a FFF7FEFF 		bl	dmaStreamAllocate
 378              	.LVL25:
 379              		.loc 1 233 0
 380 008e 60B9     		cbnz	r0, .L42
 381              	.LVL26:
 382              	.L28:
 383              		.loc 1 234 0
 384 0090 4FF46053 		mov	r3, #14336
 385 0094 C4F20203 		movt	r3, 16386
 386 0098 5A6C     		ldr	r2, [r3, #68]
 387 009a 42F48052 		orr	r2, r2, #4096
 388 009e 5A64     		str	r2, [r3, #68]
 389 00a0 DEE7     		b	.L26
 390              	.LVL27:
 391              	.L41:
 392              		.loc 1 228 0 discriminator 1
 393 00a2 0748     		ldr	r0, .L43+12
 394              	.LVL28:
 395 00a4 FFF7FEFF 		bl	chDbgPanic
 396              	.LVL29:
 397 00a8 EBE7     		b	.L27
ARM GAS  /tmp/ccbklE7Y.s 			page 8


 398              	.LVL30:
 399              	.L42:
 400              		.loc 1 233 0 discriminator 1
 401 00aa 0648     		ldr	r0, .L43+16
 402              	.LVL31:
 403 00ac FFF7FEFF 		bl	chDbgPanic
 404              	.LVL32:
 405 00b0 EEE7     		b	.L28
 406              	.L44:
 407 00b2 00BF     		.align	2
 408              	.L43:
 409 00b4 00000000 		.word	.LANCHOR1
 410 00b8 00000000 		.word	spi_lld_serve_rx_interrupt
 411 00bc 00000000 		.word	spi_lld_serve_tx_interrupt
 412 00c0 00000000 		.word	.LC0
 413 00c4 14000000 		.word	.LC1
 414              	.LBE5:
 415              		.cfi_endproc
 416              	.LFE121:
 417              		.size	spi_lld_start, .-spi_lld_start
 418 00c8 AFF30080 		.section	.text.spi_lld_stop,"ax",%progbits
 418      AFF30080 
 419              		.align	2
 420              		.p2align 4,,15
 421              		.global	spi_lld_stop
 422              		.thumb
 423              		.thumb_func
 424              		.type	spi_lld_stop, %function
 425              	spi_lld_stop:
 426              	.LFB122:
 427              		.loc 1 305 0
 428              		.cfi_startproc
 429              		@ args = 0, pretend = 0, frame = 0
 430              		@ frame_needed = 0, uses_anonymous_args = 0
 431              	.LVL33:
 432              		.loc 1 308 0
 433 0000 0378     		ldrb	r3, [r0, #0]	@ zero_extendqisi2
 434 0002 022B     		cmp	r3, #2
 435              		.loc 1 305 0
 436 0004 10B5     		push	{r4, lr}
 437              	.LCFI3:
 438              		.cfi_def_cfa_offset 8
 439              		.cfi_offset 4, -8
 440              		.cfi_offset 14, -4
 441              		.loc 1 305 0
 442 0006 0446     		mov	r4, r0
 443              		.loc 1 308 0
 444 0008 00D0     		beq	.L49
 445 000a 10BD     		pop	{r4, pc}
 446              	.L49:
 447              		.loc 1 311 0
 448 000c C369     		ldr	r3, [r0, #28]
 449              		.loc 1 313 0
 450 000e 006A     		ldr	r0, [r0, #32]
 451              	.LVL34:
 452              		.loc 1 311 0
 453 0010 0022     		movs	r2, #0
ARM GAS  /tmp/ccbklE7Y.s 			page 9


 454 0012 1A80     		strh	r2, [r3, #0]	@ movhi
 455              		.loc 1 312 0
 456 0014 9A80     		strh	r2, [r3, #4]	@ movhi
 457              		.loc 1 313 0
 458 0016 FFF7FEFF 		bl	dmaStreamRelease
 459              	.LVL35:
 460              		.loc 1 314 0
 461 001a 606A     		ldr	r0, [r4, #36]
 462 001c FFF7FEFF 		bl	dmaStreamRelease
 463              	.LVL36:
 464              		.loc 1 317 0
 465 0020 064B     		ldr	r3, .L50
 466 0022 9C42     		cmp	r4, r3
 467              		.loc 1 318 0
 468 0024 01BF     		itttt	eq
 469 0026 4FF46053 		moveq	r3, #14336
 470 002a C4F20203 		movteq	r3, 16386
 471 002e 5A6C     		ldreq	r2, [r3, #68]
 472 0030 22F48052 		biceq	r2, r2, #4096
 473 0034 08BF     		it	eq
 474 0036 5A64     		streq	r2, [r3, #68]
 475 0038 10BD     		pop	{r4, pc}
 476              	.L51:
 477 003a 00BF     		.align	2
 478              	.L50:
 479 003c 00000000 		.word	.LANCHOR1
 480              		.cfi_endproc
 481              	.LFE122:
 482              		.size	spi_lld_stop, .-spi_lld_stop
 483              		.section	.text.spi_lld_select,"ax",%progbits
 484              		.align	2
 485              		.p2align 4,,15
 486              		.global	spi_lld_select
 487              		.thumb
 488              		.thumb_func
 489              		.type	spi_lld_select, %function
 490              	spi_lld_select:
 491              	.LFB123:
 492              		.loc 1 338 0
 493              		.cfi_startproc
 494              		@ args = 0, pretend = 0, frame = 0
 495              		@ frame_needed = 0, uses_anonymous_args = 0
 496              		@ link register save eliminated.
 497              	.LVL37:
 498              		.loc 1 340 0
 499 0000 4368     		ldr	r3, [r0, #4]
 500 0002 1A89     		ldrh	r2, [r3, #8]
 501 0004 5B68     		ldr	r3, [r3, #4]
 502 0006 0121     		movs	r1, #1
 503 0008 01FA02F2 		lsl	r2, r1, r2
 504 000c 92B2     		uxth	r2, r2
 505 000e 5A83     		strh	r2, [r3, #26]	@ movhi
 506 0010 7047     		bx	lr
 507              		.cfi_endproc
 508              	.LFE123:
 509              		.size	spi_lld_select, .-spi_lld_select
 510 0012 00BFAFF3 		.section	.text.spi_lld_unselect,"ax",%progbits
ARM GAS  /tmp/ccbklE7Y.s 			page 10


 510      0080AFF3 
 510      0080AFF3 
 510      0080
 511              		.align	2
 512              		.p2align 4,,15
 513              		.global	spi_lld_unselect
 514              		.thumb
 515              		.thumb_func
 516              		.type	spi_lld_unselect, %function
 517              	spi_lld_unselect:
 518              	.LFB124:
 519              		.loc 1 351 0
 520              		.cfi_startproc
 521              		@ args = 0, pretend = 0, frame = 0
 522              		@ frame_needed = 0, uses_anonymous_args = 0
 523              		@ link register save eliminated.
 524              	.LVL38:
 525              		.loc 1 353 0
 526 0000 4368     		ldr	r3, [r0, #4]
 527 0002 1A89     		ldrh	r2, [r3, #8]
 528 0004 5B68     		ldr	r3, [r3, #4]
 529 0006 0121     		movs	r1, #1
 530 0008 01FA02F2 		lsl	r2, r1, r2
 531 000c 92B2     		uxth	r2, r2
 532 000e 1A83     		strh	r2, [r3, #24]	@ movhi
 533 0010 7047     		bx	lr
 534              		.cfi_endproc
 535              	.LFE124:
 536              		.size	spi_lld_unselect, .-spi_lld_unselect
 537 0012 00BFAFF3 		.section	.text.spi_lld_ignore,"ax",%progbits
 537      0080AFF3 
 537      0080AFF3 
 537      0080
 538              		.align	2
 539              		.p2align 4,,15
 540              		.global	spi_lld_ignore
 541              		.thumb
 542              		.thumb_func
 543              		.type	spi_lld_ignore, %function
 544              	spi_lld_ignore:
 545              	.LFB125:
 546              		.loc 1 367 0
 547              		.cfi_startproc
 548              		@ args = 0, pretend = 0, frame = 0
 549              		@ frame_needed = 0, uses_anonymous_args = 0
 550              		@ link register save eliminated.
 551              	.LVL39:
 552              		.loc 1 369 0
 553 0000 026A     		ldr	r2, [r0, #32]
 554              		.loc 1 373 0
 555 0002 436A     		ldr	r3, [r0, #36]
 556              		.loc 1 369 0
 557 0004 1268     		ldr	r2, [r2, #0]
 558              		.loc 1 373 0
 559 0006 1B68     		ldr	r3, [r3, #0]
 560              		.loc 1 367 0
 561 0008 70B4     		push	{r4, r5, r6}
ARM GAS  /tmp/ccbklE7Y.s 			page 11


 562              	.LCFI4:
 563              		.cfi_def_cfa_offset 12
 564              		.cfi_offset 4, -12
 565              		.cfi_offset 5, -8
 566              		.cfi_offset 6, -4
 567              		.loc 1 371 0
 568 000a 866A     		ldr	r6, [r0, #40]
 569              		.loc 1 375 0
 570 000c C56A     		ldr	r5, [r0, #44]
 571              		.loc 1 369 0
 572 000e 40F20004 		movw	r4, #:lower16:.LANCHOR2
 573              		.loc 1 373 0
 574 0012 40F20000 		movw	r0, #:lower16:.LANCHOR0
 575              	.LVL40:
 576              		.loc 1 369 0
 577 0016 C0F20004 		movt	r4, #:upper16:.LANCHOR2
 578              		.loc 1 373 0
 579 001a C0F20000 		movt	r0, #:upper16:.LANCHOR0
 580              		.loc 1 369 0
 581 001e D460     		str	r4, [r2, #12]
 582              		.loc 1 370 0
 583 0020 5160     		str	r1, [r2, #4]
 584              		.loc 1 371 0
 585 0022 1660     		str	r6, [r2, #0]
 586              		.loc 1 373 0
 587 0024 D860     		str	r0, [r3, #12]
 588              		.loc 1 374 0
 589 0026 5960     		str	r1, [r3, #4]
 590              		.loc 1 375 0
 591 0028 1D60     		str	r5, [r3, #0]
 592              		.loc 1 377 0
 593 002a 1168     		ldr	r1, [r2, #0]
 594              	.LVL41:
 595 002c 41F00101 		orr	r1, r1, #1
 596 0030 1160     		str	r1, [r2, #0]
 597              		.loc 1 378 0
 598 0032 1A68     		ldr	r2, [r3, #0]
 599              	.LVL42:
 600 0034 42F00102 		orr	r2, r2, #1
 601 0038 1A60     		str	r2, [r3, #0]
 602              		.loc 1 379 0
 603 003a 70BC     		pop	{r4, r5, r6}
 604 003c 7047     		bx	lr
 605              		.cfi_endproc
 606              	.LFE125:
 607              		.size	spi_lld_ignore, .-spi_lld_ignore
 608 003e 00BF     		.section	.text.spi_lld_exchange,"ax",%progbits
 609              		.align	2
 610              		.p2align 4,,15
 611              		.global	spi_lld_exchange
 612              		.thumb
 613              		.thumb_func
 614              		.type	spi_lld_exchange, %function
 615              	spi_lld_exchange:
 616              	.LFB126:
 617              		.loc 1 397 0
 618              		.cfi_startproc
ARM GAS  /tmp/ccbklE7Y.s 			page 12


 619              		@ args = 0, pretend = 0, frame = 0
 620              		@ frame_needed = 0, uses_anonymous_args = 0
 621              		@ link register save eliminated.
 622              	.LVL43:
 623 0000 F0B4     		push	{r4, r5, r6, r7}
 624              	.LCFI5:
 625              		.cfi_def_cfa_offset 16
 626              		.cfi_offset 4, -16
 627              		.cfi_offset 5, -12
 628              		.cfi_offset 6, -8
 629              		.cfi_offset 7, -4
 630              		.loc 1 399 0
 631 0002 046A     		ldr	r4, [r0, #32]
 632              		.loc 1 403 0
 633 0004 476A     		ldr	r7, [r0, #36]
 634              		.loc 1 401 0
 635 0006 866A     		ldr	r6, [r0, #40]
 636              		.loc 1 405 0
 637 0008 C56A     		ldr	r5, [r0, #44]
 638              		.loc 1 399 0
 639 000a 2468     		ldr	r4, [r4, #0]
 640              		.loc 1 403 0
 641 000c 3868     		ldr	r0, [r7, #0]
 642              	.LVL44:
 643              		.loc 1 399 0
 644 000e E360     		str	r3, [r4, #12]
 645              		.loc 1 401 0
 646 0010 46F48066 		orr	r6, r6, #1024
 647              		.loc 1 405 0
 648 0014 45F48065 		orr	r5, r5, #1024
 649              		.loc 1 400 0
 650 0018 6160     		str	r1, [r4, #4]
 651              		.loc 1 401 0
 652 001a 2660     		str	r6, [r4, #0]
 653              		.loc 1 403 0
 654 001c C260     		str	r2, [r0, #12]
 655              		.loc 1 404 0
 656 001e 4160     		str	r1, [r0, #4]
 657              		.loc 1 405 0
 658 0020 0560     		str	r5, [r0, #0]
 659              		.loc 1 407 0
 660 0022 2368     		ldr	r3, [r4, #0]
 661              	.LVL45:
 662 0024 43F00103 		orr	r3, r3, #1
 663 0028 2360     		str	r3, [r4, #0]
 664              		.loc 1 408 0
 665 002a 0368     		ldr	r3, [r0, #0]
 666 002c 43F00103 		orr	r3, r3, #1
 667 0030 0360     		str	r3, [r0, #0]
 668              		.loc 1 409 0
 669 0032 F0BC     		pop	{r4, r5, r6, r7}
 670 0034 7047     		bx	lr
 671              		.cfi_endproc
 672              	.LFE126:
 673              		.size	spi_lld_exchange, .-spi_lld_exchange
 674 0036 00BFAFF3 		.section	.text.spi_lld_send,"ax",%progbits
 674      0080AFF3 
ARM GAS  /tmp/ccbklE7Y.s 			page 13


 674      0080
 675              		.align	2
 676              		.p2align 4,,15
 677              		.global	spi_lld_send
 678              		.thumb
 679              		.thumb_func
 680              		.type	spi_lld_send, %function
 681              	spi_lld_send:
 682              	.LFB127:
 683              		.loc 1 424 0
 684              		.cfi_startproc
 685              		@ args = 0, pretend = 0, frame = 0
 686              		@ frame_needed = 0, uses_anonymous_args = 0
 687              		@ link register save eliminated.
 688              	.LVL46:
 689 0000 F0B4     		push	{r4, r5, r6, r7}
 690              	.LCFI6:
 691              		.cfi_def_cfa_offset 16
 692              		.cfi_offset 4, -16
 693              		.cfi_offset 5, -12
 694              		.cfi_offset 6, -8
 695              		.cfi_offset 7, -4
 696              		.loc 1 426 0
 697 0002 036A     		ldr	r3, [r0, #32]
 698              		.loc 1 430 0
 699 0004 476A     		ldr	r7, [r0, #36]
 700              		.loc 1 432 0
 701 0006 C66A     		ldr	r6, [r0, #44]
 702              		.loc 1 426 0
 703 0008 1C68     		ldr	r4, [r3, #0]
 704              		.loc 1 428 0
 705 000a 806A     		ldr	r0, [r0, #40]
 706              	.LVL47:
 707              		.loc 1 430 0
 708 000c 3B68     		ldr	r3, [r7, #0]
 709              		.loc 1 426 0
 710 000e 40F20005 		movw	r5, #:lower16:.LANCHOR2
 711 0012 C0F20005 		movt	r5, #:upper16:.LANCHOR2
 712              		.loc 1 432 0
 713 0016 46F48066 		orr	r6, r6, #1024
 714              		.loc 1 426 0
 715 001a E560     		str	r5, [r4, #12]
 716              		.loc 1 427 0
 717 001c 6160     		str	r1, [r4, #4]
 718              		.loc 1 428 0
 719 001e 2060     		str	r0, [r4, #0]
 720              		.loc 1 430 0
 721 0020 DA60     		str	r2, [r3, #12]
 722              		.loc 1 431 0
 723 0022 5960     		str	r1, [r3, #4]
 724              		.loc 1 432 0
 725 0024 1E60     		str	r6, [r3, #0]
 726              		.loc 1 434 0
 727 0026 2268     		ldr	r2, [r4, #0]
 728              	.LVL48:
 729 0028 42F00102 		orr	r2, r2, #1
 730 002c 2260     		str	r2, [r4, #0]
ARM GAS  /tmp/ccbklE7Y.s 			page 14


 731              		.loc 1 435 0
 732 002e 1A68     		ldr	r2, [r3, #0]
 733 0030 42F00102 		orr	r2, r2, #1
 734 0034 1A60     		str	r2, [r3, #0]
 735              		.loc 1 436 0
 736 0036 F0BC     		pop	{r4, r5, r6, r7}
 737 0038 7047     		bx	lr
 738              		.cfi_endproc
 739              	.LFE127:
 740              		.size	spi_lld_send, .-spi_lld_send
 741 003a 00BFAFF3 		.section	.text.spi_lld_receive,"ax",%progbits
 741      0080
 742              		.align	2
 743              		.p2align 4,,15
 744              		.global	spi_lld_receive
 745              		.thumb
 746              		.thumb_func
 747              		.type	spi_lld_receive, %function
 748              	spi_lld_receive:
 749              	.LFB128:
 750              		.loc 1 451 0
 751              		.cfi_startproc
 752              		@ args = 0, pretend = 0, frame = 0
 753              		@ frame_needed = 0, uses_anonymous_args = 0
 754              		@ link register save eliminated.
 755              	.LVL49:
 756 0000 70B4     		push	{r4, r5, r6}
 757              	.LCFI7:
 758              		.cfi_def_cfa_offset 12
 759              		.cfi_offset 4, -12
 760              		.cfi_offset 5, -8
 761              		.cfi_offset 6, -4
 762              		.loc 1 457 0
 763 0002 436A     		ldr	r3, [r0, #36]
 764              		.loc 1 453 0
 765 0004 046A     		ldr	r4, [r0, #32]
 766              		.loc 1 455 0
 767 0006 866A     		ldr	r6, [r0, #40]
 768              		.loc 1 453 0
 769 0008 2468     		ldr	r4, [r4, #0]
 770              		.loc 1 457 0
 771 000a 1B68     		ldr	r3, [r3, #0]
 772              		.loc 1 459 0
 773 000c C06A     		ldr	r0, [r0, #44]
 774              	.LVL50:
 775              		.loc 1 453 0
 776 000e E260     		str	r2, [r4, #12]
 777              		.loc 1 457 0
 778 0010 40F20005 		movw	r5, #:lower16:.LANCHOR0
 779              		.loc 1 455 0
 780 0014 46F48066 		orr	r6, r6, #1024
 781              		.loc 1 457 0
 782 0018 C0F20005 		movt	r5, #:upper16:.LANCHOR0
 783              		.loc 1 454 0
 784 001c 6160     		str	r1, [r4, #4]
 785              		.loc 1 455 0
 786 001e 2660     		str	r6, [r4, #0]
ARM GAS  /tmp/ccbklE7Y.s 			page 15


 787              		.loc 1 457 0
 788 0020 DD60     		str	r5, [r3, #12]
 789              		.loc 1 458 0
 790 0022 5960     		str	r1, [r3, #4]
 791              		.loc 1 459 0
 792 0024 1860     		str	r0, [r3, #0]
 793              		.loc 1 461 0
 794 0026 2268     		ldr	r2, [r4, #0]
 795              	.LVL51:
 796 0028 42F00102 		orr	r2, r2, #1
 797 002c 2260     		str	r2, [r4, #0]
 798              		.loc 1 462 0
 799 002e 1A68     		ldr	r2, [r3, #0]
 800 0030 42F00102 		orr	r2, r2, #1
 801 0034 1A60     		str	r2, [r3, #0]
 802              		.loc 1 463 0
 803 0036 70BC     		pop	{r4, r5, r6}
 804 0038 7047     		bx	lr
 805              		.cfi_endproc
 806              	.LFE128:
 807              		.size	spi_lld_receive, .-spi_lld_receive
 808 003a 00BFAFF3 		.section	.text.spi_lld_polled_exchange,"ax",%progbits
 808      0080
 809              		.align	2
 810              		.p2align 4,,15
 811              		.global	spi_lld_polled_exchange
 812              		.thumb
 813              		.thumb_func
 814              		.type	spi_lld_polled_exchange, %function
 815              	spi_lld_polled_exchange:
 816              	.LFB129:
 817              		.loc 1 477 0
 818              		.cfi_startproc
 819              		@ args = 0, pretend = 0, frame = 0
 820              		@ frame_needed = 0, uses_anonymous_args = 0
 821              		@ link register save eliminated.
 822              	.LVL52:
 823              		.loc 1 479 0
 824 0000 C269     		ldr	r2, [r0, #28]
 825 0002 9181     		strh	r1, [r2, #12]	@ movhi
 826              	.LVL53:
 827              	.L59:
 828              		.loc 1 480 0 discriminator 1
 829 0004 1389     		ldrh	r3, [r2, #8]
 830 0006 D807     		lsls	r0, r3, #31
 831 0008 FCD5     		bpl	.L59
 832              		.loc 1 482 0
 833 000a 9089     		ldrh	r0, [r2, #12]
 834              		.loc 1 483 0
 835 000c 80B2     		uxth	r0, r0
 836 000e 7047     		bx	lr
 837              		.cfi_endproc
 838              	.LFE129:
 839              		.size	spi_lld_polled_exchange, .-spi_lld_polled_exchange
 840              		.global	SPID1
 841              		.section	.bss.dummytx,"aw",%nobits
 842              		.align	1
ARM GAS  /tmp/ccbklE7Y.s 			page 16


 843              		.set	.LANCHOR0,. + 0
 844              		.type	dummytx, %object
 845              		.size	dummytx, 2
 846              	dummytx:
 847 0000 0000     		.space	2
 848              		.section	.bss.SPID1,"aw",%nobits
 849              		.align	2
 850              		.set	.LANCHOR1,. + 0
 851              		.type	SPID1, %object
 852              		.size	SPID1, 48
 853              	SPID1:
 854 0000 00000000 		.space	48
 854      00000000 
 854      00000000 
 854      00000000 
 854      00000000 
 855              		.section	.rodata.str1.4,"aMS",%progbits,1
 856              		.align	2
 857              	.LC0:
 858 0000 7370695F 		.ascii	"spi_lld_start(), #1\000"
 858      6C6C645F 
 858      73746172 
 858      7428292C 
 858      20233100 
 859              	.LC1:
 860 0014 7370695F 		.ascii	"spi_lld_start(), #2\000"
 860      6C6C645F 
 860      73746172 
 860      7428292C 
 860      20233200 
 861              		.section	.bss.dummyrx,"aw",%nobits
 862              		.align	1
 863              		.set	.LANCHOR2,. + 0
 864              		.type	dummyrx, %object
 865              		.size	dummyrx, 2
 866              	dummyrx:
 867 0000 0000     		.space	2
 868              		.text
 869              	.Letext0:
 870              		.file 2 "/home/david/toolchains/psas/x-tools/stm32f407/arm-psas-eabi/bin/../lib/gcc/arm-psas-eabi/
 871              		.file 3 "/home/david/toolchains/psas/x-tools/stm32f407/arm-psas-eabi/bin/../lib/gcc/arm-psas-eabi/
 872              		.file 4 "../../ChibiOS/os/ports/GCC/ARMCMx/chtypes.h"
 873              		.file 5 "../../ChibiOS/os/kernel/include/chlists.h"
 874              		.file 6 "../../ChibiOS/os/kernel/include/chthreads.h"
 875              		.file 7 "../../ChibiOS/os/ports/GCC/ARMCMx/chcore_v7m.h"
 876              		.file 8 "../../ChibiOS/os/kernel/include/chmtx.h"
 877              		.file 9 "../../ChibiOS/os/hal/platforms/STM32F4xx/stm32f4xx.h"
 878              		.file 10 "../../ChibiOS/os/hal/platforms/STM32F4xx/stm32_dma.h"
 879              		.file 11 "../../ChibiOS/os/hal/platforms/STM32/GPIOv2/pal_lld.h"
 880              		.file 12 "../../ChibiOS/os/hal/include/spi.h"
 881              		.file 13 "../../ChibiOS/os/hal/platforms/STM32/SPIv1/spi_lld.h"
 882              		.file 14 "../../ChibiOS/os/ports/common/ARMCMx/CMSIS/include/core_cm4.h"
 883              		.file 15 "../../ChibiOS/os/kernel/include/chdebug.h"
 884              		.file 16 "../../ChibiOS/os/kernel/include/chschd.h"