ARM GAS  /tmp/cchGjec2.s 			page 1


   1              		.syntax unified
   2              		.cpu cortex-m4
   3              		.eabi_attribute 27, 3
   4              		.eabi_attribute 28, 1
   5              		.fpu fpv4-sp-d16
   6              		.eabi_attribute 20, 1
   7              		.eabi_attribute 21, 1
   8              		.eabi_attribute 23, 3
   9              		.eabi_attribute 24, 1
  10              		.eabi_attribute 25, 1
  11              		.eabi_attribute 26, 1
  12              		.eabi_attribute 30, 2
  13              		.eabi_attribute 34, 1
  14              		.eabi_attribute 18, 4
  15              		.thumb
  16              		.file	"stm32_dma.c"
  17              		.text
  18              	.Ltext0:
  19              		.cfi_sections	.debug_frame
  20              		.section	.text.Vector6C,"ax",%progbits
  21              		.align	2
  22              		.p2align 4,,15
  23              		.global	Vector6C
  24              		.thumb
  25              		.thumb_func
  26              		.type	Vector6C, %function
  27              	Vector6C:
  28              	.LFB118:
  29              		.file 1 "../../ChibiOS/os/hal/platforms/STM32F4xx/stm32_dma.c"
  30              		.loc 1 132 0
  31              		.cfi_startproc
  32              		@ args = 0, pretend = 0, frame = 0
  33              		@ frame_needed = 0, uses_anonymous_args = 0
  34 0000 10B5     		push	{r4, lr}
  35              	.LCFI0:
  36              		.cfi_def_cfa_offset 8
  37              		.cfi_offset 4, -8
  38              		.cfi_offset 14, -4
  39              		.loc 1 135 0
  40 0002 FFF7FEFF 		bl	dbg_check_enter_isr
  41              	.LVL0:
  42              		.loc 1 137 0
  43 0006 4FF4C043 		mov	r3, #24576
  44 000a C4F20203 		movt	r3, 16386
  45              		.loc 1 139 0
  46 000e 0848     		ldr	r0, .L7
  47              		.loc 1 137 0
  48 0010 1968     		ldr	r1, [r3, #0]
  49              		.loc 1 139 0
  50 0012 0268     		ldr	r2, [r0, #0]
  51              		.loc 1 138 0
  52 0014 3D24     		movs	r4, #61
  53              		.loc 1 137 0
  54 0016 01F03D01 		and	r1, r1, #61
  55              	.LVL1:
  56              		.loc 1 138 0
  57 001a 9C60     		str	r4, [r3, #8]
ARM GAS  /tmp/cchGjec2.s 			page 2


  58              		.loc 1 139 0
  59 001c 0AB1     		cbz	r2, .L2
  60              		.loc 1 140 0
  61 001e 4068     		ldr	r0, [r0, #4]
  62 0020 9047     		blx	r2
  63              	.LVL2:
  64              	.L2:
  65              		.loc 1 142 0
  66 0022 FFF7FEFF 		bl	dbg_check_leave_isr
  67              	.LVL3:
  68              		.loc 1 143 0
  69 0026 BDE81040 		pop	{r4, lr}
  70              		.loc 1 142 0
  71 002a FFF7FEBF 		b	_port_irq_epilogue
  72              	.LVL4:
  73              	.L8:
  74 002e 00BF     		.align	2
  75              	.L7:
  76 0030 00000000 		.word	.LANCHOR0
  77              		.cfi_endproc
  78              	.LFE118:
  79              		.size	Vector6C, .-Vector6C
  80 0034 AFF30080 		.section	.text.Vector70,"ax",%progbits
  80      AFF30080 
  80      AFF30080 
  81              		.align	2
  82              		.p2align 4,,15
  83              		.global	Vector70
  84              		.thumb
  85              		.thumb_func
  86              		.type	Vector70, %function
  87              	Vector70:
  88              	.LFB119:
  89              		.loc 1 150 0
  90              		.cfi_startproc
  91              		@ args = 0, pretend = 0, frame = 0
  92              		@ frame_needed = 0, uses_anonymous_args = 0
  93 0000 10B5     		push	{r4, lr}
  94              	.LCFI1:
  95              		.cfi_def_cfa_offset 8
  96              		.cfi_offset 4, -8
  97              		.cfi_offset 14, -4
  98              		.loc 1 153 0
  99 0002 FFF7FEFF 		bl	dbg_check_enter_isr
 100              	.LVL5:
 101              		.loc 1 155 0
 102 0006 4FF4C043 		mov	r3, #24576
 103 000a C4F20203 		movt	r3, 16386
 104              		.loc 1 157 0
 105 000e 0948     		ldr	r0, .L14
 106              		.loc 1 155 0
 107 0010 1968     		ldr	r1, [r3, #0]
 108              		.loc 1 157 0
 109 0012 8268     		ldr	r2, [r0, #8]
 110              		.loc 1 155 0
 111 0014 8909     		lsrs	r1, r1, #6
 112              		.loc 1 156 0
ARM GAS  /tmp/cchGjec2.s 			page 3


 113 0016 4FF47464 		mov	r4, #3904
 114              		.loc 1 155 0
 115 001a 01F03D01 		and	r1, r1, #61
 116              	.LVL6:
 117              		.loc 1 156 0
 118 001e 9C60     		str	r4, [r3, #8]
 119              		.loc 1 157 0
 120 0020 0AB1     		cbz	r2, .L10
 121              		.loc 1 158 0
 122 0022 C068     		ldr	r0, [r0, #12]
 123 0024 9047     		blx	r2
 124              	.LVL7:
 125              	.L10:
 126              		.loc 1 160 0
 127 0026 FFF7FEFF 		bl	dbg_check_leave_isr
 128              	.LVL8:
 129              		.loc 1 161 0
 130 002a BDE81040 		pop	{r4, lr}
 131              		.loc 1 160 0
 132 002e FFF7FEBF 		b	_port_irq_epilogue
 133              	.LVL9:
 134              	.L15:
 135 0032 00BF     		.align	2
 136              	.L14:
 137 0034 00000000 		.word	.LANCHOR0
 138              		.cfi_endproc
 139              	.LFE119:
 140              		.size	Vector70, .-Vector70
 141 0038 AFF30080 		.section	.text.Vector74,"ax",%progbits
 141      AFF30080 
 142              		.align	2
 143              		.p2align 4,,15
 144              		.global	Vector74
 145              		.thumb
 146              		.thumb_func
 147              		.type	Vector74, %function
 148              	Vector74:
 149              	.LFB120:
 150              		.loc 1 168 0
 151              		.cfi_startproc
 152              		@ args = 0, pretend = 0, frame = 0
 153              		@ frame_needed = 0, uses_anonymous_args = 0
 154 0000 10B5     		push	{r4, lr}
 155              	.LCFI2:
 156              		.cfi_def_cfa_offset 8
 157              		.cfi_offset 4, -8
 158              		.cfi_offset 14, -4
 159              		.loc 1 171 0
 160 0002 FFF7FEFF 		bl	dbg_check_enter_isr
 161              	.LVL10:
 162              		.loc 1 173 0
 163 0006 4FF4C043 		mov	r3, #24576
 164 000a C4F20203 		movt	r3, 16386
 165              		.loc 1 175 0
 166 000e 0948     		ldr	r0, .L21
 167              		.loc 1 173 0
 168 0010 1968     		ldr	r1, [r3, #0]
ARM GAS  /tmp/cchGjec2.s 			page 4


 169              		.loc 1 175 0
 170 0012 0269     		ldr	r2, [r0, #16]
 171              		.loc 1 173 0
 172 0014 090C     		lsrs	r1, r1, #16
 173              		.loc 1 174 0
 174 0016 4FF47414 		mov	r4, #3997696
 175              		.loc 1 173 0
 176 001a 01F03D01 		and	r1, r1, #61
 177              	.LVL11:
 178              		.loc 1 174 0
 179 001e 9C60     		str	r4, [r3, #8]
 180              		.loc 1 175 0
 181 0020 0AB1     		cbz	r2, .L17
 182              		.loc 1 176 0
 183 0022 4069     		ldr	r0, [r0, #20]
 184 0024 9047     		blx	r2
 185              	.LVL12:
 186              	.L17:
 187              		.loc 1 178 0
 188 0026 FFF7FEFF 		bl	dbg_check_leave_isr
 189              	.LVL13:
 190              		.loc 1 179 0
 191 002a BDE81040 		pop	{r4, lr}
 192              		.loc 1 178 0
 193 002e FFF7FEBF 		b	_port_irq_epilogue
 194              	.LVL14:
 195              	.L22:
 196 0032 00BF     		.align	2
 197              	.L21:
 198 0034 00000000 		.word	.LANCHOR0
 199              		.cfi_endproc
 200              	.LFE120:
 201              		.size	Vector74, .-Vector74
 202 0038 AFF30080 		.section	.text.Vector78,"ax",%progbits
 202      AFF30080 
 203              		.align	2
 204              		.p2align 4,,15
 205              		.global	Vector78
 206              		.thumb
 207              		.thumb_func
 208              		.type	Vector78, %function
 209              	Vector78:
 210              	.LFB121:
 211              		.loc 1 186 0
 212              		.cfi_startproc
 213              		@ args = 0, pretend = 0, frame = 0
 214              		@ frame_needed = 0, uses_anonymous_args = 0
 215 0000 10B5     		push	{r4, lr}
 216              	.LCFI3:
 217              		.cfi_def_cfa_offset 8
 218              		.cfi_offset 4, -8
 219              		.cfi_offset 14, -4
 220              		.loc 1 189 0
 221 0002 FFF7FEFF 		bl	dbg_check_enter_isr
 222              	.LVL15:
 223              		.loc 1 191 0
 224 0006 4FF4C043 		mov	r3, #24576
ARM GAS  /tmp/cchGjec2.s 			page 5


 225 000a C4F20203 		movt	r3, 16386
 226              		.loc 1 193 0
 227 000e 0948     		ldr	r0, .L28
 228              		.loc 1 191 0
 229 0010 1968     		ldr	r1, [r3, #0]
 230              		.loc 1 193 0
 231 0012 8269     		ldr	r2, [r0, #24]
 232              		.loc 1 191 0
 233 0014 890D     		lsrs	r1, r1, #22
 234              		.loc 1 192 0
 235 0016 4FF07464 		mov	r4, #255852544
 236              		.loc 1 191 0
 237 001a 01F03D01 		and	r1, r1, #61
 238              	.LVL16:
 239              		.loc 1 192 0
 240 001e 9C60     		str	r4, [r3, #8]
 241              		.loc 1 193 0
 242 0020 0AB1     		cbz	r2, .L24
 243              		.loc 1 194 0
 244 0022 C069     		ldr	r0, [r0, #28]
 245 0024 9047     		blx	r2
 246              	.LVL17:
 247              	.L24:
 248              		.loc 1 196 0
 249 0026 FFF7FEFF 		bl	dbg_check_leave_isr
 250              	.LVL18:
 251              		.loc 1 197 0
 252 002a BDE81040 		pop	{r4, lr}
 253              		.loc 1 196 0
 254 002e FFF7FEBF 		b	_port_irq_epilogue
 255              	.LVL19:
 256              	.L29:
 257 0032 00BF     		.align	2
 258              	.L28:
 259 0034 00000000 		.word	.LANCHOR0
 260              		.cfi_endproc
 261              	.LFE121:
 262              		.size	Vector78, .-Vector78
 263 0038 AFF30080 		.section	.text.Vector7C,"ax",%progbits
 263      AFF30080 
 264              		.align	2
 265              		.p2align 4,,15
 266              		.global	Vector7C
 267              		.thumb
 268              		.thumb_func
 269              		.type	Vector7C, %function
 270              	Vector7C:
 271              	.LFB122:
 272              		.loc 1 204 0
 273              		.cfi_startproc
 274              		@ args = 0, pretend = 0, frame = 0
 275              		@ frame_needed = 0, uses_anonymous_args = 0
 276 0000 10B5     		push	{r4, lr}
 277              	.LCFI4:
 278              		.cfi_def_cfa_offset 8
 279              		.cfi_offset 4, -8
 280              		.cfi_offset 14, -4
ARM GAS  /tmp/cchGjec2.s 			page 6


 281              		.loc 1 207 0
 282 0002 FFF7FEFF 		bl	dbg_check_enter_isr
 283              	.LVL20:
 284              		.loc 1 209 0
 285 0006 4FF4C043 		mov	r3, #24576
 286 000a C4F20203 		movt	r3, 16386
 287              		.loc 1 211 0
 288 000e 0848     		ldr	r0, .L35
 289              		.loc 1 209 0
 290 0010 5968     		ldr	r1, [r3, #4]
 291              		.loc 1 211 0
 292 0012 026A     		ldr	r2, [r0, #32]
 293              		.loc 1 210 0
 294 0014 3D24     		movs	r4, #61
 295              		.loc 1 209 0
 296 0016 01F03D01 		and	r1, r1, #61
 297              	.LVL21:
 298              		.loc 1 210 0
 299 001a DC60     		str	r4, [r3, #12]
 300              		.loc 1 211 0
 301 001c 0AB1     		cbz	r2, .L31
 302              		.loc 1 212 0
 303 001e 406A     		ldr	r0, [r0, #36]
 304 0020 9047     		blx	r2
 305              	.LVL22:
 306              	.L31:
 307              		.loc 1 214 0
 308 0022 FFF7FEFF 		bl	dbg_check_leave_isr
 309              	.LVL23:
 310              		.loc 1 215 0
 311 0026 BDE81040 		pop	{r4, lr}
 312              		.loc 1 214 0
 313 002a FFF7FEBF 		b	_port_irq_epilogue
 314              	.LVL24:
 315              	.L36:
 316 002e 00BF     		.align	2
 317              	.L35:
 318 0030 00000000 		.word	.LANCHOR0
 319              		.cfi_endproc
 320              	.LFE122:
 321              		.size	Vector7C, .-Vector7C
 322 0034 AFF30080 		.section	.text.Vector80,"ax",%progbits
 322      AFF30080 
 322      AFF30080 
 323              		.align	2
 324              		.p2align 4,,15
 325              		.global	Vector80
 326              		.thumb
 327              		.thumb_func
 328              		.type	Vector80, %function
 329              	Vector80:
 330              	.LFB123:
 331              		.loc 1 222 0
 332              		.cfi_startproc
 333              		@ args = 0, pretend = 0, frame = 0
 334              		@ frame_needed = 0, uses_anonymous_args = 0
 335 0000 10B5     		push	{r4, lr}
ARM GAS  /tmp/cchGjec2.s 			page 7


 336              	.LCFI5:
 337              		.cfi_def_cfa_offset 8
 338              		.cfi_offset 4, -8
 339              		.cfi_offset 14, -4
 340              		.loc 1 225 0
 341 0002 FFF7FEFF 		bl	dbg_check_enter_isr
 342              	.LVL25:
 343              		.loc 1 227 0
 344 0006 4FF4C043 		mov	r3, #24576
 345 000a C4F20203 		movt	r3, 16386
 346              		.loc 1 229 0
 347 000e 0948     		ldr	r0, .L42
 348              		.loc 1 227 0
 349 0010 5968     		ldr	r1, [r3, #4]
 350              		.loc 1 229 0
 351 0012 826A     		ldr	r2, [r0, #40]
 352              		.loc 1 227 0
 353 0014 8909     		lsrs	r1, r1, #6
 354              		.loc 1 228 0
 355 0016 4FF47464 		mov	r4, #3904
 356              		.loc 1 227 0
 357 001a 01F03D01 		and	r1, r1, #61
 358              	.LVL26:
 359              		.loc 1 228 0
 360 001e DC60     		str	r4, [r3, #12]
 361              		.loc 1 229 0
 362 0020 0AB1     		cbz	r2, .L38
 363              		.loc 1 230 0
 364 0022 C06A     		ldr	r0, [r0, #44]
 365 0024 9047     		blx	r2
 366              	.LVL27:
 367              	.L38:
 368              		.loc 1 232 0
 369 0026 FFF7FEFF 		bl	dbg_check_leave_isr
 370              	.LVL28:
 371              		.loc 1 233 0
 372 002a BDE81040 		pop	{r4, lr}
 373              		.loc 1 232 0
 374 002e FFF7FEBF 		b	_port_irq_epilogue
 375              	.LVL29:
 376              	.L43:
 377 0032 00BF     		.align	2
 378              	.L42:
 379 0034 00000000 		.word	.LANCHOR0
 380              		.cfi_endproc
 381              	.LFE123:
 382              		.size	Vector80, .-Vector80
 383 0038 AFF30080 		.section	.text.Vector84,"ax",%progbits
 383      AFF30080 
 384              		.align	2
 385              		.p2align 4,,15
 386              		.global	Vector84
 387              		.thumb
 388              		.thumb_func
 389              		.type	Vector84, %function
 390              	Vector84:
 391              	.LFB124:
ARM GAS  /tmp/cchGjec2.s 			page 8


 392              		.loc 1 240 0
 393              		.cfi_startproc
 394              		@ args = 0, pretend = 0, frame = 0
 395              		@ frame_needed = 0, uses_anonymous_args = 0
 396 0000 10B5     		push	{r4, lr}
 397              	.LCFI6:
 398              		.cfi_def_cfa_offset 8
 399              		.cfi_offset 4, -8
 400              		.cfi_offset 14, -4
 401              		.loc 1 243 0
 402 0002 FFF7FEFF 		bl	dbg_check_enter_isr
 403              	.LVL30:
 404              		.loc 1 245 0
 405 0006 4FF4C043 		mov	r3, #24576
 406 000a C4F20203 		movt	r3, 16386
 407              		.loc 1 247 0
 408 000e 0948     		ldr	r0, .L49
 409              		.loc 1 245 0
 410 0010 5968     		ldr	r1, [r3, #4]
 411              		.loc 1 247 0
 412 0012 026B     		ldr	r2, [r0, #48]
 413              		.loc 1 245 0
 414 0014 090C     		lsrs	r1, r1, #16
 415              		.loc 1 246 0
 416 0016 4FF47414 		mov	r4, #3997696
 417              		.loc 1 245 0
 418 001a 01F03D01 		and	r1, r1, #61
 419              	.LVL31:
 420              		.loc 1 246 0
 421 001e DC60     		str	r4, [r3, #12]
 422              		.loc 1 247 0
 423 0020 0AB1     		cbz	r2, .L45
 424              		.loc 1 248 0
 425 0022 406B     		ldr	r0, [r0, #52]
 426 0024 9047     		blx	r2
 427              	.LVL32:
 428              	.L45:
 429              		.loc 1 250 0
 430 0026 FFF7FEFF 		bl	dbg_check_leave_isr
 431              	.LVL33:
 432              		.loc 1 251 0
 433 002a BDE81040 		pop	{r4, lr}
 434              		.loc 1 250 0
 435 002e FFF7FEBF 		b	_port_irq_epilogue
 436              	.LVL34:
 437              	.L50:
 438 0032 00BF     		.align	2
 439              	.L49:
 440 0034 00000000 		.word	.LANCHOR0
 441              		.cfi_endproc
 442              	.LFE124:
 443              		.size	Vector84, .-Vector84
 444 0038 AFF30080 		.section	.text.VectorFC,"ax",%progbits
 444      AFF30080 
 445              		.align	2
 446              		.p2align 4,,15
 447              		.global	VectorFC
ARM GAS  /tmp/cchGjec2.s 			page 9


 448              		.thumb
 449              		.thumb_func
 450              		.type	VectorFC, %function
 451              	VectorFC:
 452              	.LFB125:
 453              		.loc 1 258 0
 454              		.cfi_startproc
 455              		@ args = 0, pretend = 0, frame = 0
 456              		@ frame_needed = 0, uses_anonymous_args = 0
 457 0000 10B5     		push	{r4, lr}
 458              	.LCFI7:
 459              		.cfi_def_cfa_offset 8
 460              		.cfi_offset 4, -8
 461              		.cfi_offset 14, -4
 462              		.loc 1 261 0
 463 0002 FFF7FEFF 		bl	dbg_check_enter_isr
 464              	.LVL35:
 465              		.loc 1 263 0
 466 0006 4FF4C043 		mov	r3, #24576
 467 000a C4F20203 		movt	r3, 16386
 468              		.loc 1 265 0
 469 000e 0948     		ldr	r0, .L56
 470              		.loc 1 263 0
 471 0010 5968     		ldr	r1, [r3, #4]
 472              		.loc 1 265 0
 473 0012 826B     		ldr	r2, [r0, #56]
 474              		.loc 1 263 0
 475 0014 890D     		lsrs	r1, r1, #22
 476              		.loc 1 264 0
 477 0016 4FF07464 		mov	r4, #255852544
 478              		.loc 1 263 0
 479 001a 01F03D01 		and	r1, r1, #61
 480              	.LVL36:
 481              		.loc 1 264 0
 482 001e DC60     		str	r4, [r3, #12]
 483              		.loc 1 265 0
 484 0020 0AB1     		cbz	r2, .L52
 485              		.loc 1 266 0
 486 0022 C06B     		ldr	r0, [r0, #60]
 487 0024 9047     		blx	r2
 488              	.LVL37:
 489              	.L52:
 490              		.loc 1 268 0
 491 0026 FFF7FEFF 		bl	dbg_check_leave_isr
 492              	.LVL38:
 493              		.loc 1 269 0
 494 002a BDE81040 		pop	{r4, lr}
 495              		.loc 1 268 0
 496 002e FFF7FEBF 		b	_port_irq_epilogue
 497              	.LVL39:
 498              	.L57:
 499 0032 00BF     		.align	2
 500              	.L56:
 501 0034 00000000 		.word	.LANCHOR0
 502              		.cfi_endproc
 503              	.LFE125:
 504              		.size	VectorFC, .-VectorFC
ARM GAS  /tmp/cchGjec2.s 			page 10


 505 0038 AFF30080 		.section	.text.Vector120,"ax",%progbits
 505      AFF30080 
 506              		.align	2
 507              		.p2align 4,,15
 508              		.global	Vector120
 509              		.thumb
 510              		.thumb_func
 511              		.type	Vector120, %function
 512              	Vector120:
 513              	.LFB126:
 514              		.loc 1 276 0
 515              		.cfi_startproc
 516              		@ args = 0, pretend = 0, frame = 0
 517              		@ frame_needed = 0, uses_anonymous_args = 0
 518 0000 10B5     		push	{r4, lr}
 519              	.LCFI8:
 520              		.cfi_def_cfa_offset 8
 521              		.cfi_offset 4, -8
 522              		.cfi_offset 14, -4
 523              		.loc 1 279 0
 524 0002 FFF7FEFF 		bl	dbg_check_enter_isr
 525              	.LVL40:
 526              		.loc 1 281 0
 527 0006 4FF4C843 		mov	r3, #25600
 528 000a C4F20203 		movt	r3, 16386
 529              		.loc 1 283 0
 530 000e 0848     		ldr	r0, .L63
 531              		.loc 1 281 0
 532 0010 1968     		ldr	r1, [r3, #0]
 533              		.loc 1 283 0
 534 0012 026C     		ldr	r2, [r0, #64]
 535              		.loc 1 282 0
 536 0014 3D24     		movs	r4, #61
 537              		.loc 1 281 0
 538 0016 01F03D01 		and	r1, r1, #61
 539              	.LVL41:
 540              		.loc 1 282 0
 541 001a 9C60     		str	r4, [r3, #8]
 542              		.loc 1 283 0
 543 001c 0AB1     		cbz	r2, .L59
 544              		.loc 1 284 0
 545 001e 406C     		ldr	r0, [r0, #68]
 546 0020 9047     		blx	r2
 547              	.LVL42:
 548              	.L59:
 549              		.loc 1 286 0
 550 0022 FFF7FEFF 		bl	dbg_check_leave_isr
 551              	.LVL43:
 552              		.loc 1 287 0
 553 0026 BDE81040 		pop	{r4, lr}
 554              		.loc 1 286 0
 555 002a FFF7FEBF 		b	_port_irq_epilogue
 556              	.LVL44:
 557              	.L64:
 558 002e 00BF     		.align	2
 559              	.L63:
 560 0030 00000000 		.word	.LANCHOR0
ARM GAS  /tmp/cchGjec2.s 			page 11


 561              		.cfi_endproc
 562              	.LFE126:
 563              		.size	Vector120, .-Vector120
 564 0034 AFF30080 		.section	.text.Vector124,"ax",%progbits
 564      AFF30080 
 564      AFF30080 
 565              		.align	2
 566              		.p2align 4,,15
 567              		.global	Vector124
 568              		.thumb
 569              		.thumb_func
 570              		.type	Vector124, %function
 571              	Vector124:
 572              	.LFB127:
 573              		.loc 1 294 0
 574              		.cfi_startproc
 575              		@ args = 0, pretend = 0, frame = 0
 576              		@ frame_needed = 0, uses_anonymous_args = 0
 577 0000 10B5     		push	{r4, lr}
 578              	.LCFI9:
 579              		.cfi_def_cfa_offset 8
 580              		.cfi_offset 4, -8
 581              		.cfi_offset 14, -4
 582              		.loc 1 297 0
 583 0002 FFF7FEFF 		bl	dbg_check_enter_isr
 584              	.LVL45:
 585              		.loc 1 299 0
 586 0006 4FF4C843 		mov	r3, #25600
 587 000a C4F20203 		movt	r3, 16386
 588              		.loc 1 301 0
 589 000e 0948     		ldr	r0, .L70
 590              		.loc 1 299 0
 591 0010 1968     		ldr	r1, [r3, #0]
 592              		.loc 1 301 0
 593 0012 826C     		ldr	r2, [r0, #72]
 594              		.loc 1 299 0
 595 0014 8909     		lsrs	r1, r1, #6
 596              		.loc 1 300 0
 597 0016 4FF47464 		mov	r4, #3904
 598              		.loc 1 299 0
 599 001a 01F03D01 		and	r1, r1, #61
 600              	.LVL46:
 601              		.loc 1 300 0
 602 001e 9C60     		str	r4, [r3, #8]
 603              		.loc 1 301 0
 604 0020 0AB1     		cbz	r2, .L66
 605              		.loc 1 302 0
 606 0022 C06C     		ldr	r0, [r0, #76]
 607 0024 9047     		blx	r2
 608              	.LVL47:
 609              	.L66:
 610              		.loc 1 304 0
 611 0026 FFF7FEFF 		bl	dbg_check_leave_isr
 612              	.LVL48:
 613              		.loc 1 305 0
 614 002a BDE81040 		pop	{r4, lr}
 615              		.loc 1 304 0
ARM GAS  /tmp/cchGjec2.s 			page 12


 616 002e FFF7FEBF 		b	_port_irq_epilogue
 617              	.LVL49:
 618              	.L71:
 619 0032 00BF     		.align	2
 620              	.L70:
 621 0034 00000000 		.word	.LANCHOR0
 622              		.cfi_endproc
 623              	.LFE127:
 624              		.size	Vector124, .-Vector124
 625 0038 AFF30080 		.section	.text.Vector128,"ax",%progbits
 625      AFF30080 
 626              		.align	2
 627              		.p2align 4,,15
 628              		.global	Vector128
 629              		.thumb
 630              		.thumb_func
 631              		.type	Vector128, %function
 632              	Vector128:
 633              	.LFB128:
 634              		.loc 1 312 0
 635              		.cfi_startproc
 636              		@ args = 0, pretend = 0, frame = 0
 637              		@ frame_needed = 0, uses_anonymous_args = 0
 638 0000 10B5     		push	{r4, lr}
 639              	.LCFI10:
 640              		.cfi_def_cfa_offset 8
 641              		.cfi_offset 4, -8
 642              		.cfi_offset 14, -4
 643              		.loc 1 315 0
 644 0002 FFF7FEFF 		bl	dbg_check_enter_isr
 645              	.LVL50:
 646              		.loc 1 317 0
 647 0006 4FF4C843 		mov	r3, #25600
 648 000a C4F20203 		movt	r3, 16386
 649              		.loc 1 319 0
 650 000e 0948     		ldr	r0, .L77
 651              		.loc 1 317 0
 652 0010 1968     		ldr	r1, [r3, #0]
 653              		.loc 1 319 0
 654 0012 026D     		ldr	r2, [r0, #80]
 655              		.loc 1 317 0
 656 0014 090C     		lsrs	r1, r1, #16
 657              		.loc 1 318 0
 658 0016 4FF47414 		mov	r4, #3997696
 659              		.loc 1 317 0
 660 001a 01F03D01 		and	r1, r1, #61
 661              	.LVL51:
 662              		.loc 1 318 0
 663 001e 9C60     		str	r4, [r3, #8]
 664              		.loc 1 319 0
 665 0020 0AB1     		cbz	r2, .L73
 666              		.loc 1 320 0
 667 0022 406D     		ldr	r0, [r0, #84]
 668 0024 9047     		blx	r2
 669              	.LVL52:
 670              	.L73:
 671              		.loc 1 322 0
ARM GAS  /tmp/cchGjec2.s 			page 13


 672 0026 FFF7FEFF 		bl	dbg_check_leave_isr
 673              	.LVL53:
 674              		.loc 1 323 0
 675 002a BDE81040 		pop	{r4, lr}
 676              		.loc 1 322 0
 677 002e FFF7FEBF 		b	_port_irq_epilogue
 678              	.LVL54:
 679              	.L78:
 680 0032 00BF     		.align	2
 681              	.L77:
 682 0034 00000000 		.word	.LANCHOR0
 683              		.cfi_endproc
 684              	.LFE128:
 685              		.size	Vector128, .-Vector128
 686 0038 AFF30080 		.section	.text.Vector12C,"ax",%progbits
 686      AFF30080 
 687              		.align	2
 688              		.p2align 4,,15
 689              		.global	Vector12C
 690              		.thumb
 691              		.thumb_func
 692              		.type	Vector12C, %function
 693              	Vector12C:
 694              	.LFB129:
 695              		.loc 1 330 0
 696              		.cfi_startproc
 697              		@ args = 0, pretend = 0, frame = 0
 698              		@ frame_needed = 0, uses_anonymous_args = 0
 699 0000 10B5     		push	{r4, lr}
 700              	.LCFI11:
 701              		.cfi_def_cfa_offset 8
 702              		.cfi_offset 4, -8
 703              		.cfi_offset 14, -4
 704              		.loc 1 333 0
 705 0002 FFF7FEFF 		bl	dbg_check_enter_isr
 706              	.LVL55:
 707              		.loc 1 335 0
 708 0006 4FF4C843 		mov	r3, #25600
 709 000a C4F20203 		movt	r3, 16386
 710              		.loc 1 337 0
 711 000e 0948     		ldr	r0, .L84
 712              		.loc 1 335 0
 713 0010 1968     		ldr	r1, [r3, #0]
 714              		.loc 1 337 0
 715 0012 826D     		ldr	r2, [r0, #88]
 716              		.loc 1 335 0
 717 0014 890D     		lsrs	r1, r1, #22
 718              		.loc 1 336 0
 719 0016 4FF07464 		mov	r4, #255852544
 720              		.loc 1 335 0
 721 001a 01F03D01 		and	r1, r1, #61
 722              	.LVL56:
 723              		.loc 1 336 0
 724 001e 9C60     		str	r4, [r3, #8]
 725              		.loc 1 337 0
 726 0020 0AB1     		cbz	r2, .L80
 727              		.loc 1 338 0
ARM GAS  /tmp/cchGjec2.s 			page 14


 728 0022 C06D     		ldr	r0, [r0, #92]
 729 0024 9047     		blx	r2
 730              	.LVL57:
 731              	.L80:
 732              		.loc 1 340 0
 733 0026 FFF7FEFF 		bl	dbg_check_leave_isr
 734              	.LVL58:
 735              		.loc 1 341 0
 736 002a BDE81040 		pop	{r4, lr}
 737              		.loc 1 340 0
 738 002e FFF7FEBF 		b	_port_irq_epilogue
 739              	.LVL59:
 740              	.L85:
 741 0032 00BF     		.align	2
 742              	.L84:
 743 0034 00000000 		.word	.LANCHOR0
 744              		.cfi_endproc
 745              	.LFE129:
 746              		.size	Vector12C, .-Vector12C
 747 0038 AFF30080 		.section	.text.Vector130,"ax",%progbits
 747      AFF30080 
 748              		.align	2
 749              		.p2align 4,,15
 750              		.global	Vector130
 751              		.thumb
 752              		.thumb_func
 753              		.type	Vector130, %function
 754              	Vector130:
 755              	.LFB130:
 756              		.loc 1 348 0
 757              		.cfi_startproc
 758              		@ args = 0, pretend = 0, frame = 0
 759              		@ frame_needed = 0, uses_anonymous_args = 0
 760 0000 10B5     		push	{r4, lr}
 761              	.LCFI12:
 762              		.cfi_def_cfa_offset 8
 763              		.cfi_offset 4, -8
 764              		.cfi_offset 14, -4
 765              		.loc 1 351 0
 766 0002 FFF7FEFF 		bl	dbg_check_enter_isr
 767              	.LVL60:
 768              		.loc 1 353 0
 769 0006 4FF4C843 		mov	r3, #25600
 770 000a C4F20203 		movt	r3, 16386
 771              		.loc 1 355 0
 772 000e 0848     		ldr	r0, .L91
 773              		.loc 1 353 0
 774 0010 5968     		ldr	r1, [r3, #4]
 775              		.loc 1 355 0
 776 0012 026E     		ldr	r2, [r0, #96]
 777              		.loc 1 354 0
 778 0014 3D24     		movs	r4, #61
 779              		.loc 1 353 0
 780 0016 01F03D01 		and	r1, r1, #61
 781              	.LVL61:
 782              		.loc 1 354 0
 783 001a DC60     		str	r4, [r3, #12]
ARM GAS  /tmp/cchGjec2.s 			page 15


 784              		.loc 1 355 0
 785 001c 0AB1     		cbz	r2, .L87
 786              		.loc 1 356 0
 787 001e 406E     		ldr	r0, [r0, #100]
 788 0020 9047     		blx	r2
 789              	.LVL62:
 790              	.L87:
 791              		.loc 1 358 0
 792 0022 FFF7FEFF 		bl	dbg_check_leave_isr
 793              	.LVL63:
 794              		.loc 1 359 0
 795 0026 BDE81040 		pop	{r4, lr}
 796              		.loc 1 358 0
 797 002a FFF7FEBF 		b	_port_irq_epilogue
 798              	.LVL64:
 799              	.L92:
 800 002e 00BF     		.align	2
 801              	.L91:
 802 0030 00000000 		.word	.LANCHOR0
 803              		.cfi_endproc
 804              	.LFE130:
 805              		.size	Vector130, .-Vector130
 806 0034 AFF30080 		.section	.text.Vector150,"ax",%progbits
 806      AFF30080 
 806      AFF30080 
 807              		.align	2
 808              		.p2align 4,,15
 809              		.global	Vector150
 810              		.thumb
 811              		.thumb_func
 812              		.type	Vector150, %function
 813              	Vector150:
 814              	.LFB131:
 815              		.loc 1 366 0
 816              		.cfi_startproc
 817              		@ args = 0, pretend = 0, frame = 0
 818              		@ frame_needed = 0, uses_anonymous_args = 0
 819 0000 10B5     		push	{r4, lr}
 820              	.LCFI13:
 821              		.cfi_def_cfa_offset 8
 822              		.cfi_offset 4, -8
 823              		.cfi_offset 14, -4
 824              		.loc 1 369 0
 825 0002 FFF7FEFF 		bl	dbg_check_enter_isr
 826              	.LVL65:
 827              		.loc 1 371 0
 828 0006 4FF4C843 		mov	r3, #25600
 829 000a C4F20203 		movt	r3, 16386
 830              		.loc 1 373 0
 831 000e 0948     		ldr	r0, .L98
 832              		.loc 1 371 0
 833 0010 5968     		ldr	r1, [r3, #4]
 834              		.loc 1 373 0
 835 0012 826E     		ldr	r2, [r0, #104]
 836              		.loc 1 371 0
 837 0014 8909     		lsrs	r1, r1, #6
 838              		.loc 1 372 0
ARM GAS  /tmp/cchGjec2.s 			page 16


 839 0016 4FF47464 		mov	r4, #3904
 840              		.loc 1 371 0
 841 001a 01F03D01 		and	r1, r1, #61
 842              	.LVL66:
 843              		.loc 1 372 0
 844 001e DC60     		str	r4, [r3, #12]
 845              		.loc 1 373 0
 846 0020 0AB1     		cbz	r2, .L94
 847              		.loc 1 374 0
 848 0022 C06E     		ldr	r0, [r0, #108]
 849 0024 9047     		blx	r2
 850              	.LVL67:
 851              	.L94:
 852              		.loc 1 376 0
 853 0026 FFF7FEFF 		bl	dbg_check_leave_isr
 854              	.LVL68:
 855              		.loc 1 377 0
 856 002a BDE81040 		pop	{r4, lr}
 857              		.loc 1 376 0
 858 002e FFF7FEBF 		b	_port_irq_epilogue
 859              	.LVL69:
 860              	.L99:
 861 0032 00BF     		.align	2
 862              	.L98:
 863 0034 00000000 		.word	.LANCHOR0
 864              		.cfi_endproc
 865              	.LFE131:
 866              		.size	Vector150, .-Vector150
 867 0038 AFF30080 		.section	.text.Vector154,"ax",%progbits
 867      AFF30080 
 868              		.align	2
 869              		.p2align 4,,15
 870              		.global	Vector154
 871              		.thumb
 872              		.thumb_func
 873              		.type	Vector154, %function
 874              	Vector154:
 875              	.LFB132:
 876              		.loc 1 384 0
 877              		.cfi_startproc
 878              		@ args = 0, pretend = 0, frame = 0
 879              		@ frame_needed = 0, uses_anonymous_args = 0
 880 0000 10B5     		push	{r4, lr}
 881              	.LCFI14:
 882              		.cfi_def_cfa_offset 8
 883              		.cfi_offset 4, -8
 884              		.cfi_offset 14, -4
 885              		.loc 1 387 0
 886 0002 FFF7FEFF 		bl	dbg_check_enter_isr
 887              	.LVL70:
 888              		.loc 1 389 0
 889 0006 4FF4C843 		mov	r3, #25600
 890 000a C4F20203 		movt	r3, 16386
 891              		.loc 1 391 0
 892 000e 0948     		ldr	r0, .L105
 893              		.loc 1 389 0
 894 0010 5968     		ldr	r1, [r3, #4]
ARM GAS  /tmp/cchGjec2.s 			page 17


 895              		.loc 1 391 0
 896 0012 026F     		ldr	r2, [r0, #112]
 897              		.loc 1 389 0
 898 0014 090C     		lsrs	r1, r1, #16
 899              		.loc 1 390 0
 900 0016 4FF47414 		mov	r4, #3997696
 901              		.loc 1 389 0
 902 001a 01F03D01 		and	r1, r1, #61
 903              	.LVL71:
 904              		.loc 1 390 0
 905 001e DC60     		str	r4, [r3, #12]
 906              		.loc 1 391 0
 907 0020 0AB1     		cbz	r2, .L101
 908              		.loc 1 392 0
 909 0022 406F     		ldr	r0, [r0, #116]
 910 0024 9047     		blx	r2
 911              	.LVL72:
 912              	.L101:
 913              		.loc 1 394 0
 914 0026 FFF7FEFF 		bl	dbg_check_leave_isr
 915              	.LVL73:
 916              		.loc 1 395 0
 917 002a BDE81040 		pop	{r4, lr}
 918              		.loc 1 394 0
 919 002e FFF7FEBF 		b	_port_irq_epilogue
 920              	.LVL74:
 921              	.L106:
 922 0032 00BF     		.align	2
 923              	.L105:
 924 0034 00000000 		.word	.LANCHOR0
 925              		.cfi_endproc
 926              	.LFE132:
 927              		.size	Vector154, .-Vector154
 928 0038 AFF30080 		.section	.text.Vector158,"ax",%progbits
 928      AFF30080 
 929              		.align	2
 930              		.p2align 4,,15
 931              		.global	Vector158
 932              		.thumb
 933              		.thumb_func
 934              		.type	Vector158, %function
 935              	Vector158:
 936              	.LFB133:
 937              		.loc 1 402 0
 938              		.cfi_startproc
 939              		@ args = 0, pretend = 0, frame = 0
 940              		@ frame_needed = 0, uses_anonymous_args = 0
 941 0000 10B5     		push	{r4, lr}
 942              	.LCFI15:
 943              		.cfi_def_cfa_offset 8
 944              		.cfi_offset 4, -8
 945              		.cfi_offset 14, -4
 946              		.loc 1 405 0
 947 0002 FFF7FEFF 		bl	dbg_check_enter_isr
 948              	.LVL75:
 949              		.loc 1 407 0
 950 0006 4FF4C843 		mov	r3, #25600
ARM GAS  /tmp/cchGjec2.s 			page 18


 951 000a C4F20203 		movt	r3, 16386
 952              		.loc 1 409 0
 953 000e 0948     		ldr	r0, .L112
 954              		.loc 1 407 0
 955 0010 5968     		ldr	r1, [r3, #4]
 956              		.loc 1 409 0
 957 0012 826F     		ldr	r2, [r0, #120]
 958              		.loc 1 407 0
 959 0014 890D     		lsrs	r1, r1, #22
 960              		.loc 1 408 0
 961 0016 4FF07464 		mov	r4, #255852544
 962              		.loc 1 407 0
 963 001a 01F03D01 		and	r1, r1, #61
 964              	.LVL76:
 965              		.loc 1 408 0
 966 001e DC60     		str	r4, [r3, #12]
 967              		.loc 1 409 0
 968 0020 0AB1     		cbz	r2, .L108
 969              		.loc 1 410 0
 970 0022 C06F     		ldr	r0, [r0, #124]
 971 0024 9047     		blx	r2
 972              	.LVL77:
 973              	.L108:
 974              		.loc 1 412 0
 975 0026 FFF7FEFF 		bl	dbg_check_leave_isr
 976              	.LVL78:
 977              		.loc 1 413 0
 978 002a BDE81040 		pop	{r4, lr}
 979              		.loc 1 412 0
 980 002e FFF7FEBF 		b	_port_irq_epilogue
 981              	.LVL79:
 982              	.L113:
 983 0032 00BF     		.align	2
 984              	.L112:
 985 0034 00000000 		.word	.LANCHOR0
 986              		.cfi_endproc
 987              	.LFE133:
 988              		.size	Vector158, .-Vector158
 989 0038 AFF30080 		.section	.text.dmaInit,"ax",%progbits
 989      AFF30080 
 990              		.align	2
 991              		.p2align 4,,15
 992              		.global	dmaInit
 993              		.thumb
 994              		.thumb_func
 995              		.type	dmaInit, %function
 996              	dmaInit:
 997              	.LFB134:
 998              		.loc 1 424 0
 999              		.cfi_startproc
 1000              		@ args = 0, pretend = 0, frame = 0
 1001              		@ frame_needed = 0, uses_anonymous_args = 0
 1002              		@ link register save eliminated.
 1003              		.loc 1 427 0
 1004 0000 0F4B     		ldr	r3, .L117
 1005              		.loc 1 424 0
 1006 0002 30B4     		push	{r4, r5}
ARM GAS  /tmp/cchGjec2.s 			page 19


 1007              	.LCFI16:
 1008              		.cfi_def_cfa_offset 8
 1009              		.cfi_offset 4, -8
 1010              		.cfi_offset 5, -4
 1011              		.loc 1 427 0
 1012 0004 0022     		movs	r2, #0
 1013 0006 0F4D     		ldr	r5, .L117+4
 1014 0008 0F4C     		ldr	r4, .L117+8
 1015 000a 1A60     		str	r2, [r3, #0]
 1016              	.LVL80:
 1017              		.loc 1 429 0
 1018 000c 1146     		mov	r1, r2
 1019              		.loc 1 427 0
 1020 000e 1346     		mov	r3, r2
 1021              	.LVL81:
 1022              	.L115:
 1023              		.loc 1 429 0 discriminator 2
 1024 0010 E858     		ldr	r0, [r5, r3]
 1025 0012 0C33     		adds	r3, r3, #12
 1026 0014 0160     		str	r1, [r0, #0]
 1027              		.loc 1 430 0 discriminator 2
 1028 0016 A150     		str	r1, [r4, r2]
 1029 0018 0832     		adds	r2, r2, #8
 1030              		.loc 1 428 0 discriminator 2
 1031 001a C02B     		cmp	r3, #192
 1032 001c F8D1     		bne	.L115
 1033              		.loc 1 432 0
 1034 001e 4FF4C041 		mov	r1, #24576
 1035              		.loc 1 434 0
 1036 0022 4FF4C842 		mov	r2, #25600
 1037              		.loc 1 432 0
 1038 0026 C4F20201 		movt	r1, 16386
 1039              		.loc 1 434 0
 1040 002a C4F20202 		movt	r2, 16386
 1041              		.loc 1 432 0
 1042 002e 4FF0FF33 		mov	r3, #-1
 1043 0032 8B60     		str	r3, [r1, #8]
 1044              		.loc 1 433 0
 1045 0034 CB60     		str	r3, [r1, #12]
 1046              		.loc 1 434 0
 1047 0036 9360     		str	r3, [r2, #8]
 1048              		.loc 1 435 0
 1049 0038 D360     		str	r3, [r2, #12]
 1050              		.loc 1 436 0
 1051 003a 30BC     		pop	{r4, r5}
 1052 003c 7047     		bx	lr
 1053              	.L118:
 1054 003e 00BF     		.align	2
 1055              	.L117:
 1056 0040 00000000 		.word	.LANCHOR1
 1057 0044 00000000 		.word	.LANCHOR2
 1058 0048 00000000 		.word	.LANCHOR0
 1059              		.cfi_endproc
 1060              	.LFE134:
 1061              		.size	dmaInit, .-dmaInit
 1062 004c AFF30080 		.section	.text.dmaStreamAllocate,"ax",%progbits
 1063              		.align	2
ARM GAS  /tmp/cchGjec2.s 			page 20


 1064              		.p2align 4,,15
 1065              		.global	dmaStreamAllocate
 1066              		.thumb
 1067              		.thumb_func
 1068              		.type	dmaStreamAllocate, %function
 1069              	dmaStreamAllocate:
 1070              	.LFB135:
 1071              		.loc 1 465 0
 1072              		.cfi_startproc
 1073              		@ args = 0, pretend = 0, frame = 16
 1074              		@ frame_needed = 0, uses_anonymous_args = 0
 1075              	.LVL82:
 1076 0000 2DE9F041 		push	{r4, r5, r6, r7, r8, lr}
 1077              	.LCFI17:
 1078              		.cfi_def_cfa_offset 24
 1079              		.cfi_offset 4, -24
 1080              		.cfi_offset 5, -20
 1081              		.cfi_offset 6, -16
 1082              		.cfi_offset 7, -12
 1083              		.cfi_offset 8, -8
 1084              		.cfi_offset 14, -4
 1085              		.loc 1 467 0
 1086 0004 0646     		mov	r6, r0
 1087              		.loc 1 465 0
 1088 0006 84B0     		sub	sp, sp, #16
 1089              	.LCFI18:
 1090              		.cfi_def_cfa_offset 40
 1091              		.loc 1 467 0
 1092 0008 0028     		cmp	r0, #0
 1093 000a 48D0     		beq	.L134
 1094              	.LVL83:
 1095              	.L120:
 1096              		.loc 1 470 0
 1097 000c 294F     		ldr	r7, .L135
 1098 000e 747A     		ldrb	r4, [r6, #9]	@ zero_extendqisi2
 1099 0010 3868     		ldr	r0, [r7, #0]
 1100 0012 0125     		movs	r5, #1
 1101 0014 05FA04FC 		lsl	ip, r5, r4
 1102 0018 1CEA000F 		tst	ip, r0
 1103              		.loc 1 471 0
 1104 001c 18BF     		it	ne
 1105 001e 2846     		movne	r0, r5
 1106              		.loc 1 470 0
 1107 0020 3AD1     		bne	.L121
 1108              		.loc 1 474 0
 1109 0022 254D     		ldr	r5, .L135+4
 1110              		.loc 1 476 0
 1111 0024 4CEA0000 		orr	r0, ip, r0
 1112              		.loc 1 475 0
 1113 0028 05EBC408 		add	r8, r5, r4, lsl #3
 1114              		.loc 1 479 0
 1115 002c 10F0FF0F 		tst	r0, #255
 1116              		.loc 1 475 0
 1117 0030 C8F80430 		str	r3, [r8, #4]
 1118              		.loc 1 480 0
 1119 0034 1CBF     		itt	ne
 1120 0036 4FF46053 		movne	r3, #14336
ARM GAS  /tmp/cchGjec2.s 			page 21


 1121 003a C4F20203 		movtne	r3, 16386
 1122              		.loc 1 476 0
 1123 003e 3860     		str	r0, [r7, #0]
 1124              		.loc 1 474 0
 1125 0040 45F83420 		str	r2, [r5, r4, lsl #3]
 1126              		.loc 1 480 0
 1127 0044 1EBF     		ittt	ne
 1128 0046 1C6B     		ldrne	r4, [r3, #48]
 1129 0048 44F40014 		orrne	r4, r4, #2097152
 1130 004c 1C63     		strne	r4, [r3, #48]
 1131              		.loc 1 481 0
 1132 004e 10F47F4F 		tst	r0, #65280
 1133              		.loc 1 482 0
 1134 0052 1CBF     		itt	ne
 1135 0054 4FF46053 		movne	r3, #14336
 1136 0058 C4F20203 		movtne	r3, 16386
 1137              		.loc 1 485 0
 1138 005c 3468     		ldr	r4, [r6, #0]
 1139              		.loc 1 482 0
 1140 005e 1EBF     		ittt	ne
 1141 0060 186B     		ldrne	r0, [r3, #48]
 1142 0062 40F48000 		orrne	r0, r0, #4194304
 1143 0066 1863     		strne	r0, [r3, #48]
 1144              		.loc 1 485 0
 1145 0068 2368     		ldr	r3, [r4, #0]
 1146 006a 23F00103 		bic	r3, r3, #1
 1147 006e 2360     		str	r3, [r4, #0]
 1148              	.L124:
 1149              		.loc 1 485 0 is_stmt 0 discriminator 1
 1150 0070 2368     		ldr	r3, [r4, #0]
 1151 0072 13F00105 		ands	r5, r3, #1
 1152 0076 FBD1     		bne	.L124
 1153              		.loc 1 485 0 discriminator 2
 1154 0078 307A     		ldrb	r0, [r6, #8]	@ zero_extendqisi2
 1155 007a 7368     		ldr	r3, [r6, #4]
 1156 007c 3D27     		movs	r7, #61
 1157 007e 07FA00F0 		lsl	r0, r7, r0
 1158 0082 1860     		str	r0, [r3, #0]
 1159              		.loc 1 487 0 is_stmt 1 discriminator 2
 1160 0084 2123     		movs	r3, #33
 1161              		.loc 1 486 0 discriminator 2
 1162 0086 2560     		str	r5, [r4, #0]
 1163              		.loc 1 493 0 discriminator 2
 1164 0088 1046     		mov	r0, r2
 1165              		.loc 1 487 0 discriminator 2
 1166 008a 6361     		str	r3, [r4, #20]
 1167              		.loc 1 490 0 discriminator 2
 1168 008c 22B1     		cbz	r2, .L121
 1169              		.loc 1 491 0
 1170 008e B07A     		ldrb	r0, [r6, #10]	@ zero_extendqisi2
 1171 0090 0901     		lsls	r1, r1, #4
 1172 0092 FFF7FEFF 		bl	nvicEnableVector
 1173              	.LVL84:
 1174              		.loc 1 493 0
 1175 0096 2846     		mov	r0, r5
 1176              	.L121:
 1177              		.loc 1 494 0
ARM GAS  /tmp/cchGjec2.s 			page 22


 1178 0098 04B0     		add	sp, sp, #16
 1179 009a BDE8F081 		pop	{r4, r5, r6, r7, r8, pc}
 1180              	.LVL85:
 1181              	.L134:
 1182              		.loc 1 467 0 discriminator 1
 1183 009e 0748     		ldr	r0, .L135+8
 1184              	.LVL86:
 1185 00a0 0391     		str	r1, [sp, #12]
 1186 00a2 0292     		str	r2, [sp, #8]
 1187 00a4 0193     		str	r3, [sp, #4]
 1188 00a6 FFF7FEFF 		bl	chDbgPanic
 1189              	.LVL87:
 1190 00aa 019B     		ldr	r3, [sp, #4]
 1191 00ac 029A     		ldr	r2, [sp, #8]
 1192 00ae 0399     		ldr	r1, [sp, #12]
 1193 00b0 ACE7     		b	.L120
 1194              	.L136:
 1195 00b2 00BF     		.align	2
 1196              	.L135:
 1197 00b4 00000000 		.word	.LANCHOR1
 1198 00b8 00000000 		.word	.LANCHOR0
 1199 00bc 00000000 		.word	.LC0
 1200              		.cfi_endproc
 1201              	.LFE135:
 1202              		.size	dmaStreamAllocate, .-dmaStreamAllocate
 1203              		.section	.text.dmaStreamRelease,"ax",%progbits
 1204              		.align	2
 1205              		.p2align 4,,15
 1206              		.global	dmaStreamRelease
 1207              		.thumb
 1208              		.thumb_func
 1209              		.type	dmaStreamRelease, %function
 1210              	dmaStreamRelease:
 1211              	.LFB136:
 1212              		.loc 1 509 0
 1213              		.cfi_startproc
 1214              		@ args = 0, pretend = 0, frame = 0
 1215              		@ frame_needed = 0, uses_anonymous_args = 0
 1216              	.LVL88:
 1217 0000 38B5     		push	{r3, r4, r5, lr}
 1218              	.LCFI19:
 1219              		.cfi_def_cfa_offset 16
 1220              		.cfi_offset 3, -16
 1221              		.cfi_offset 4, -12
 1222              		.cfi_offset 5, -8
 1223              		.cfi_offset 14, -4
 1224              		.loc 1 511 0
 1225 0002 0446     		mov	r4, r0
 1226 0004 0028     		cmp	r0, #0
 1227 0006 2FD0     		beq	.L142
 1228              	.LVL89:
 1229              	.L138:
 1230              		.loc 1 514 0
 1231 0008 194D     		ldr	r5, .L144
 1232 000a 627A     		ldrb	r2, [r4, #9]	@ zero_extendqisi2
 1233 000c 2B68     		ldr	r3, [r5, #0]
 1234 000e 0121     		movs	r1, #1
ARM GAS  /tmp/cchGjec2.s 			page 23


 1235 0010 01FA02F2 		lsl	r2, r1, r2
 1236 0014 1A42     		tst	r2, r3
 1237 0016 23D0     		beq	.L143
 1238              	.L139:
 1239              		.loc 1 518 0
 1240 0018 A07A     		ldrb	r0, [r4, #10]	@ zero_extendqisi2
 1241 001a FFF7FEFF 		bl	nvicDisableVector
 1242              	.LVL90:
 1243              		.loc 1 521 0
 1244 001e 637A     		ldrb	r3, [r4, #9]	@ zero_extendqisi2
 1245 0020 2A68     		ldr	r2, [r5, #0]
 1246 0022 0121     		movs	r1, #1
 1247 0024 01FA03F3 		lsl	r3, r1, r3
 1248 0028 22EA0303 		bic	r3, r2, r3
 1249              		.loc 1 524 0
 1250 002c 13F0FF0F 		tst	r3, #255
 1251              		.loc 1 525 0
 1252 0030 04BF     		itt	eq
 1253 0032 4FF46052 		moveq	r2, #14336
 1254 0036 C4F20202 		movteq	r2, 16386
 1255              		.loc 1 521 0
 1256 003a 2B60     		str	r3, [r5, #0]
 1257              		.loc 1 525 0
 1258 003c 02BF     		ittt	eq
 1259 003e 116B     		ldreq	r1, [r2, #48]
 1260 0040 21F40011 		biceq	r1, r1, #2097152
 1261 0044 1163     		streq	r1, [r2, #48]
 1262              		.loc 1 526 0
 1263 0046 13F47F4F 		tst	r3, #65280
 1264              		.loc 1 527 0
 1265 004a 01BF     		itttt	eq
 1266 004c 4FF46053 		moveq	r3, #14336
 1267 0050 C4F20203 		movteq	r3, 16386
 1268 0054 1A6B     		ldreq	r2, [r3, #48]
 1269 0056 22F48002 		biceq	r2, r2, #4194304
 1270 005a 08BF     		it	eq
 1271 005c 1A63     		streq	r2, [r3, #48]
 1272 005e 38BD     		pop	{r3, r4, r5, pc}
 1273              	.L143:
 1274              		.loc 1 514 0 discriminator 1
 1275 0060 0448     		ldr	r0, .L144+4
 1276 0062 FFF7FEFF 		bl	chDbgPanic
 1277              	.LVL91:
 1278 0066 D7E7     		b	.L139
 1279              	.LVL92:
 1280              	.L142:
 1281              		.loc 1 511 0 discriminator 1
 1282 0068 0348     		ldr	r0, .L144+8
 1283              	.LVL93:
 1284 006a FFF7FEFF 		bl	chDbgPanic
 1285              	.LVL94:
 1286 006e CBE7     		b	.L138
 1287              	.L145:
 1288              		.align	2
 1289              	.L144:
 1290 0070 00000000 		.word	.LANCHOR1
 1291 0074 20000000 		.word	.LC2
ARM GAS  /tmp/cchGjec2.s 			page 24


 1292 0078 10000000 		.word	.LC1
 1293              		.cfi_endproc
 1294              	.LFE136:
 1295              		.size	dmaStreamRelease, .-dmaStreamRelease
 1296              		.global	_stm32_dma_streams
 1297 007c AFF30080 		.section	.rodata.str1.4,"aMS",%progbits,1
 1298              		.align	2
 1299              	.LC0:
 1300 0000 22646D61 		.ascii	"\"dmaAllocate\"()\000"
 1300      416C6C6F 
 1300      63617465 
 1300      22282900 
 1301              	.LC1:
 1302 0010 22646D61 		.ascii	"\"dmaRelease\"()\000"
 1302      52656C65 
 1302      61736522 
 1302      282900
 1303 001f 00       		.space	1
 1304              	.LC2:
 1305 0020 646D6152 		.ascii	"dmaRelease(), #1\000"
 1305      656C6561 
 1305      73652829 
 1305      2C202331 
 1305      00
 1306 0031 000000   		.section	.bss.dma_isr_redir,"aw",%nobits
 1307              		.align	2
 1308              		.set	.LANCHOR0,. + 0
 1309              		.type	dma_isr_redir, %object
 1310              		.size	dma_isr_redir, 128
 1311              	dma_isr_redir:
 1312 0000 00000000 		.space	128
 1312      00000000 
 1312      00000000 
 1312      00000000 
 1312      00000000 
 1313              		.section	.rodata._stm32_dma_streams,"a",%progbits
 1314              		.align	2
 1315              		.set	.LANCHOR2,. + 0
 1316              		.type	_stm32_dma_streams, %object
 1317              		.size	_stm32_dma_streams, 192
 1318              	_stm32_dma_streams:
 1319 0000 10600240 		.word	1073897488
 1320 0004 08600240 		.word	1073897480
 1321 0008 00       		.byte	0
 1322 0009 00       		.byte	0
 1323 000a 0B       		.byte	11
 1324 000b 00       		.space	1
 1325 000c 28600240 		.word	1073897512
 1326 0010 08600240 		.word	1073897480
 1327 0014 06       		.byte	6
 1328 0015 01       		.byte	1
 1329 0016 0C       		.byte	12
 1330 0017 00       		.space	1
 1331 0018 40600240 		.word	1073897536
 1332 001c 08600240 		.word	1073897480
 1333 0020 10       		.byte	16
 1334 0021 02       		.byte	2
ARM GAS  /tmp/cchGjec2.s 			page 25


 1335 0022 0D       		.byte	13
 1336 0023 00       		.space	1
 1337 0024 58600240 		.word	1073897560
 1338 0028 08600240 		.word	1073897480
 1339 002c 16       		.byte	22
 1340 002d 03       		.byte	3
 1341 002e 0E       		.byte	14
 1342 002f 00       		.space	1
 1343 0030 70600240 		.word	1073897584
 1344 0034 0C600240 		.word	1073897484
 1345 0038 00       		.byte	0
 1346 0039 04       		.byte	4
 1347 003a 0F       		.byte	15
 1348 003b 00       		.space	1
 1349 003c 88600240 		.word	1073897608
 1350 0040 0C600240 		.word	1073897484
 1351 0044 06       		.byte	6
 1352 0045 05       		.byte	5
 1353 0046 10       		.byte	16
 1354 0047 00       		.space	1
 1355 0048 A0600240 		.word	1073897632
 1356 004c 0C600240 		.word	1073897484
 1357 0050 10       		.byte	16
 1358 0051 06       		.byte	6
 1359 0052 11       		.byte	17
 1360 0053 00       		.space	1
 1361 0054 B8600240 		.word	1073897656
 1362 0058 0C600240 		.word	1073897484
 1363 005c 16       		.byte	22
 1364 005d 07       		.byte	7
 1365 005e 2F       		.byte	47
 1366 005f 00       		.space	1
 1367 0060 10640240 		.word	1073898512
 1368 0064 08640240 		.word	1073898504
 1369 0068 00       		.byte	0
 1370 0069 08       		.byte	8
 1371 006a 38       		.byte	56
 1372 006b 00       		.space	1
 1373 006c 28640240 		.word	1073898536
 1374 0070 08640240 		.word	1073898504
 1375 0074 06       		.byte	6
 1376 0075 09       		.byte	9
 1377 0076 39       		.byte	57
 1378 0077 00       		.space	1
 1379 0078 40640240 		.word	1073898560
 1380 007c 08640240 		.word	1073898504
 1381 0080 10       		.byte	16
 1382 0081 0A       		.byte	10
 1383 0082 3A       		.byte	58
 1384 0083 00       		.space	1
 1385 0084 58640240 		.word	1073898584
 1386 0088 08640240 		.word	1073898504
 1387 008c 16       		.byte	22
 1388 008d 0B       		.byte	11
 1389 008e 3B       		.byte	59
 1390 008f 00       		.space	1
 1391 0090 70640240 		.word	1073898608
ARM GAS  /tmp/cchGjec2.s 			page 26


 1392 0094 0C640240 		.word	1073898508
 1393 0098 00       		.byte	0
 1394 0099 0C       		.byte	12
 1395 009a 3C       		.byte	60
 1396 009b 00       		.space	1
 1397 009c 88640240 		.word	1073898632
 1398 00a0 0C640240 		.word	1073898508
 1399 00a4 06       		.byte	6
 1400 00a5 0D       		.byte	13
 1401 00a6 44       		.byte	68
 1402 00a7 00       		.space	1
 1403 00a8 A0640240 		.word	1073898656
 1404 00ac 0C640240 		.word	1073898508
 1405 00b0 10       		.byte	16
 1406 00b1 0E       		.byte	14
 1407 00b2 45       		.byte	69
 1408 00b3 00       		.space	1
 1409 00b4 B8640240 		.word	1073898680
 1410 00b8 0C640240 		.word	1073898508
 1411 00bc 16       		.byte	22
 1412 00bd 0F       		.byte	15
 1413 00be 46       		.byte	70
 1414 00bf 00       		.space	1
 1415              		.section	.bss.dma_streams_mask,"aw",%nobits
 1416              		.align	2
 1417              		.set	.LANCHOR1,. + 0
 1418              		.type	dma_streams_mask, %object
 1419              		.size	dma_streams_mask, 4
 1420              	dma_streams_mask:
 1421 0000 00000000 		.space	4
 1422              		.text
 1423              	.Letext0:
 1424              		.file 2 "/home/david/toolchains/psas/x-tools/stm32f407/arm-psas-eabi/bin/../lib/gcc/arm-psas-eabi/
 1425              		.file 3 "../../ChibiOS/os/ports/GCC/ARMCMx/chtypes.h"
 1426              		.file 4 "../../ChibiOS/os/hal/platforms/STM32F4xx/stm32f4xx.h"
 1427              		.file 5 "../../ChibiOS/os/hal/platforms/STM32F4xx/stm32_dma.h"
 1428              		.file 6 "../../ChibiOS/os/ports/common/ARMCMx/CMSIS/include/core_cm4.h"
 1429              		.file 7 "../../ChibiOS/os/kernel/include/chdebug.h"
 1430              		.file 8 "../../ChibiOS/os/ports/GCC/ARMCMx/chcore_v7m.h"
 1431              		.file 9 "../../ChibiOS/os/ports/common/ARMCMx/nvic.h"