ARM GAS  /tmp/cchGjec2.s 			page 1


   1              		.syntax unified
   2              		.cpu cortex-m4
   3              		.eabi_attribute 27, 3
   4              		.eabi_attribute 28, 1
   5              		.fpu fpv4-sp-d16
   6              		.eabi_attribute 20, 1
   7              		.eabi_attribute 21, 1
   8              		.eabi_attribute 23, 3
   9              		.eabi_attribute 24, 1
  10              		.eabi_attribute 25, 1
  11              		.eabi_attribute 26, 1
  12              		.eabi_attribute 30, 2
  13              		.eabi_attribute 34, 1
  14              		.eabi_attribute 18, 4
  15              		.thumb
  16              		.file	"stm32_dma.c"
  17              		.text
  18              	.Ltext0:
  19              		.cfi_sections	.debug_frame
  20              		.section	.text.Vector6C,"ax",%progbits
  21              		.align	2
  22              		.p2align 4,,15
  23              		.global	Vector6C
  24              		.thumb
  25              		.thumb_func
  26              		.type	Vector6C, %function
  27              	Vector6C:
  28              	.LFB118:
  29              		.file 1 "../../ChibiOS/os/hal/platforms/STM32F4xx/stm32_dma.c"
  30              		.loc 1 132 0
  31              		.cfi_startproc
  32              		@ args = 0, pretend = 0, frame = 0
  33              		@ frame_needed = 0, uses_anonymous_args = 0
  34 0000 10B5     		push	{r4, lr}
  35              	.LCFI0:
  36              		.cfi_def_cfa_offset 8
  37              		.cfi_offset 4, -8
  38              		.cfi_offset 14, -4
  39              		.loc 1 135 0
  40 0002 FFF7FEFF 		bl	dbg_check_enter_isr
  41              	.LVL0:
  42              		.loc 1 137 0
  43 0006 4FF4C043 		mov	r3, #24576
  44 000a C4F20203 		movt	r3, 16386
  45              		.loc 1 139 0
  46 000e 0848     		ldr	r0, .L7
  47              		.loc 1 137 0
  48 0010 1968     		ldr	r1, [r3, #0]
  49              		.loc 1 139 0
  50 0012 0268     		ldr	r2, [r0, #0]
  51              		.loc 1 138 0
  52 0014 3D24     		movs	r4, #61
  53              		.loc 1 137 0
  54 0016 01F03D01 		and	r1, r1, #61
  55              	.LVL1:
  56              		.loc 1 138 0
  57 001a 9C60     		str	r4, [r3, #8]
ARM GAS  /tmp/cchGjec2.s 			page 2


  58              		.loc 1 139 0
  59 001c 0AB1     		cbz	r2, .L2
  60              		.loc 1 140 0
  61 001e 4068     		ldr	r0, [r0, #4]
  62 0020 9047     		blx	r2
  63              	.LVL2:
  64              	.L2:
  65              		.loc 1 142 0
  66 0022 FFF7FEFF 		bl	dbg_check_leave_isr
  67              	.LVL3:
  68              		.loc 1 143 0
  69 0026 BDE81040 		pop	{r4, lr}
  70              		.loc 1 142 0
  71 002a FFF7FEBF 		b	_port_irq_epilogue
  72              	.LVL4:
  73              	.L8:
  74 002e 00BF     		.align	2
  75              	.L7:
  76 0030 00000000 		.word	.LANCHOR0
  77              		.cfi_endproc
  78              	.LFE118:
  79              		.size	Vector6C, .-Vector6C
  80 0034 AFF30080 		.section	.text.Vector70,"ax",%progbits
  80      AFF30080 
  80      AFF30080 
  81              		.align	2
  82              		.p2align 4,,15
  83              		.global	Vector70
  84              		.thumb
  85              		.thumb_func
  86              		.type	Vector70, %function
  87              	Vector70:
  88              	.LFB119:
  89              		.loc 1 150 0
  90              		.cfi_startproc
  91              		@ args = 0, pretend = 0, frame = 0
  92              		@ frame_needed = 0, uses_anonymous_args = 0
  93 0000 10B5     		push	{r4, lr}
  94              	.LCFI1:
  95              		.cfi_def_cfa_offset 8
  96              		.cfi_offset 4, -8
  97              		.cfi_offset 14, -4
  98              		.loc 1 153 0
  99 0002 FFF7FEFF 		bl	dbg_check_enter_isr
 100              	.LVL5:
 101              		.loc 1 155 0
 102 0006 4FF4C043 		mov	r3, #24576
 103 000a C4F20203 		movt	r3, 16386
 104              		.loc 1 157 0
 105 000e 0948     		ldr	r0, .L14
 106              		.loc 1 155 0
 107 0010 1968     		ldr	r1, [r3, #0]
 108              		.loc 1 157 0
 109 0012 8268     		ldr	r2, [r0, #8]
 110              		.loc 1 155 0
 111 0014 8909     		lsrs	r1, r1, #6
 112              		.loc 1 156 0
ARM GAS  /tmp/cchGjec2.s 			page 3


 113 0016 4FF47464 		mov	r4, #3904
 114              		.loc 1 155 0
 115 001a 01F03D01 		and	r1, r1, #61
 116              	.LVL6:
 117              		.loc 1 156 0
 118 001e 9C60     		str	r4, [r3, #8]
 119              		.loc 1 157 0
 120 0020 0AB1     		cbz	r2, .L10
 121              		.loc 1 158 0
 122 0022 C068     		ldr	r0, [r0, #12]
 123 0024 9047     		blx	r2
 124              	.LVL7:
 125              	.L10:
 126              		.loc 1 160 0
 127 0026 FFF7FEFF 		bl	dbg_check_leave_isr
 128              	.LVL8:
 129              		.loc 1 161 0
 130 002a BDE81040 		pop	{r4, lr}
 131              		.loc 1 160 0
 132 002e FFF7FEBF 		b	_port_irq_epilogue
 133              	.LVL9:
 134              	.L15:
 135 0032 00BF     		.align	2
 136              	.L14:
 137 0034 00000000 		.word	.LANCHOR0
 138              		.cfi_endproc
 139              	.LFE119:
 140              		.size	Vector70, .-Vector70
 141 0038 AFF30080 		.section	.text.Vector74,"ax",%progbits
 141      AFF30080 
 142              		.align	2
 143              		.p2align 4,,15
 144              		.global	Vector74
 145              		.thumb
 146              		.thumb_func
 147              		.type	Vector74, %function
 148              	Vector74:
 149              	.LFB120:
 150              		.loc 1 168 0
 151              		.cfi_startproc
 152              		@ args = 0, pretend = 0, frame = 0
 153              		@ frame_needed = 0, uses_anonymous_args = 0
 154 0000 10B5     		push	{r4, lr}
 155              	.LCFI2:
 156              		.cfi_def_cfa_offset 8
 157              		.cfi_offset 4, -8
 158              		.cfi_offset 14, -4
 159              		.loc 1 171 0
 160 0002 FFF7FEFF 		bl	dbg_check_enter_isr
 161              	.LVL10:
 162              		.loc 1 173 0
 163 0006 4FF4C043 		mov	r3, #24576
 164 000a C4F20203 		movt	r3, 16386
 165              		.loc 1 175 0
 166 000e 0948     		ldr	r0, .L21
 167              		.loc 1 173 0
 168 0010 1968     		ldr	r1, [r3, #0]
ARM GAS  /tmp/cchGjec2.s 			page 4


 169              		.loc 1 175 0
 170 0012 0269     		ldr	r2, [r0, #16]
 171              		.loc 1 173 0
 172 0014 090C     		lsrs	r1, r1, #16
 173              		.loc 1 174 0
 174 0016 4FF47414 		mov	r4, #3997696
 175              		.loc 1 173 0
 176 001a 01F03D01 		and	r1, r1, #61
 177              	.LVL11:
 178              		.loc 1 174 0
 179 001e 9C60     		str	r4, [r3, #8]
 180              		.loc 1 175 0
 181 0020 0AB1     		cbz	r2, .L17
 182              		.loc 1 176 0
 183 0022 4069     		ldr	r0, [r0, #20]
 184 0024 9047     		blx	r2
 185              	.LVL12:
 186              	.L17:
 187              		.loc 1 178 0
 188 0026 FFF7FEFF 		bl	dbg_check_leave_isr
 189              	.LVL13:
 190              		.loc 1 179 0
 191 002a BDE81040 		pop	{r4, lr}
 192              		.loc 1 178 0
 193 002e FFF7FEBF 		b	_port_irq_epilogue
 194              	.LVL14:
 195              	.L22:
 196 0032 00BF     		.align	2
 197              	.L21:
 198 0034 00000000 		.word	.LANCHOR0
 199              		.cfi_endproc
 200              	.LFE120:
 201              		.size	Vector74, .-Vector74
 202 0038 AFF30080 		.section	.text.Vector78,"ax",%progbits
 202      AFF30080 
 203              		.align	2
 204              		.p2align 4,,15
 205              		.global	Vector78
 206              		.thumb
 207              		.thumb_func
 208              		.type	Vector78, %function
 209              	Vector78:
 210              	.LFB121:
 211              		.loc 1 186 0
 212              		.cfi_startproc
 213              		@ args = 0, pretend = 0, frame = 0
 214              		@ frame_needed = 0, uses_anonymous_args = 0
 215 0000 10B5     		push	{r4, lr}
 216              	.LCFI3:
 217              		.cfi_def_cfa_offset 8
 218              		.cfi_offset 4, -8
 219              		.cfi_offset 14, -4
 220              		.loc 1 189 0
 221 0002 FFF7FEFF 		bl	dbg_check_enter_isr
 222              	.LVL15:
 223              		.loc 1 191 0
 224 0006 4FF4C043 		mov	r3, #24576
ARM GAS  /tmp/cchGjec2.s 			page 5


 225 000a C4F20203 		movt	r3, 16386
 226              		.loc 1 193 0
 227 000e 0948     		ldr	r0, .L28
 228              		.loc 1 191 0
 229 0010 1968     		ldr	r1, [r3, #0]
 230              		.loc 1 193 0
 231 0012 8269     		ldr	r2, [r0, #24]
 232              		.loc 1 191 0
 233 0014 890D     		lsrs	r1, r1, #22
 234              		.loc 1 192 0
 235 0016 4FF07464 		mov	r4, #255852544
 236              		.loc 1 191 0
 237 001a 01F03D01 		and	r1, r1, #61
 238              	.LVL16:
 239              		.loc 1 192 0
 240 001e 9C60     		str	r4, [r3, #8]
 241              		.loc 1 193 0
 242 0020 0AB1     		cbz	r2, .L24
 243              		.loc 1 194 0
 244 0022 C069     		ldr	r0, [r0, #28]
 245 0024 9047     		blx	r2
 246              	.LVL17:
 247              	.L24:
 248              		.loc 1 196 0
 249 0026 FFF7FEFF 		bl	dbg_check_leave_isr
 250              	.LVL18:
 251              		.loc 1 197 0
 252 002a BDE81040 		pop	{r4, lr}
 253              		.loc 1 196 0
 254 002e FFF7FEBF 		b	_port_irq_epilogue
 255              	.LVL19:
 256              	.L29:
 257 0032 00BF     		.align	2
 258              	.L28:
 259 0034 00000000 		.word	.LANCHOR0
 260              		.cfi_endproc
 261              	.LFE121:
 262              		.size	Vector78, .-Vector78
 263 0038 AFF30080 		.section	.text.Vector7C,"ax",%progbits
 263      AFF30080 
 264              		.align	2
 265              		.p2align 4,,15
 266              		.global	Vector7C
 267              		.thumb
 268              		.thumb_func
 269              		.type	Vector7C, %function
 270              	Vector7C:
 271              	.LFB122:
 272              		.loc 1 204 0
 273              		.cfi_startproc
 274              		@ args = 0, pretend = 0, frame = 0
 275              		@ frame_needed = 0, uses_anonymous_args = 0
 276 0000 10B5     		push	{r4, lr}
 277              	.LCFI4:
 278              		.cfi_def_cfa_offset 8
 279              		.cfi_offset 4, -8
 280              		.cfi_offset 14, -4
ARM GAS  /tmp/cchGjec2.s 			page 6


 281              		.loc 1 207 0
 282 0002 FFF7FEFF 		bl	dbg_check_enter_isr
 283              	.LVL20:
 284              		.loc 1 209 0
 285 0006 4FF4C043 		mov	r3, #24576
 286 000a C4F20203 		movt	r3, 16386
 287              		.loc 1 211 0
 288 000e 0848     		ldr	r0, .L35
 289              		.loc 1 209 0
 290 0010 5968     		ldr	r1, [r3, #4]
 291              		.loc 1 211 0
 292 0012 026A     		ldr	r2, [r0, #32]
 293              		.loc 1 210 0
 294 0014 3D24     		movs	r4, #61
 295              		.loc 1 209 0
 296 0016 01F03D01 		and	r1, r1, #61
 297              	.LVL21:
 298              		.loc 1 210 0
 299 001a DC60     		str	r4, [r3, #12]
 300              		.loc 1 211 0
 301 001c 0AB1     		cbz	r2, .L31
 302              		.loc 1 212 0
 303 001e 406A     		ldr	r0, [r0, #36]
 304 0020 9047     		blx	r2
 305              	.LVL22:
 306              	.L31:
 307              		.loc 1 214 0
 308 0022 FFF7FEFF 		bl	dbg_check_leave_isr
 309              	.LVL23:
 310              		.loc 1 215 0
 311 0026 BDE81040 		pop	{r4, lr}
 312              		.loc 1 214 0
 313 002a FFF7FEBF 		b	_port_irq_epilogue
 314              	.LVL24:
 315              	.L36:
 316 002e 00BF     		.align	2
 317              	.L35:
 318 0030 00000000 		.word	.LANCHOR0
 319              		.cfi_endproc
 320              	.LFE122:
 321              		.size	Vector7C, .-Vector7C
 322 0034 AFF30080 		.section	.text.Vector80,"ax",%progbits
 322      AFF30080 
 322      AFF30080 
 323              		.align	2
 324              		.p2align 4,,15
 325              		.global	Vector80
 326              		.thumb
 327              		.thumb_func
 328              		.type	Vector80, %function
 329              	Vector80:
 330              	.LFB123:
 331              		.loc 1 222 0
 332              		.cfi_startproc
 333              		@ args = 0, pretend = 0, frame = 0
 334              		@ frame_needed = 0, uses_anonymous_args = 0
 335 0000 10B5     		push	{r4, lr}
ARM GAS  /tmp/cchGjec2.s 			page 7


 336              	.LCFI5:
 337              		.cfi_def_cfa_offset 8
 338              		.cfi_offset 4, -8
 339              		.cfi_offset 14, -4
 340              		.loc 1 225 0
 341 0002 FFF7FEFF 		bl	dbg_check_enter_isr
 342              	.LVL25:
 343              		.loc 1 227 0
 344 0006 4FF4C043 		mov	r3, #24576
 345 000a C4F20203 		movt	r3, 16386
 346              		.loc 1 229 0
 347 000e 0948     		ldr	r0, .L42
 348              		.loc 1 227 0
 349 0010 5968     		ldr	r1, [r3, #4]
 350              		.loc 1 229 0
 351 0012 826A     		ldr	r2, [r0, #40]
 352              		.loc 1 227 0
 353 0014 8909     		lsrs	r1, r1, #6
 354              		.loc 1 228 0
 355 0016 4FF47464 		mov	r4, #3904
 356              		.loc 1 227 0
 357 001a 01F03D01 		and	r1, r1, #61
 358              	.LVL26:
 359              		.loc 1 228 0
 360 001e DC60     		str	r4, [r3, #12]
 361              		.loc 1 229 0
 362 0020 0AB1     		cbz	r2, .L38
 363              		.loc 1 230 0
 364 0022 C06A     		ldr	r0, [r0, #44]
 365 0024 9047     		blx	r2
 366              	.LVL27:
 367              	.L38:
 368              		.loc 1 232 0
 369 0026 FFF7FEFF 		bl	dbg_check_leave_isr
 370              	.LVL28:
 371              		.loc 1 233 0
 372 002a BDE81040 		pop	{r4, lr}
 373              		.loc 1 232 0
 374 002e FFF7FEBF 		b	_port_irq_epilogue
 375              	.LVL29:
 376              	.L43:
 377 0032 00BF     		.align	2
 378              	.L42:
 379 0034 00000000 		.word	.LANCHOR0
 380              		.cfi_endproc
 381              	.LFE123:
 382              		.size	Vector80, .-Vector80
 383 0038 AFF30080 		.section	.text.Vector84,"ax",%progbits
 383      AFF30080 
 384              		.align	2
 385              		.p2align 4,,15
 386              		.global	Vector84
 387              		.thumb
 388              		.thumb_func
 389              		.type	Vector84, %function
 390              	Vector84:
 391              	.LFB124:
ARM GAS  /tmp/cchGjec2.s 			page 8


 392              		.loc 1 240 0
 393              		.cfi_startproc
 394              		@ args = 0, pretend = 0, frame = 0
 395              		@ frame_needed = 0, uses_anonymous_args = 0
 396 0000 10B5     		push	{r4, lr}
 397              	.LCFI6:
 398              		.cfi_def_cfa_offset 8
 399              		.cfi_offset 4, -8
 400              		.cfi_offset 14, -4
 401              		.loc 1 243 0
 402 0002 FFF7FEFF 		bl	dbg_check_enter_isr
 403              	.LVL30:
 404              		.loc 1 245 0
 405 0006 4FF4C043 		mov	r3, #24576
 406 000a C4F20203 		movt	r3, 16386
 407              		.loc 1 247 0
 408 000e 0948     		ldr	r0, .L49
 409              		.loc 1 245 0
 410 0010 5968     		ldr	r1, [r3, #4]
 411              		.loc 1 247 0
 412 0012 026B     		ldr	r2, [r0, #48]
 413              		.loc 1 245 0
 414 0014 090C     		lsrs	r1, r1, #16
 415              		.loc 1 246 0
 416 0016 4FF47414 		mov	r4, #3997696
 417              		.loc 1 245 0
 418 001a 01F03D01 		and	r1, r1, #61
 419              	.LVL31:
 420              		.loc 1 246 0
 421 001e DC60     		str	r4, [r3, #12]
 422              		.loc 1 247 0
 423 0020 0AB1     		cbz	r2, .L45
 424              		.loc 1 248 0
 425 0022 406B     		ldr	r0, [r0, #52]
 426 0024 9047     		blx	r2
 427              	.LVL32:
 428              	.L45:
 429              		.loc 1 250 0
 430 0026 FFF7FEFF 		bl	dbg_check_leave_isr
 431              	.LVL33:
 432              		.loc 1 251 0
 433 002a BDE81040 		pop	{r4, lr}
 434              		.loc 1 250 0
 435 002e FFF7FEBF 		b	_port_irq_epilogue
 436              	.LVL34:
 437              	.L50:
 438 0032 00BF     		.align	2
 439              	.L49:
 440 0034 00000000 		.word	.LANCHOR0
 441              		.cfi_endproc
 442              	.LFE124:
 443              		.size	Vector84, .-Vector84
 444 0038 AFF30080 		.section	.text.VectorFC,"ax",%progbits
 444      AFF30080 
 445              		.align	2
 446              		.p2align 4,,15
 447              		.global	VectorFC
ARM GAS  /tmp/cchGjec2.s 			page 9


 448              		.thumb
 449              		.thumb_func
 450              		.type	VectorFC, %function
 451              	VectorFC:
 452              	.LFB125:
 453              		.loc 1 258 0
 454              		.cfi_startproc
 455              		@ args = 0, pretend = 0, frame = 0
 456              		@ frame_needed = 0, uses_anonymous_args = 0
 457 0000 10B5     		push	{r4, lr}
 458              	.LCFI7:
 459              		.cfi_def_cfa_offset 8
 460              		.cfi_offset 4, -8
 461              		.cfi_offset 14, -4
 462              		.loc 1 261 0
 463 0002 FFF7FEFF 		bl	dbg_check_enter_isr
 464              	.LVL35:
 465              		.loc 1 263 0
 466 0006 4FF4C043 		mov	r3, #24576
 467 000a C4F20203 		movt	r3, 16386
 468              		.loc 1 265 0
 469 000e 0948     		ldr	r0, .L56
 470              		.loc 1 263 0
 471 0010 5968     		ldr	r1, [r3, #4]
 472              		.loc 1 265 0
 473 0012 826B     		ldr	r2, [r0, #56]
 474              		.loc 1 263 0
 475 0014 890D     		lsrs	r1, r1, #22
 476              		.loc 1 264 0
 477 0016 4FF07464 		mov	r4, #255852544
 478              		.loc 1 263 0
 479 001a 01F03D01 		and	r1, r1, #61
 480              	.LVL36:
 481              		.loc 1 264 0
 482 001e DC60     		str	r4, [r3, #12]
 483              		.loc 1 265 0
 484 0020 0AB1     		cbz	r2, .L52
 485              		.loc 1 266 0
 486 0022 C06B     		ldr	r0, [r0, #60]
 487 0024 9047     		blx	r2
 488              	.LVL37:
 489              	.L52:
 490              		.loc 1 268 0
 491 0026 FFF7FEFF 		bl	dbg_check_leave_isr
 492              	.LVL38:
 493              		.loc 1 269 0
 494 002a BDE81040 		pop	{r4, lr}
 495              		.loc 1 268 0
 496 002e FFF7FEBF 		b	_port_irq_epilogue
 497              	.LVL39:
 498              	.L57:
 499 0032 00BF     		.align	2
 500              	.L56:
 501 0034 00000000 		.word	.LANCHOR0
 502              		.cfi_endproc
 503              	.LFE125:
 504              		.size	VectorFC, .-VectorFC
ARM GAS  /tmp/cchGjec2.s 			page 10


 505 0038 AFF30080 		.section	.text.Vector120,"ax",%progbits
 505      AFF30080 
 506              		.align	2
 507              		.p2align 4,,15
 508              		.global	Vector120
 509              		.thumb
 510              		.thumb_func
 511              		.type	Vector120, %function
 512              	Vector120:
 513              	.LFB126:
 514              		.loc 1 276 0
 515              		.cfi_startproc
 516              		@ args = 0, pretend = 0, frame = 0
 517              		@ frame_needed = 0, uses_anonymous_args = 0
 518 0000 10B5     		push	{r4, lr}
 519              	.LCFI8:
 520              		.cfi_def_cfa_offset 8
 521              		.cfi_offset 4, -8
 522              		.cfi_offset 14, -4
 523              		.loc 1 279 0
 524 0002 FFF7FEFF 		bl	dbg_check_enter_isr
 525              	.LVL40:
 526              		.loc 1 281 0
 527 0006 4FF4C843 		mov	r3, #25600
 528 000a C4F20203 		movt	r3, 16386
 529              		.loc 1 283 0
 530 000e 0848     		ldr	r0, .L63
 531              		.loc 1 281 0
 532 0010 1968     		ldr	r1, [r3, #0]
 533              		.loc 1 283 0
 534 0012 026C     		ldr	r2, [r0, #64]
 535              		.loc 1 282 0
 536 0014 3D24     		movs	r4, #61
 537              		.loc 1 281 0
 538 0016 01F03D01 		and	r1, r1, #61
 539              	.LVL41:
 540              		.loc 1 282 0
 541 001a 9C60     		str	r4, [r3, #8]
 542              		.loc 1 283 0
 543 001c 0AB1     		cbz	r2, .L59
 544              		.loc 1 284 0
 545 001e 406C     		ldr	r0, [r0, #68]
 546 0020 9047     		blx	r2
 547              	.LVL42:
 548              	.L59:
 549              		.loc 1 286 0
 550 0022 FFF7FEFF 		bl	dbg_check_leave_isr
 551              	.LVL43:
 552              		.loc 1 287 0
 553 0026 BDE81040 		pop	{r4, lr}
 554              		.loc 1 286 0
 555 002a FFF7FEBF 		b	_port_irq_epilogue
 556              	.LVL44:
 557              	.L64:
 558 002e 00BF     		.align	2
 559              	.L63:
 560 0030 00000000 		.word	.LANCHOR0
ARM GAS  /tmp/cchGjec2.s 			page 11


 561              		.cfi_endproc
 562              	.LFE126:
 563              		.size	Vector120, .-Vector120
 564 0034 AFF30080 		.section	.text.Vector124,"ax",%progbits
 564      AFF30080 
 564      AFF30080 
 565              		.align	2
 566              		.p2align 4,,15
 567              		.global	Vector124
 568              		.thumb
 569              		.thumb_func
 570              		.type	Vector124, %function
 571              	Vector124:
 572              	.LFB127:
 573              		.loc 1 294 0
 574              		.cfi_startproc
 575              		@ args = 0, pretend = 0, frame = 0
 576              		@ frame_needed = 0, uses_anonymous_args = 0
 577 0000 10B5     		push	{r4, lr}
 578              	.LCFI9:
 579              		.cfi_def_cfa_offset 8
 580              		.cfi_offset 4, -8
 581              		.cfi_offset 14, -4
 582              		.loc 1 297 0
 583 0002 FFF7FEFF 		bl	dbg_check_enter_isr
 584              	.LVL45:
 585              		.loc 1 299 0
 586 0006 4FF4C843 		mov	r3, #25600
 587 000a C4F20203 		movt	r3, 16386
 588              		.loc 1 301 0
 589 000e 0948     		ldr	r0, .L70
 590              		.loc 1 299 0
 591 0010 1968     		ldr	r1, [r3, #0]
 592              		.loc 1 301 0
 593 0012 826C     		ldr	r2, [r0, #72]
 594              		.loc 1 299 0
 595 0014 8909     		lsrs	r1, r1, #6
 596              		.loc 1 300 0
 597 0016 4FF47464 		mov	r4, #3904
 598              		.loc 1 299 0
 599 001a 01F03D01 		and	r1, r1, #61
 600              	.LVL46:
 601              		.loc 1 300 0
 602 001e 9C60     		str	r4, [r3, #8]
 603              		.loc 1 301 0
 604 0020 0AB1     		cbz	r2, .L66
 605              		.loc 1 302 0
 606 0022 C06C     		ldr	r0, [r0, #76]
 607 0024 9047     		blx	r2
 608              	.LVL47:
 609              	.L66:
 610              		.loc 1 304 0
 611 0026 FFF7FEFF 		bl	dbg_check_leave_isr
 612              	.LVL48:
 613              		.loc 1 305 0
 614 002a BDE81040 		pop	{r4, lr}
 615              		.loc 1 304 0
ARM GAS  /tmp/cchGjec2.s 			page 12


 616 002e FFF7FEBF 		b	_port_irq_epilogue
 617              	.LVL49:
 618              	.L71:
 619 0032 00BF     		.align	2
 620              	.L70:
 621 0034 00000000 		.word	.LANCHOR0
 622              		.cfi_endproc
 623              	.LFE127:
 624              		.size	Vector124, .-Vector124
 625 0038 AFF30080 		.section	.text.Vector128,"ax",%progbits
 625      AFF30080 
 626              		.align	2
 627              		.p2align 4,,15
 628              		.global	Vector128
 629              		.thumb
 630              		.thumb_func
 631              		.type	Vector128, %function
 632              	Vector128:
 633              	.LFB128:
 634              		.loc 1 312 0
 635              		.cfi_startproc
 636              		@ args = 0, pretend = 0, frame = 0
 637              		@ frame_needed = 0, uses_anonymous_args = 0
 638 0000 10B5     		push	{r4, lr}
 639              	.LCFI10:
 640              		.cfi_def_cfa_offset 8
 641              		.cfi_offset 4, -8
 642              		.cfi_offset 14, -4
 643              		.loc 1 315 0
 644 0002 FFF7FEFF 		bl	dbg_check_enter_isr
 645              	.LVL50:
 646              		.loc 1 317 0
 647 0006 4FF4C843 		mov	r3, #25600
 648 000a C4F20203 		movt	r3, 16386
 649              		.loc 1 319 0
 650 000e 0948     		ldr	r0, .L77
 651              		.loc 1 317 0
 652 0010 1968     		ldr	r1, [r3, #0]
 653              		.loc 1 319 0
 654 0012 026D     		ldr	r2, [r0, #80]
 655              		.loc 1 317 0
 656 0014 090C     		lsrs	r1, r1, #16
 657              		.loc 1 318 0
 658 0016 4FF47414 		mov	r4, #3997696
 659              		.loc 1 317 0
 660 001a 01F03D01 		and	r1, r1, #61
 661              	.LVL51:
 662              		.loc 1 318 0
 663 001e 9C60     		str	r4, [r3, #8]
 664              		.loc 1 319 0
 665 0020 0AB1     		cbz	r2, .L73
 666              		.loc 1 320 0
 667 0022 406D     		ldr	r0, [r0, #84]
 668 0024 9047     		blx	r2
 669              	.LVL52:
 670              	.L73:
 671              		.loc 1 322 0
ARM GAS  /tmp/cchGjec2.s 			page 13


 672 0026 FFF7FEFF 		bl	dbg_check_leave_isr
 673              	.LVL53:
 674              		.loc 1 323 0
 675 002a BDE81040 		pop	{r4, lr}
 676              		.loc 1 322 0
 677 002e FFF7FEBF 		b	_port_irq_epilogue
 678              	.LVL54:
 679              	.L78:
 680 0032 00BF     		.align	2
 681              	.L77:
 682 0034 00000000 		.word	.LANCHOR0
 683              		.cfi_endproc
 684              	.LFE128:
 685              		.size	Vector128, .-Vector128
 686 0038 AFF30080 		.section	.text.Vector12C,"ax",%progbits
 686      AFF30080 
 687              		.align	2
 688              		.p2align 4,,15
 689              		.global	Vector12C
 690              		.thumb
 691              		.thumb_func
 692              		.type	Vector12C, %function
 693              	Vector12C:
 694              	.LFB129:
 695              		.loc 1 330 0
 696              		.cfi_startproc
 697              		@ args = 0, pretend = 0, frame = 0
 698              		@ frame_needed = 0, uses_anonymous_args = 0
 699 0000 10B5     		push	{r4, lr}
 700              	.LCFI11:
 701              		.cfi_def_cfa_offset 8
 702              		.cfi_offset 4, -8
 703              		.cfi_offset 14, -4
 704              		.loc 1 333 0
 705 0002 FFF7FEFF 		bl	dbg_check_enter_isr
 706              	.LVL55:
 707              		.loc 1 335 0
 708 0006 4FF4C843 		mov	r3, #25600
 709 000a C4F20203 		movt	r3, 16386
 710              		.loc 1 337 0
 711 000e 0948     		ldr	r0, .L84
 712              		.loc 1 335 0
 713 0010 1968     		ldr	r1, [r3, #0]
 714              		.loc 1 337 0
 715 0012 826D     		ldr	r2, [r0, #88]
 716              		.loc 1 335 0
 717 0014 890D     		lsrs	r1, r1, #22
 718              		.loc 1 336 0
 719 0016 4FF07464 		mov	r4, #255852544
 720              		.loc 1 335 0
 721 001a 01F03D01 		and	r1, r1, #61
 722              	.LVL56:
 723              		.loc 1 336 0
 724 001e 9C60     		str	r4, [r3, #8]
 725              		.loc 1 337 0
 726 0020 0AB1     		cbz	r2, .L80
 727              		.loc 1 338 0
ARM GAS  /tmp/cchGjec2.s 			page 14


 728 0022 C06D     		ldr	r0, [r0, #92]
 729 0024 9047     		blx	r2
 730              	.LVL57:
 731              	.L80:
 732              		.loc 1 340 0
 733 0026 FFF7FEFF 		bl	dbg_check_leave_isr
 734              	.LVL58:
 735              		.loc 1 341 0
 736 002a BDE81040 		pop	{r4, lr}
 737              		.loc 1 340 0
 738 002e FFF7FEBF 		b	_port_irq_epilogue
 739              	.LVL59:
 740              	.L85:
 741 0032 00BF     		.align	2
 742              	.L84:
 743 0034 00000000 		.word	.LANCHOR0
 744              		.cfi_endproc
 745              	.LFE129:
 746              		.size	Vector12C, .-Vector12C
 747 0038 AFF30080 		.section	.text.Vector130,"ax",%progbits
 747      AFF30080 
 748              		.align	2
 749              		.p2align 4,,15
 750              		.global	Vector130
 751              		.thumb
 752              		.thumb_func
 753              		.type	Vector130, %function
 754              	Vector130:
 755              	.LFB130:
 756              		.loc 1 348 0
 757              		.cfi_startproc
 758              		@ args = 0, pretend = 0, frame = 0
 759              		@ frame_needed = 0, uses_anonymous_args = 0
 760 0000 10B5     		push	{r4, lr}
 761              	.LCFI12:
 762              		.cfi_def_cfa_offset 8
 763              		.cfi_offset 4, -8
 764              		.cfi_offset 14, -4
 765              		.loc 1 351 0
 766 0002 FFF7FEFF 		bl	dbg_check_enter_isr
 767              	.LVL60:
 768              		.loc 1 353 0
 769 0006 4FF4C843 		mov	r3, #25600
 770 000a C4F20203 		movt	r3, 16386
 771              		.loc 1 355 0
 772 000e 0848     		ldr	r0, .L91
 773              		.loc 1 353 0
 774 0010 5968     		ldr	r1, [r3, #4]
 775              		.loc 1 355 0
 776 0012 026E     		ldr	r2, [r0, #96]
 777              		.loc 1 354 0
 778 0014 3D24     		movs	r4, #61
 779              		.loc 1 353 0
 780 0016 01F03D01 		and	r1, r1, #61
 781              	.LVL61:
 782              		.loc 1 354 0
 783 001a DC60     		str	r4, [r3, #12]
ARM GAS  /tmp/cchGjec2.s 			page 15


 784              		.loc 1 355 0
 785 001c 0AB1     		cbz	r2, .L87
 786              		.loc 1 356 0
 787 001e 406E     		ldr	r0, [r0, #100]
 788 0020 9047     		blx	r2
 789              	.LVL62:
 790              	.L87:
 791              		.loc 1 358 0
 792 0022 FFF7FEFF 		bl	dbg_check_leave_isr
 793              	.LVL63:
 794              		.loc 1 359 0
 795 0026 BDE81040 		pop	{r4, lr}
 796              		.loc 1 358 0
 797 002a FFF7FEBF 		b	_port_irq_epilogue
 798              	.LVL64:
 799              	.L92:
 800 002e 00BF     		.align	2
 801              	.L91:
 802 0030 00000000 		.word	.LANCHOR0
 803              		.cfi_endproc
 804              	.LFE130:
 805              		.size	Vector130, .-Vector130
 806 0034 AFF30080 		.section	.text.Vector150,"ax",%progbits
 806      AFF30080 
 806      AFF30080 
 807              		.align	2
 808              		.p2align 4,,15
 809              		.global	Vector150
 810              		.thumb
 811              		.thumb_func
 812              		.type	Vector150, %function
 813              	Vector150:
 814              	.LFB131:
 815              		.loc 1 366 0
 816              		.cfi_startproc
 817              		@ args = 0, pretend = 0, frame = 0
 818              		@ frame_needed = 0, uses_anonymous_args = 0
 819 0000 10B5     		push	{r4, lr}
 820              	.LCFI13:
 821              		.cfi_def_cfa_offset 8
 822              		.cfi_offset 4, -8
 823              		.cfi_offset 14, -4
 824              		.loc 1 369 0
 825 0002 FFF7FEFF 		bl	dbg_check_enter_isr
 826              	.LVL65:
 827              		.loc 1 371 0
 828 0006 4FF4C843 		mov	r3, #25600
 829 000a C4F20203 		movt	r3, 16386
 830              		.loc 1 373 0
 831 000e 0948     		ldr	r0, .L98
 832              		.loc 1 371 0
 833 0010 5968     		ldr	r1, [r3, #4]
 834              		.loc 1 373 0
 835 0012 826E     		ldr	r2, [r0, #104]
 836              		.loc 1 371 0
 837 0014 8909     		lsrs	r1, r1, #6
 838              		.loc 1 372 0
ARM GAS  /tmp/cchGjec2.s 			page 16


 839 0016 4FF47464 		mov	r4, #3904
 840              		.loc 1 371 0
 841 001a 01F03D01 		and	r1, r1, #61
 842              	.LVL66:
 843              		.loc 1 372 0
 844 001e DC60     		str	r4, [r3, #12]
 845              		.loc 1 373 0
 846 0020 0AB1     		cbz	r2, .L94
 847              		.loc 1 374 0
 848 0022 C06E     		ldr	r0, [r0, #108]
 849 0024 9047     		blx	r2
 850              	.LVL67:
 851              	.L94:
 852              		.loc 1 376 0
 853 0026 FFF7FEFF 		bl	dbg_check_leave_isr
 854              	.LVL68:
 855              		.loc 1 377 0
 856 002a BDE81040 		pop	{r4, lr}
 857              		.loc 1 376 0
 858 002e FFF7FEBF 		b	_port_irq_epilogue
 859              	.LVL69:
 860              	.L99:
 861 0032 00BF     		.align	2
 862              	.L98:
 863 0034 00000000 		.word	.LANCHOR0
 864              		.cfi_endproc
 865              	.LFE131:
 866              		.size	Vector150, .-Vector150
 867 0038 AFF30080 		.section	.text.Vector154,"ax",%progbits
 867      AFF30080 
 868              		.align	2
 869              		.p2align 4,,15
 870              		.global	Vector154
 871              		.thumb
 872              		.thumb_func
 873              		.type	Vector154, %function
 874              	Vector154:
 875              	.LFB132:
 876              		.loc 1 384 0
 877              		.cfi_startproc
 878              		@ args = 0, pretend = 0, frame = 0
 879              		@ frame_needed = 0, uses_anonymous_args = 0
 880 0000 10B5     		push	{r4, lr}
 881              	.LCFI14:
 882              		.cfi_def_cfa_offset 8
 883              		.cfi_offset 4, -8
 884              		.cfi_offset 14, -4
 885              		.loc 1 387 0
 886 0002 FFF7FEFF 		bl	dbg_check_enter_isr
 887              	.LVL70:
 888              		.loc 1 389 0
 889 0006 4FF4C843 		mov	r3, #25600
 890 000a C4F20203 		movt	r3, 16386
 891              		.loc 1 391 0
 892 000e 0948     		ldr	r0, .L105
 893              		.loc 1 389 0
 894 0010 5968     		ldr	r1, [r3, #4]
ARM GAS  /tmp/cchGjec2.s 			page 17


 895              		.loc 1 391 0
 896 0012 026F     		ldr	r2, [r0, #112]
 897              		.loc 1 389 0
 898 0014 090C     		lsrs	r1, r1, #16
 899              		.loc 1 390 0
 900 0016 4FF47414 		mov	r4, #3997696
 901              		.loc 1 389 0
 902 001a 01F03D01 		and	r1, r1, #61
 903              	.LVL71:
 904              		.loc 1 390 0
 905 001e DC60     		str	r4, [r3, #12]
 906              		.loc 1 391 0
 907 0020 0AB1     		cbz	r2, .L101
 908              		.loc 1 392 0
 909 0022 406F     		ldr	r0, [r0, #116]
 910 0024 9047     		blx	r2
 911              	.LVL72:
 912              	.L101:
 913              		.loc 1 394 0
 914 0026 FFF7FEFF 		bl	dbg_check_leave_isr
 915              	.LVL73:
 916              		.loc 1 395 0
 917 002a BDE81040 		pop	{r4, lr}
 918              		.loc 1 394 0
 919 002e FFF7FEBF 		b	_port_irq_epilogue
 920              	.LVL74:
 921              	.L106:
 922 0032 00BF     		.align	2
 923              	.L105:
 924 0034 00000000 		.word	.LANCHOR0
 925              		.cfi_endproc
 926              	.LFE132:
 927              		.size	Vector154, .-Vector154
 928 0038 AFF30080 		.section	.text.Vector158,"ax",%progbits
 928      AFF30080 
 929              		.align	2
 930              		.p2align 4,,15
 931              		.global	Vector158
 932              		.thumb
 933              		.thumb_func
 934              		.type	Vector158, %function
 935              	Vector158:
 936              	.LFB133:
 937              		.loc 1 402 0
 938              		.cfi_startproc
 939              		@ args = 0, pretend = 0, frame = 0
 940              		@ frame_needed = 0, uses_anonymous_args = 0
 941 0000 10B5     		push	{r4, lr}
 942              	.LCFI15:
 943              		.cfi_def_cfa_offset 8
 944              		.cfi_offset 4, -8
 945              		.cfi_offset 14, -4
 946              		.loc 1 405 0
 947 0002 FFF7FEFF 		bl	dbg_check_enter_isr
 948              	.LVL75:
 949              		.loc 1 407 0
 950 0006 4FF4C843 		mov	r3, #25600
ARM GAS  /tmp/cchGjec2.s 			page 18


 951 000a C4F20203 		movt	r3, 16386
 952              		.loc 1 409 0
 953 000e 0948     		ldr	r0, .L112
 954              		.loc 1 407 0
 955 0010 5968     		ldr	r1, [r3, #4]
 956              		.loc 1 409 0
 957 0012 826F     		ldr	r2, [r0, #120]
 958              		.loc 1 407 0
 959 0014 890D     		lsrs	r1, r1, #22
 960              		.loc 1 408 0
 961 0016 4FF07464 		mov	r4, #255852544
 962              		.loc 1 407 0
 963 001a 01F03D01 		and	r1, r1, #61
 964              	.LVL76:
 965              		.loc 1 408 0
 966 001e DC60     		str	r4, [r3, #12]
 967              		.loc 1 409 0
 968 0020 0AB1     		cbz	r2, .L108
 969              		.loc 1 410 0
 970 0022 C06F     		ldr	r0, [r0, #124]
 971 0024 9047     		blx	r2
 972              	.LVL77:
 973              	.L108:
 974              		.loc 1 412 0
 975 0026 FFF7FEFF 		bl	dbg_check_leave_isr
 976              	.LVL78:
 977              		.loc 1 413 0
 978 002a BDE81040 		pop	{r4, lr}
 979              		.loc 1 412 0
 980 002e FFF7FEBF 		b	_port_irq_epilogue
 981              	.LVL79:
 982              	.L113:
 983 0032 00BF     		.align	2
 984              	.L112:
 985 0034 00000000 		.word	.LANCHOR0
 986              		.cfi_endproc
 987              	.LFE133:
 988              		.size	Vector158, .-Vector158
 989 0038 AFF30080 		.section	.text.dmaInit,"ax",%progbits
 989      AFF30080 
 990              		.align	2
 991              		.p2align 4,,15
 992              		.global	dmaInit
 993              		.thumb
 994              		.thumb_func
 995              		.type	dmaInit, %function
 996              	dmaInit:
 997              	.LFB134:
 998              		.loc 1 424 0
 999              		.cfi_startproc
 1000              		@ args = 0, pretend = 0, frame = 0
 1001              		@ frame_needed = 0, uses_anonymous_args = 0
 1002              		@ link register save eliminated.
 1003              		.loc 1 427 0
 1004 0000 0F4B     		ldr	r3, .L117
 1005              		.loc 1 424 0
 1006 0002 30B4     		push	{r4, r5}
ARM GAS  /tmp/cchGjec2.s 			page 19


 1007              	.LCFI16:
 1008              		.cfi_def_cfa_offset 8
 1009              		.cfi_offset 4, -8
 1010              		.cfi_offset 5, -4
 1011              		.loc 1 427 0
 1012 0004 0022     		movs	r2, #0
 1013 0006 0F4D     		ldr	r5, .L117+4
 1014 0008 0F4C     		ldr	r4, .L117+8
 1015 000a 1A60     		str	r2, [r3, #0]
 1016              	.LVL80:
 1017              		.loc 1 429 0
 1018 000c 1146     		mov	r1, r2
 1019              		.loc 1 427 0
 1020 000e 1346     		mov	r3, r2
 1021              	.LVL81:
 1022              	.L115:
 1023              		.loc 1 429 0 discriminator 2
 1024 0010 E858     		ldr	r0, [r5, r3]
 1025 0012 0C33     		adds	r3, r3, #12
 1026 0014 0160     		str	r1, [r0, #0]
 1027              		.loc 1 430 0 discriminator 2
 1028 0016 A150     		str	r1, [r4, r2]
 1029 0018 0832     		adds	r2, r2, #8
 1030              		.loc 1 428 0 discriminator 2
 1031 001a C02B     		cmp	r3, #192
 1032 001c F8D1     		bne	.L115
 1033              		.loc 1 432 0
 1034 001e 4FF4C041 		mov	r1, #24576
 1035              		.loc 1 434 0
 1036 0022 4FF4C842 		mov	r2, #25600
 1037              		.loc 1 432 0
 1038 0026 C4F20201 		movt	r1, 16386
 1039              		.loc 1 434 0
 1040 002a C4F20202 		movt	r2, 16386
 1041              		.loc 1 432 0
 1042 002e 4FF0FF33 		mov	r3, #-1
 1043 0032 8B60     		str	r3, [r1, #8]
 1044              		.loc 1 433 0
 1045 0034 CB60     		str	r3, [r1, #12]
 1046              		.loc 1 434 0
 1047 0036 9360     		str	r3, [r2, #8]
 1048              		.loc 1 435 0
 1049 0038 D360     		str	r3, [r2, #12]
 1050              		.loc 1 436 0
 1051 003a 30BC     		pop	{r4, r5}
 1052 003c 7047     		bx	lr
 1053              	.L118:
 1054 003e 00BF     		.align	2
 1055              	.L117:
 1056 0040 00000000 		.word	.LANCHOR1
 1057 0044 00000000 		.word	.LANCHOR2
 1058 0048 00000000 		.word	.LANCHOR0
 1059              		.cfi_endproc
 1060              	.LFE134:
 1061              		.size	dmaInit, .-dmaInit
 1062 004c AFF30080 		.section	.text.dmaStreamAllocate,"ax",%progbits
 1063              		.align	2
ARM GAS  /tmp/cchGjec2.s 			page 20


 1064              		.p2align 4,,15
 1065              		.global	dmaStreamAllocate
 1066              		.thumb
 1067              		.thumb_func
 1068              		.type	dmaStreamAllocate, %function
 1069              	dmaStreamAllocate:
 1070              	.LFB135:
 1071              		.loc 1 465 0
 1072              		.cfi_startproc
 1073              		@ args = 0, pretend = 0, frame = 16
 1074              		@ frame_needed = 0, uses_anonymous_args = 0
 1075              	.LVL82:
 1076 0000 2DE9F041 		push	{r4, r5, r6, r7, r8, lr}
 1077              	.LCFI17:
 1078              		.cfi_def_cfa_offset 24
 1079              		.cfi_offset 4, -24
 1080              		.cfi_offset 5, -20
 1081              		.cfi_offset 6, -16
 1082              		.cfi_offset 7, -12
 1083              		.cfi_offset 8, -8
 1084              		.cfi_offset 14, -4
 1085              		.loc 1 467 0
 1086 0004 0646     		mov	r6, r0
 1087              		.loc 1 465 0
 1088 0006 84B0     		sub	sp, sp, #16
 1089              	.LCFI18:
 1090              		.cfi_def_cfa_offset 40
 1091              		.loc 1 467 0
 1092 0008 0028     		cmp	r0, #0
 1093 000a 48D0     		beq	.L134
 1094              	.LVL83:
 1095              	.L120:
 1096              		.loc 1 470 0
 1097 000c 294F     		ldr	r7, .L135
 1098 000e 747A     		ldrb	r4, [r6, #9]	@ zero_extendqisi2
 1099 0010 3868     		ldr	r0, [r7, #0]
 1100 0012 0125     		movs	r5, #1
 1101 0014 05FA04FC 		lsl	ip, r5, r4
 1102 0018 1CEA000F 		tst	ip, r0
 1103              		.loc 1 471 0
 1104 001c 18BF     		it	ne
 1105 001e 2846     		movne	r0, r5
 1106              		.loc 1 470 0
 1107 0020 3AD1     		bne	.L121
 1108              		.loc 1 474 0
 1109 0022 254D     		ldr	r5, .L135+4
 1110              		.loc 1 476 0
 1111 0024 4CEA0000 		orr	r0, ip, r0
 1112              		.loc 1 475 0
 1113 0028 05EBC408 		add	r8, r5, r4, lsl #3
 1114              		.loc 1 479 0
 1115 002c 10F0FF0F 		tst	r0, #255
 1116              		.loc 1 475 0
 1117 0030 C8F80430 		str	r3, [r8, #4]
 1118              		.loc 1 480 0
 1119 0034 1CBF     		itt	ne
 1120 0036 4FF46053 		movne	r3, #14336
ARM GAS  /tmp/cchGjec2.s 			page 21


 1121 003a C4F20203 		movtne	r3, 16386
 1122              		.loc 1 476 0
 1123 003e 3860     		str	r0, [r7, #0]
 1124              		.loc 1 474 0
 1125 0040 45F83420 		str	r2, [r5, r4, lsl #3]
 1126              		.loc 1 480 0
 1127 0044 1EBF     		ittt	ne
 1128 0046 1C6B     		ldrne	r4, [r3, #48]
 1129 0048 44F40014 		orrne	r4, r4, #2097152
 1130 004c 1C63     		strne	r4, [r3, #48]
 1131              		.loc 1 481 0
 1132 004e 10F47F4F 		tst	r0, #65280
 1133              		.loc 1 482 0
 1134 0052 1CBF     		itt	ne
 1135 0054 4FF46053 		movne	r3, #14336
 1136 0058 C4F20203 		movtne	r3, 16386
 1137              		.loc 1 485 0
 1138 005c 3468     		ldr	r4, [r6, #0]
 1139              		.loc 1 482 0
 1140 005e 1EBF     		ittt	ne
 1141 0060 186B     		ldrne	r0, [r3, #48]
 1142 0062 40F48000 		orrne	r0, r0, #4194304
 1143 0066 1863     		strne	r0, [r3, #48]
 1144              		.loc 1 485 0
 1145 0068 2368     		ldr	r3, [r4, #0]
 1146 006a 23F00103 		bic	r3, r3, #1
 1147 006e 2360     		str	r3, [r4, #0]
 1148              	.L124:
 1149              		.loc 1 485 0 is_stmt 0 discriminator 1
 1150 0070 2368     		ldr	r3, [r4, #0]
 1151 0072 13F00105 		ands	r5, r3, #1
 1152 0076 FBD1     		bne	.L124
 1153              		.loc 1 485 0 discriminator 2
 1154 0078 307A     		ldrb	r0, [r6, #8]	@ zero_extendqisi2
 1155 007a 7368     		ldr	r3, [r6, #4]
 1156 007c 3D27     		movs	r7, #61
 1157 007e 07FA00F0 		lsl	r0, r7, r0
 1158 0082 1860     		str	r0, [r3, #0]
 1159              		.loc 1 487 0 is_stmt 1 discriminator 2
 1160 0084 2123     		movs	r3, #33
 1161              		.loc 1 486 0 discriminator 2
 1162 0086 2560     		str	r5, [r4, #0]
 1163              		.loc 1 493 0 discriminator 2
 1164 0088 1046     		mov	r0, r2
 1165              		.loc 1 487 0 discriminator 2
 1166 008a 6361     		str	r3, [r4, #20]
 1167              		.loc 1 490 0 discriminator 2
 1168 008c 22B1     		cbz	r2, .L121
 1169              		.loc 1 491 0
 1170 008e B07A     		ldrb	r0, [r6, #10]	@ zero_extendqisi2
 1171 0090 0901     		lsls	r1, r1, #4
 1172 0092 FFF7FEFF 		bl	nvicEnableVector
 1173              	.LVL84:
 1174              		.loc 1 493 0
 1175 0096 2846     		mov	r0, r5
 1176              	.L121:
 1177              		.loc 1 494 0
ARM GAS  /tmp/cchGjec2.s 			page 22


 1178 0098 04B0     		add	sp, sp, #16
 1179 009a BDE8F081 		pop	{r4, r5, r6, r7, r8, pc}
 1180              	.LVL85:
 1181              	.L134:
 1182              		.loc 1 467 0 discriminator 1
 1183 009e 0748     		ldr	r0, .L135+8
 1184              	.LVL86:
 1185 00a0 0391     		str	r1, [sp, #12]
 1186 00a2 0292     		str	r2, [sp, #8]
 1187 00a4 0193     		str	r3, [sp, #4]
 1188 00a6 FFF7FEFF 		bl	chDbgPanic
 1189              	.LVL87:
 1190 00aa 019B     		ldr	r3, [sp, #4]
 1191 00ac 029A     		ldr	r2, [sp, #8]
 1192 00ae 0399     		ldr	r1, [sp, #12]
 1193 00b0 ACE7     		b	.L120
 1194              	.L136:
 1195 00b2 00BF     		.align	2
 1196              	.L135:
 1197 00b4 00000000 		.word	.LANCHOR1
 1198 00b8 00000000 		.word	.LANCHOR0
 1199 00bc 00000000 		.word	.LC0
 1200              		.cfi_endproc
 1201              	.LFE135:
 1202              		.size	dmaStreamAllocate, .-dmaStreamAllocate
 1203              		.section	.text.dmaStreamRelease,"ax",%progbits
 1204              		.align	2
 1205              		.p2align 4,,15
 1206              		.global	dmaStreamRelease
 1207              		.thumb
 1208              		.thumb_func
 1209              		.type	dmaStreamRelease, %function
 1210              	dmaStreamRelease:
 1211              	.LFB136:
 1212              		.loc 1 509 0
 1213              		.cfi_startproc
 1214              		@ args = 0, pretend = 0, frame = 0
 1215              		@ frame_needed = 0, uses_anonymous_args = 0
 1216              	.LVL88:
 1217 0000 38B5     		push	{r3, r4, r5, lr}
 1218              	.LCFI19:
 1219              		.cfi_def_cfa_offset 16
 1220              		.cfi_offset 3, -16
 1221              		.cfi_offset 4, -12
 1222              		.cfi_offset 5, -8
 1223              		.cfi_offset 14, -4
 1224              		.loc 1 511 0
 1225 0002 0446     		mov	r4, r0
 1226 0004 0028     		cmp	r0, #0
 1227 0006 2FD0     		beq	.L142
 1228              	.LVL89:
 1229              	.L138:
 1230              		.loc 1 514 0
 1231 0008 194D     		ldr	r5, .L144
 1232 000a 627A     		ldrb	r2, [r4, #9]	@ zero_extendqisi2
 1233 000c 2B68     		ldr	r3, [r5, #0]
 1234 000e 0121     		movs	r1, #1
ARM GAS  /tmp/cchGjec2.s 			page 23


 1235 0010 01FA02F2 		lsl	r2, r1, r2
 1236 0014 1A42     		tst	r2, r3
 1237 0016 23D0     		beq	.L143
 1238              	.L139:
 1239              		.loc 1 518 0
 1240 0018 A07A     		ldrb	r0, [r4, #10]	@ zero_extendqisi2
 1241 001a FFF7FEFF 		bl	nvicDisableVector
 1242              	.LVL90:
 1243              		.loc 1 521 0
 1244 001e 637A     		ldrb	r3, [r4, #9]	@ zero_extendqisi2
 1245 0020 2A68     		ldr	r2, [r5, #0]
 1246 0022 0121     		movs	r1, #1
 1247 0024 01FA03F3 		lsl	r3, r1, r3
 1248 0028 22EA0303 		bic	r3, r2, r3
 1249              		.loc 1 524 0
 1250 002c 13F0FF0F 		tst	r3, #255
 1251              		.loc 1 525 0
 1252 0030 04BF     		itt	eq
 1253 0032 4FF46052 		moveq	r2, #14336
 1254 0036 C4F20202 		movteq	r2, 16386
 1255              		.loc 1 521 0
 1256 003a 2B60     		str	r3, [r5, #0]
 1257              		.loc 1 525 0
 1258 003c 02BF     		ittt	eq
 1259 003e 116B     		ldreq	r1, [r2, #48]
 1260 0040 21F40011 		biceq	r1, r1, #2097152
 1261 0044 1163     		streq	r1, [r2, #48]
 1262              		.loc 1 526 0
 1263 0046 13F47F4F 		tst	r3, #65280
 1264              		.loc 1 527 0
 1265 004a 01BF     		itttt	eq
 1266 004c 4FF46053 		moveq	r3, #14336
 1267 0050 C4F20203 		movteq	r3, 16386
 1268 0054 1A6B     		ldreq	r2, [r3, #48]
 1269 0056 22F48002 		biceq	r2, r2, #4194304
 1270 005a 08BF     		it	eq
 1271 005c 1A63     		streq	r2, [r3, #48]
 1272 005e 38BD     		pop	{r3, r4, r5, pc}
 1273              	.L143:
 1274              		.loc 1 514 0 discriminator 1
 1275 0060 0448     		ldr	r0, .L144+4
 1276 0062 FFF7FEFF 		bl	chDbgPanic
 1277              	.LVL91:
 1278 0066 D7E7     		b	.L139
 1279              	.LVL92:
 1280              	.L142:
 1281              		.loc 1 511 0 discriminator 1
 1282 0068 0348     		ldr	r0, .L144+8
 1283              	.LVL93:
 1284 006a FFF7FEFF 		bl	chDbgPanic
 1285              	.LVL94:
 1286 006e CBE7     		b	.L138
 1287              	.L145:
 1288              		.align	2
 1289              	.L144:
 1290 0070 00000000 		.word	.LANCHOR1
 1291 0074 20000000 		.word	.LC2
ARM GAS  /tmp/cchGjec2.s 			page 24


 1292 0078 10000000 		.word	.LC1
 1293              		.cfi_endproc
 1294              	.LFE136:
 1295              		.size	dmaStreamRelease, .-dmaStreamRelease
 1296              		.global	_stm32_dma_streams
 1297 007c AFF30080 		.section	.rodata.str1.4,"aMS",%progbits,1
 1298              		.align	2
 1299              	.LC0:
 1300 0000 22646D61 		.ascii	"\"dmaAllocate\"()\000"
 1300      416C6C6F 
 1300      63617465 
 1300      22282900 
 1301              	.LC1:
 1302 0010 22646D61 		.ascii	"\"dmaRelease\"()\000"
 1302      52656C65 
 1302      61736522 
 1302      282900
 1303 001f 00       		.space	1
 1304              	.LC2:
 1305 0020 646D6152 		.ascii	"dmaRelease(), #1\000"
 1305      656C6561 
 1305      73652829 
 1305      2C202331 
 1305      00
 1306 0031 000000   		.section	.bss.dma_isr_redir,"aw",%nobits
 1307              		.align	2
 1308              		.set	.LANCHOR0,. + 0
 1309              		.type	dma_isr_redir, %object
 1310              		.size	dma_isr_redir, 128
 1311              	dma_isr_redir:
 1312 0000 00000000 		.space	128
 1312      00000000 
 1312      00000000 
 1312      00000000 
 1312      00000000 
 1313              		.section	.rodata._stm32_dma_streams,"a",%progbits
 1314              		.align	2
 1315              		.set	.LANCHOR2,. + 0
 1316              		.type	_stm32_dma_streams, %object
 1317              		.size	_stm32_dma_streams, 192
 1318              	_stm32_dma_streams:
 1319 0000 10600240 		.word	1073897488
 1320 0004 08600240 		.word	1073897480
 1321 0008 00       		.byte	0
 1322 0009 00       		.byte	0
 1323 000a 0B       		.byte	11
 1324 000b 00       		.space	1
 1325 000c 28600240 		.word	1073897512
 1326 0010 08600240 		.word	1073897480
 1327 0014 06       		.byte	6
 1328 0015 01       		.byte	1
 1329 0016 0C       		.byte	12
 1330 0017 00       		.space	1
 1331 0018 40600240 		.word	1073897536
 1332 001c 08600240 		.word	1073897480
 1333 0020 10       		.byte	16
 1334 0021 02       		.byte	2
ARM GAS  /tmp/cchGjec2.s 			page 25


 1335 0022 0D       		.byte	13
 1336 0023 00       		.space	1
 1337 0024 58600240 		.word	1073897560
 1338 0028 08600240 		.word	1073897480
 1339 002c 16       		.byte	22
 1340 002d 03       		.byte	3
 1341 002e 0E       		.byte	14
 1342 002f 00       		.space	1
 1343 0030 70600240 		.word	1073897584
 1344 0034 0C600240 		.word	1073897484
 1345 0038 00       		.byte	0
 1346 0039 04       		.byte	4
 1347 003a 0F       		.byte	15
 1348 003b 00       		.space	1
 1349 003c 88600240 		.word	1073897608
 1350 0040 0C600240 		.word	1073897484
 1351 0044 06       		.byte	6
 1352 0045 05       		.byte	5
 1353 0046 10       		.byte	16
 1354 0047 00       		.space	1
 1355 0048 A0600240 		.word	1073897632
 1356 004c 0C600240 		.word	1073897484
 1357 0050 10       		.byte	16
 1358 0051 06       		.byte	6
 1359 0052 11       		.byte	17
 1360 0053 00       		.space	1
 1361 0054 B8600240 		.word	1073897656
 1362 0058 0C600240 		.word	1073897484
 1363 005c 16       		.byte	22
 1364 005d 07       		.byte	7
 1365 005e 2F       		.byte	47
 1366 005f 00       		.space	1
 1367 0060 10640240 		.word	1073898512
 1368 0064 08640240 		.word	1073898504
 1369 0068 00       		.byte	0
 1370 0069 08       		.byte	8
 1371 006a 38       		.byte	56
 1372 006b 00       		.space	1
 1373 006c 28640240 		.word	1073898536
 1374 0070 08640240 		.word	1073898504
 1375 0074 06       		.byte	6
 1376 0075 09       		.byte	9
 1377 0076 39       		.byte	57
 1378 0077 00       		.space	1
 1379 0078 40640240 		.word	1073898560
 1380 007c 08640240 		.word	1073898504
 1381 0080 10       		.byte	16
 1382 0081 0A       		.byte	10
 1383 0082 3A       		.byte	58
 1384 0083 00       		.space	1
 1385 0084 58640240 		.word	1073898584
 1386 0088 08640240 		.word	1073898504
 1387 008c 16       		.byte	22
 1388 008d 0B       		.byte	11
 1389 008e 3B       		.byte	59
 1390 008f 00       		.space	1
 1391 0090 70640240 		.word	1073898608
ARM GAS  /tmp/cchGjec2.s 			page 26


 1392 0094 0C640240 		.word	1073898508
 1393 0098 00       		.byte	0
 1394 0099 0C       		.byte	12
 1395 009a 3C       		.byte	60
 1396 009b 00       		.space	1
 1397 009c 88640240 		.word	1073898632
 1398 00a0 0C640240 		.word	1073898508
 1399 00a4 06       		.byte	6
 1400 00a5 0D       		.byte	13
 1401 00a6 44       		.byte	68
 1402 00a7 00       		.space	1
 1403 00a8 A0640240 		.word	1073898656
 1404 00ac 0C640240 		.word	1073898508
 1405 00b0 10       		.byte	16
 1406 00b1 0E       		.byte	14
 1407 00b2 45       		.byte	69
 1408 00b3 00       		.space	1
 1409 00b4 B8640240 		.word	1073898680
 1410 00b8 0C640240 		.word	1073898508
 1411 00bc 16       		.byte	22
 1412 00bd 0F       		.byte	15
 1413 00be 46       		.byte	70
 1414 00bf 00       		.space	1
 1415              		.section	.bss.dma_streams_mask,"aw",%nobits
 1416              		.align	2
 1417              		.set	.LANCHOR1,. + 0
 1418              		.type	dma_streams_mask, %object
 1419              		.size	dma_streams_mask, 4
 1420              	dma_streams_mask:
 1421 0000 00000000 		.space	4
 1422              		.text
 1423              	.Letext0:
 1424              		.file 2 "/home/david/toolchains/psas/x-tools/stm32f407/arm-psas-eabi/bin/../lib/gcc/arm-psas-eabi/
 1425              		.file 3 "../../ChibiOS/os/ports/GCC/ARMCMx/chtypes.h"
 1426              		.file 4 "../../ChibiOS/os/hal/platforms/STM32F4xx/stm32f4xx.h"
 1427              		.file 5 "../../ChibiOS/os/hal/platforms/STM32F4xx/stm32_dma.h"
 1428              		.file 6 "../../ChibiOS/os/ports/common/ARMCMx/CMSIS/include/core_cm4.h"
 1429              		.file 7 "../../ChibiOS/os/kernel/include/chdebug.h"
 1430              		.file 8 "../../ChibiOS/os/ports/GCC/ARMCMx/chcore_v7m.h"
 1431              		.file 9 "../../ChibiOS/os/ports/common/ARMCMx/nvic.h"
 1432              		.section	.debug_info,"",%progbits
 1433              	.Ldebug_info0:
 1434 0000 A10C0000 		.4byte	0xca1
 1435 0004 0200     		.2byte	0x2
 1436 0006 00000000 		.4byte	.Ldebug_abbrev0
 1437 000a 04       		.byte	0x4
 1438 000b 01       		.uleb128 0x1
 1439 000c 28050000 		.4byte	.LASF184
 1440 0010 01       		.byte	0x1
 1441 0011 06080000 		.4byte	.LASF185
 1442 0015 5F010000 		.4byte	.LASF186
 1443 0019 00000000 		.4byte	.Ldebug_ranges0+0
 1444 001d 00000000 		.4byte	0
 1445 0021 00000000 		.4byte	0
 1446 0025 00000000 		.4byte	.Ldebug_line0
 1447 0029 02       		.uleb128 0x2
 1448 002a 04       		.byte	0x4
ARM GAS  /tmp/cchGjec2.s 			page 27


 1449 002b 05       		.byte	0x5
 1450 002c 696E7400 		.ascii	"int\000"
 1451 0030 03       		.uleb128 0x3
 1452 0031 04       		.byte	0x4
 1453 0032 07       		.byte	0x7
 1454 0033 BD020000 		.4byte	.LASF0
 1455 0037 03       		.uleb128 0x3
 1456 0038 01       		.byte	0x1
 1457 0039 06       		.byte	0x6
 1458 003a 8E010000 		.4byte	.LASF1
 1459 003e 04       		.uleb128 0x4
 1460 003f 60080000 		.4byte	.LASF5
 1461 0043 02       		.byte	0x2
 1462 0044 2A       		.byte	0x2a
 1463 0045 49000000 		.4byte	0x49
 1464 0049 03       		.uleb128 0x3
 1465 004a 01       		.byte	0x1
 1466 004b 08       		.byte	0x8
 1467 004c D9050000 		.4byte	.LASF2
 1468 0050 03       		.uleb128 0x3
 1469 0051 02       		.byte	0x2
 1470 0052 05       		.byte	0x5
 1471 0053 20060000 		.4byte	.LASF3
 1472 0057 03       		.uleb128 0x3
 1473 0058 02       		.byte	0x2
 1474 0059 07       		.byte	0x7
 1475 005a 95030000 		.4byte	.LASF4
 1476 005e 04       		.uleb128 0x4
 1477 005f D1050000 		.4byte	.LASF6
 1478 0063 02       		.byte	0x2
 1479 0064 4F       		.byte	0x4f
 1480 0065 69000000 		.4byte	0x69
 1481 0069 03       		.uleb128 0x3
 1482 006a 04       		.byte	0x4
 1483 006b 05       		.byte	0x5
 1484 006c E5010000 		.4byte	.LASF7
 1485 0070 04       		.uleb128 0x4
 1486 0071 2A020000 		.4byte	.LASF8
 1487 0075 02       		.byte	0x2
 1488 0076 50       		.byte	0x50
 1489 0077 7B000000 		.4byte	0x7b
 1490 007b 03       		.uleb128 0x3
 1491 007c 04       		.byte	0x4
 1492 007d 07       		.byte	0x7
 1493 007e 34030000 		.4byte	.LASF9
 1494 0082 03       		.uleb128 0x3
 1495 0083 08       		.byte	0x8
 1496 0084 05       		.byte	0x5
 1497 0085 0E020000 		.4byte	.LASF10
 1498 0089 03       		.uleb128 0x3
 1499 008a 08       		.byte	0x8
 1500 008b 07       		.byte	0x7
 1501 008c BE000000 		.4byte	.LASF11
 1502 0090 04       		.uleb128 0x4
 1503 0091 C5010000 		.4byte	.LASF12
 1504 0095 03       		.byte	0x3
 1505 0096 27       		.byte	0x27
ARM GAS  /tmp/cchGjec2.s 			page 28


 1506 0097 5E000000 		.4byte	0x5e
 1507 009b 05       		.uleb128 0x5
 1508 009c 04       		.byte	0x4
 1509 009d 06       		.uleb128 0x6
 1510 009e 70000000 		.4byte	0x70
 1511 00a2 03       		.uleb128 0x3
 1512 00a3 04       		.byte	0x4
 1513 00a4 07       		.byte	0x7
 1514 00a5 6F040000 		.4byte	.LASF13
 1515 00a9 07       		.uleb128 0x7
 1516 00aa 04       		.byte	0x4
 1517 00ab AF000000 		.4byte	0xaf
 1518 00af 08       		.uleb128 0x8
 1519 00b0 B4000000 		.4byte	0xb4
 1520 00b4 03       		.uleb128 0x3
 1521 00b5 01       		.byte	0x1
 1522 00b6 08       		.byte	0x8
 1523 00b7 F1060000 		.4byte	.LASF14
 1524 00bb 09       		.uleb128 0x9
 1525 00bc 64040000 		.4byte	.LASF187
 1526 00c0 01       		.byte	0x1
 1527 00c1 04       		.byte	0x4
 1528 00c2 8C       		.byte	0x8c
 1529 00c3 F6020000 		.4byte	0x2f6
 1530 00c7 0A       		.uleb128 0xa
 1531 00c8 3B070000 		.4byte	.LASF15
 1532 00cc 72       		.sleb128 -14
 1533 00cd 0A       		.uleb128 0xa
 1534 00ce 02030000 		.4byte	.LASF16
 1535 00d2 74       		.sleb128 -12
 1536 00d3 0A       		.uleb128 0xa
 1537 00d4 10070000 		.4byte	.LASF17
 1538 00d8 75       		.sleb128 -11
 1539 00d9 0A       		.uleb128 0xa
 1540 00da B6060000 		.4byte	.LASF18
 1541 00de 76       		.sleb128 -10
 1542 00df 0A       		.uleb128 0xa
 1543 00e0 89030000 		.4byte	.LASF19
 1544 00e4 7B       		.sleb128 -5
 1545 00e5 0A       		.uleb128 0xa
 1546 00e6 A4070000 		.4byte	.LASF20
 1547 00ea 7C       		.sleb128 -4
 1548 00eb 0A       		.uleb128 0xa
 1549 00ec 65020000 		.4byte	.LASF21
 1550 00f0 7E       		.sleb128 -2
 1551 00f1 0A       		.uleb128 0xa
 1552 00f2 32040000 		.4byte	.LASF22
 1553 00f6 7F       		.sleb128 -1
 1554 00f7 0A       		.uleb128 0xa
 1555 00f8 23010000 		.4byte	.LASF23
 1556 00fc 00       		.sleb128 0
 1557 00fd 0A       		.uleb128 0xa
 1558 00fe 28000000 		.4byte	.LASF24
 1559 0102 01       		.sleb128 1
 1560 0103 0A       		.uleb128 0xa
 1561 0104 6F070000 		.4byte	.LASF25
 1562 0108 02       		.sleb128 2
ARM GAS  /tmp/cchGjec2.s 			page 29


 1563 0109 0A       		.uleb128 0xa
 1564 010a 15010000 		.4byte	.LASF26
 1565 010e 03       		.sleb128 3
 1566 010f 0A       		.uleb128 0xa
 1567 0110 7C060000 		.4byte	.LASF27
 1568 0114 04       		.sleb128 4
 1569 0115 0A       		.uleb128 0xa
 1570 0116 18090000 		.4byte	.LASF28
 1571 011a 05       		.sleb128 5
 1572 011b 0A       		.uleb128 0xa
 1573 011c FB070000 		.4byte	.LASF29
 1574 0120 06       		.sleb128 6
 1575 0121 0A       		.uleb128 0xa
 1576 0122 3C090000 		.4byte	.LASF30
 1577 0126 07       		.sleb128 7
 1578 0127 0A       		.uleb128 0xa
 1579 0128 61060000 		.4byte	.LASF31
 1580 012c 08       		.sleb128 8
 1581 012d 0A       		.uleb128 0xa
 1582 012e E1040000 		.4byte	.LASF32
 1583 0132 09       		.sleb128 9
 1584 0133 0A       		.uleb128 0xa
 1585 0134 07060000 		.4byte	.LASF33
 1586 0138 0A       		.sleb128 10
 1587 0139 0A       		.uleb128 0xa
 1588 013a 47090000 		.4byte	.LASF34
 1589 013e 0B       		.sleb128 11
 1590 013f 0A       		.uleb128 0xa
 1591 0140 F4030000 		.4byte	.LASF35
 1592 0144 0C       		.sleb128 12
 1593 0145 0A       		.uleb128 0xa
 1594 0146 F6040000 		.4byte	.LASF36
 1595 014a 0D       		.sleb128 13
 1596 014b 0A       		.uleb128 0xa
 1597 014c D4020000 		.4byte	.LASF37
 1598 0150 0E       		.sleb128 14
 1599 0151 0A       		.uleb128 0xa
 1600 0152 B3040000 		.4byte	.LASF38
 1601 0156 0F       		.sleb128 15
 1602 0157 0A       		.uleb128 0xa
 1603 0158 F7010000 		.4byte	.LASF39
 1604 015c 10       		.sleb128 16
 1605 015d 0A       		.uleb128 0xa
 1606 015e E6020000 		.4byte	.LASF40
 1607 0162 11       		.sleb128 17
 1608 0163 0A       		.uleb128 0xa
 1609 0164 BF080000 		.4byte	.LASF41
 1610 0168 12       		.sleb128 18
 1611 0169 0A       		.uleb128 0xa
 1612 016a C5030000 		.4byte	.LASF42
 1613 016e 13       		.sleb128 19
 1614 016f 0A       		.uleb128 0xa
 1615 0170 1A000000 		.4byte	.LASF43
 1616 0174 14       		.sleb128 20
 1617 0175 0A       		.uleb128 0xa
 1618 0176 B0000000 		.4byte	.LASF44
 1619 017a 15       		.sleb128 21
ARM GAS  /tmp/cchGjec2.s 			page 30


 1620 017b 0A       		.uleb128 0xa
 1621 017c EA080000 		.4byte	.LASF45
 1622 0180 16       		.sleb128 22
 1623 0181 0A       		.uleb128 0xa
 1624 0182 61000000 		.4byte	.LASF46
 1625 0186 17       		.sleb128 23
 1626 0187 0A       		.uleb128 0xa
 1627 0188 E7050000 		.4byte	.LASF47
 1628 018c 18       		.sleb128 24
 1629 018d 0A       		.uleb128 0xa
 1630 018e 81040000 		.4byte	.LASF48
 1631 0192 19       		.sleb128 25
 1632 0193 0A       		.uleb128 0xa
 1633 0194 3F060000 		.4byte	.LASF49
 1634 0198 1A       		.sleb128 26
 1635 0199 0A       		.uleb128 0xa
 1636 019a 3F040000 		.4byte	.LASF50
 1637 019e 1B       		.sleb128 27
 1638 019f 0A       		.uleb128 0xa
 1639 01a0 F1070000 		.4byte	.LASF51
 1640 01a4 1C       		.sleb128 28
 1641 01a5 0A       		.uleb128 0xa
 1642 01a6 32090000 		.4byte	.LASF52
 1643 01aa 1D       		.sleb128 29
 1644 01ab 0A       		.uleb128 0xa
 1645 01ac 0B010000 		.4byte	.LASF53
 1646 01b0 1E       		.sleb128 30
 1647 01b1 0A       		.uleb128 0xa
 1648 01b2 80000000 		.4byte	.LASF54
 1649 01b6 1F       		.sleb128 31
 1650 01b7 0A       		.uleb128 0xa
 1651 01b8 B2080000 		.4byte	.LASF55
 1652 01bc 20       		.sleb128 32
 1653 01bd 0A       		.uleb128 0xa
 1654 01be A6040000 		.4byte	.LASF56
 1655 01c2 21       		.sleb128 33
 1656 01c3 0A       		.uleb128 0xa
 1657 01c4 FE000000 		.4byte	.LASF57
 1658 01c8 22       		.sleb128 34
 1659 01c9 0A       		.uleb128 0xa
 1660 01ca EA030000 		.4byte	.LASF58
 1661 01ce 23       		.sleb128 35
 1662 01cf 0A       		.uleb128 0xa
 1663 01d0 EC040000 		.4byte	.LASF59
 1664 01d4 24       		.sleb128 36
 1665 01d5 0A       		.uleb128 0xa
 1666 01d6 3B080000 		.4byte	.LASF60
 1667 01da 25       		.sleb128 37
 1668 01db 0A       		.uleb128 0xa
 1669 01dc AA060000 		.4byte	.LASF61
 1670 01e0 26       		.sleb128 38
 1671 01e1 0A       		.uleb128 0xa
 1672 01e2 D6070000 		.4byte	.LASF62
 1673 01e6 27       		.sleb128 39
 1674 01e7 0A       		.uleb128 0xa
 1675 01e8 DB030000 		.4byte	.LASF63
 1676 01ec 28       		.sleb128 40
ARM GAS  /tmp/cchGjec2.s 			page 31


 1677 01ed 0A       		.uleb128 0xa
 1678 01ee D5000000 		.4byte	.LASF64
 1679 01f2 29       		.sleb128 41
 1680 01f3 0A       		.uleb128 0xa
 1681 01f4 54020000 		.4byte	.LASF65
 1682 01f8 2A       		.sleb128 42
 1683 01f9 0A       		.uleb128 0xa
 1684 01fa 1E040000 		.4byte	.LASF66
 1685 01fe 2B       		.sleb128 43
 1686 01ff 0A       		.uleb128 0xa
 1687 0200 71020000 		.4byte	.LASF67
 1688 0204 2C       		.sleb128 44
 1689 0205 0A       		.uleb128 0xa
 1690 0206 4C040000 		.4byte	.LASF68
 1691 020a 2D       		.sleb128 45
 1692 020b 0A       		.uleb128 0xa
 1693 020c 52010000 		.4byte	.LASF69
 1694 0210 2E       		.sleb128 46
 1695 0211 0A       		.uleb128 0xa
 1696 0212 DF060000 		.4byte	.LASF70
 1697 0216 2F       		.sleb128 47
 1698 0217 0A       		.uleb128 0xa
 1699 0218 C7050000 		.4byte	.LASF71
 1700 021c 30       		.sleb128 48
 1701 021d 0A       		.uleb128 0xa
 1702 021e 2D010000 		.4byte	.LASF72
 1703 0222 31       		.sleb128 49
 1704 0223 0A       		.uleb128 0xa
 1705 0224 D7040000 		.4byte	.LASF73
 1706 0228 32       		.sleb128 50
 1707 0229 0A       		.uleb128 0xa
 1708 022a A2050000 		.4byte	.LASF74
 1709 022e 33       		.sleb128 51
 1710 022f 0A       		.uleb128 0xa
 1711 0230 49020000 		.4byte	.LASF75
 1712 0234 34       		.sleb128 52
 1713 0235 0A       		.uleb128 0xa
 1714 0236 34060000 		.4byte	.LASF76
 1715 023a 35       		.sleb128 53
 1716 023b 0A       		.uleb128 0xa
 1717 023c 33020000 		.4byte	.LASF77
 1718 0240 36       		.sleb128 54
 1719 0241 0A       		.uleb128 0xa
 1720 0242 1E070000 		.4byte	.LASF78
 1721 0246 37       		.sleb128 55
 1722 0247 0A       		.uleb128 0xa
 1723 0248 B6070000 		.4byte	.LASF79
 1724 024c 38       		.sleb128 56
 1725 024d 0A       		.uleb128 0xa
 1726 024e C8080000 		.4byte	.LASF80
 1727 0252 39       		.sleb128 57
 1728 0253 0A       		.uleb128 0xa
 1729 0254 A8030000 		.4byte	.LASF81
 1730 0258 3A       		.sleb128 58
 1731 0259 0A       		.uleb128 0xa
 1732 025a 94040000 		.4byte	.LASF82
 1733 025e 3B       		.sleb128 59
ARM GAS  /tmp/cchGjec2.s 			page 32


 1734 025f 0A       		.uleb128 0xa
 1735 0260 B5050000 		.4byte	.LASF83
 1736 0264 3C       		.sleb128 60
 1737 0265 0A       		.uleb128 0xa
 1738 0266 78040000 		.4byte	.LASF84
 1739 026a 3D       		.sleb128 61
 1740 026b 0A       		.uleb128 0xa
 1741 026c 1C020000 		.4byte	.LASF85
 1742 0270 3E       		.sleb128 62
 1743 0271 0A       		.uleb128 0xa
 1744 0272 08050000 		.4byte	.LASF86
 1745 0276 3F       		.sleb128 63
 1746 0277 0A       		.uleb128 0xa
 1747 0278 31000000 		.4byte	.LASF87
 1748 027c C000     		.sleb128 64
 1749 027e 0A       		.uleb128 0xa
 1750 027f 9A010000 		.4byte	.LASF88
 1751 0283 C100     		.sleb128 65
 1752 0285 0A       		.uleb128 0xa
 1753 0286 0A090000 		.4byte	.LASF89
 1754 028a C200     		.sleb128 66
 1755 028c 0A       		.uleb128 0xa
 1756 028d 95060000 		.4byte	.LASF90
 1757 0291 C300     		.sleb128 67
 1758 0293 0A       		.uleb128 0xa
 1759 0294 8D000000 		.4byte	.LASF91
 1760 0298 C400     		.sleb128 68
 1761 029a 0A       		.uleb128 0xa
 1762 029b 4F000000 		.4byte	.LASF92
 1763 029f C500     		.sleb128 69
 1764 02a1 0A       		.uleb128 0xa
 1765 02a2 97020000 		.4byte	.LASF93
 1766 02a6 C600     		.sleb128 70
 1767 02a8 0A       		.uleb128 0xa
 1768 02a9 C5040000 		.4byte	.LASF94
 1769 02ad C700     		.sleb128 71
 1770 02af 0A       		.uleb128 0xa
 1771 02b0 27030000 		.4byte	.LASF95
 1772 02b4 C800     		.sleb128 72
 1773 02b6 0A       		.uleb128 0xa
 1774 02b7 6E000000 		.4byte	.LASF96
 1775 02bb C900     		.sleb128 73
 1776 02bd 0A       		.uleb128 0xa
 1777 02be 75030000 		.4byte	.LASF97
 1778 02c2 CA00     		.sleb128 74
 1779 02c4 0A       		.uleb128 0xa
 1780 02c5 28070000 		.4byte	.LASF98
 1781 02c9 CB00     		.sleb128 75
 1782 02cb 0A       		.uleb128 0xa
 1783 02cc 21090000 		.4byte	.LASF99
 1784 02d0 CC00     		.sleb128 76
 1785 02d2 0A       		.uleb128 0xa
 1786 02d3 3D050000 		.4byte	.LASF100
 1787 02d7 CD00     		.sleb128 77
 1788 02d9 0A       		.uleb128 0xa
 1789 02da 6E080000 		.4byte	.LASF101
 1790 02de CE00     		.sleb128 78
ARM GAS  /tmp/cchGjec2.s 			page 33


 1791 02e0 0A       		.uleb128 0xa
 1792 02e1 A8010000 		.4byte	.LASF102
 1793 02e5 CF00     		.sleb128 79
 1794 02e7 0A       		.uleb128 0xa
 1795 02e8 12060000 		.4byte	.LASF103
 1796 02ec D000     		.sleb128 80
 1797 02ee 0A       		.uleb128 0xa
 1798 02ef 90080000 		.4byte	.LASF104
 1799 02f3 D100     		.sleb128 81
 1800 02f5 00       		.byte	0
 1801 02f6 0B       		.uleb128 0xb
 1802 02f7 70000000 		.4byte	0x70
 1803 02fb 06030000 		.4byte	0x306
 1804 02ff 0C       		.uleb128 0xc
 1805 0300 A2000000 		.4byte	0xa2
 1806 0304 01       		.byte	0x1
 1807 0305 00       		.byte	0
 1808 0306 06       		.uleb128 0x6
 1809 0307 5E000000 		.4byte	0x5e
 1810 030b 0D       		.uleb128 0xd
 1811 030c 18       		.byte	0x18
 1812 030d 04       		.byte	0x4
 1813 030e D301     		.2byte	0x1d3
 1814 0310 6E030000 		.4byte	0x36e
 1815 0314 0E       		.uleb128 0xe
 1816 0315 435200   		.ascii	"CR\000"
 1817 0318 04       		.byte	0x4
 1818 0319 D501     		.2byte	0x1d5
 1819 031b 9D000000 		.4byte	0x9d
 1820 031f 02       		.byte	0x2
 1821 0320 23       		.byte	0x23
 1822 0321 00       		.uleb128 0
 1823 0322 0F       		.uleb128 0xf
 1824 0323 4F070000 		.4byte	.LASF105
 1825 0327 04       		.byte	0x4
 1826 0328 D601     		.2byte	0x1d6
 1827 032a 9D000000 		.4byte	0x9d
 1828 032e 02       		.byte	0x2
 1829 032f 23       		.byte	0x23
 1830 0330 04       		.uleb128 0x4
 1831 0331 0E       		.uleb128 0xe
 1832 0332 50415200 		.ascii	"PAR\000"
 1833 0336 04       		.byte	0x4
 1834 0337 D701     		.2byte	0x1d7
 1835 0339 9D000000 		.4byte	0x9d
 1836 033d 02       		.byte	0x2
 1837 033e 23       		.byte	0x23
 1838 033f 08       		.uleb128 0x8
 1839 0340 0F       		.uleb128 0xf
 1840 0341 3F000000 		.4byte	.LASF106
 1841 0345 04       		.byte	0x4
 1842 0346 D801     		.2byte	0x1d8
 1843 0348 9D000000 		.4byte	0x9d
 1844 034c 02       		.byte	0x2
 1845 034d 23       		.byte	0x23
 1846 034e 0C       		.uleb128 0xc
 1847 034f 0F       		.uleb128 0xf
ARM GAS  /tmp/cchGjec2.s 			page 34


 1848 0350 C8070000 		.4byte	.LASF107
 1849 0354 04       		.byte	0x4
 1850 0355 D901     		.2byte	0x1d9
 1851 0357 9D000000 		.4byte	0x9d
 1852 035b 02       		.byte	0x2
 1853 035c 23       		.byte	0x23
 1854 035d 10       		.uleb128 0x10
 1855 035e 0E       		.uleb128 0xe
 1856 035f 46435200 		.ascii	"FCR\000"
 1857 0363 04       		.byte	0x4
 1858 0364 DA01     		.2byte	0x1da
 1859 0366 9D000000 		.4byte	0x9d
 1860 036a 02       		.byte	0x2
 1861 036b 23       		.byte	0x23
 1862 036c 14       		.uleb128 0x14
 1863 036d 00       		.byte	0
 1864 036e 10       		.uleb128 0x10
 1865 036f 54070000 		.4byte	.LASF108
 1866 0373 04       		.byte	0x4
 1867 0374 DB01     		.2byte	0x1db
 1868 0376 0B030000 		.4byte	0x30b
 1869 037a 0D       		.uleb128 0xd
 1870 037b 10       		.byte	0x10
 1871 037c 04       		.byte	0x4
 1872 037d DD01     		.2byte	0x1dd
 1873 037f C0030000 		.4byte	0x3c0
 1874 0383 0F       		.uleb128 0xf
 1875 0384 7B000000 		.4byte	.LASF109
 1876 0388 04       		.byte	0x4
 1877 0389 DF01     		.2byte	0x1df
 1878 038b 9D000000 		.4byte	0x9d
 1879 038f 02       		.byte	0x2
 1880 0390 23       		.byte	0x23
 1881 0391 00       		.uleb128 0
 1882 0392 0F       		.uleb128 0xf
 1883 0393 0F040000 		.4byte	.LASF110
 1884 0397 04       		.byte	0x4
 1885 0398 E001     		.2byte	0x1e0
 1886 039a 9D000000 		.4byte	0x9d
 1887 039e 02       		.byte	0x2
 1888 039f 23       		.byte	0x23
 1889 03a0 04       		.uleb128 0x4
 1890 03a1 0F       		.uleb128 0xf
 1891 03a2 69040000 		.4byte	.LASF111
 1892 03a6 04       		.byte	0x4
 1893 03a7 E101     		.2byte	0x1e1
 1894 03a9 9D000000 		.4byte	0x9d
 1895 03ad 02       		.byte	0x2
 1896 03ae 23       		.byte	0x23
 1897 03af 08       		.uleb128 0x8
 1898 03b0 0F       		.uleb128 0xf
 1899 03b1 E4080000 		.4byte	.LASF112
 1900 03b5 04       		.byte	0x4
 1901 03b6 E201     		.2byte	0x1e2
 1902 03b8 9D000000 		.4byte	0x9d
 1903 03bc 02       		.byte	0x2
 1904 03bd 23       		.byte	0x23
ARM GAS  /tmp/cchGjec2.s 			page 35


 1905 03be 0C       		.uleb128 0xc
 1906 03bf 00       		.byte	0
 1907 03c0 10       		.uleb128 0x10
 1908 03c1 B1020000 		.4byte	.LASF113
 1909 03c5 04       		.byte	0x4
 1910 03c6 E301     		.2byte	0x1e3
 1911 03c8 7A030000 		.4byte	0x37a
 1912 03cc 0D       		.uleb128 0xd
 1913 03cd 88       		.byte	0x88
 1914 03ce 04       		.byte	0x4
 1915 03cf DB02     		.2byte	0x2db
 1916 03d1 99050000 		.4byte	0x599
 1917 03d5 0E       		.uleb128 0xe
 1918 03d6 435200   		.ascii	"CR\000"
 1919 03d9 04       		.byte	0x4
 1920 03da DD02     		.2byte	0x2dd
 1921 03dc 9D000000 		.4byte	0x9d
 1922 03e0 02       		.byte	0x2
 1923 03e1 23       		.byte	0x23
 1924 03e2 00       		.uleb128 0
 1925 03e3 0F       		.uleb128 0xf
 1926 03e4 41020000 		.4byte	.LASF114
 1927 03e8 04       		.byte	0x4
 1928 03e9 DE02     		.2byte	0x2de
 1929 03eb 9D000000 		.4byte	0x9d
 1930 03ef 02       		.byte	0x2
 1931 03f0 23       		.byte	0x23
 1932 03f1 04       		.uleb128 0x4
 1933 03f2 0F       		.uleb128 0xf
 1934 03f3 99080000 		.4byte	.LASF115
 1935 03f7 04       		.byte	0x4
 1936 03f8 DF02     		.2byte	0x2df
 1937 03fa 9D000000 		.4byte	0x9d
 1938 03fe 02       		.byte	0x2
 1939 03ff 23       		.byte	0x23
 1940 0400 08       		.uleb128 0x8
 1941 0401 0E       		.uleb128 0xe
 1942 0402 43495200 		.ascii	"CIR\000"
 1943 0406 04       		.byte	0x4
 1944 0407 E002     		.2byte	0x2e0
 1945 0409 9D000000 		.4byte	0x9d
 1946 040d 02       		.byte	0x2
 1947 040e 23       		.byte	0x23
 1948 040f 0C       		.uleb128 0xc
 1949 0410 0F       		.uleb128 0xf
 1950 0411 B2010000 		.4byte	.LASF116
 1951 0415 04       		.byte	0x4
 1952 0416 E102     		.2byte	0x2e1
 1953 0418 9D000000 		.4byte	0x9d
 1954 041c 02       		.byte	0x2
 1955 041d 23       		.byte	0x23
 1956 041e 10       		.uleb128 0x10
 1957 041f 0F       		.uleb128 0xf
 1958 0420 84020000 		.4byte	.LASF117
 1959 0424 04       		.byte	0x4
 1960 0425 E202     		.2byte	0x2e2
 1961 0427 9D000000 		.4byte	0x9d
ARM GAS  /tmp/cchGjec2.s 			page 36


 1962 042b 02       		.byte	0x2
 1963 042c 23       		.byte	0x23
 1964 042d 14       		.uleb128 0x14
 1965 042e 0F       		.uleb128 0xf
 1966 042f D2030000 		.4byte	.LASF118
 1967 0433 04       		.byte	0x4
 1968 0434 E302     		.2byte	0x2e3
 1969 0436 9D000000 		.4byte	0x9d
 1970 043a 02       		.byte	0x2
 1971 043b 23       		.byte	0x23
 1972 043c 18       		.uleb128 0x18
 1973 043d 0F       		.uleb128 0xf
 1974 043e 49050000 		.4byte	.LASF119
 1975 0442 04       		.byte	0x4
 1976 0443 E402     		.2byte	0x2e4
 1977 0445 70000000 		.4byte	0x70
 1978 0449 02       		.byte	0x2
 1979 044a 23       		.byte	0x23
 1980 044b 1C       		.uleb128 0x1c
 1981 044c 0F       		.uleb128 0xf
 1982 044d 34050000 		.4byte	.LASF120
 1983 0451 04       		.byte	0x4
 1984 0452 E502     		.2byte	0x2e5
 1985 0454 9D000000 		.4byte	0x9d
 1986 0458 02       		.byte	0x2
 1987 0459 23       		.byte	0x23
 1988 045a 20       		.uleb128 0x20
 1989 045b 0F       		.uleb128 0xf
 1990 045c EE010000 		.4byte	.LASF121
 1991 0460 04       		.byte	0x4
 1992 0461 E602     		.2byte	0x2e6
 1993 0463 9D000000 		.4byte	0x9d
 1994 0467 02       		.byte	0x2
 1995 0468 23       		.byte	0x23
 1996 0469 24       		.uleb128 0x24
 1997 046a 0F       		.uleb128 0xf
 1998 046b 53050000 		.4byte	.LASF122
 1999 046f 04       		.byte	0x4
 2000 0470 E702     		.2byte	0x2e7
 2001 0472 F6020000 		.4byte	0x2f6
 2002 0476 02       		.byte	0x2
 2003 0477 23       		.byte	0x23
 2004 0478 28       		.uleb128 0x28
 2005 0479 0F       		.uleb128 0xf
 2006 047a A9020000 		.4byte	.LASF123
 2007 047e 04       		.byte	0x4
 2008 047f E802     		.2byte	0x2e8
 2009 0481 9D000000 		.4byte	0x9d
 2010 0485 02       		.byte	0x2
 2011 0486 23       		.byte	0x23
 2012 0487 30       		.uleb128 0x30
 2013 0488 0F       		.uleb128 0xf
 2014 0489 67070000 		.4byte	.LASF124
 2015 048d 04       		.byte	0x4
 2016 048e E902     		.2byte	0x2e9
 2017 0490 9D000000 		.4byte	0x9d
 2018 0494 02       		.byte	0x2
ARM GAS  /tmp/cchGjec2.s 			page 37


 2019 0495 23       		.byte	0x23
 2020 0496 34       		.uleb128 0x34
 2021 0497 0F       		.uleb128 0xf
 2022 0498 74060000 		.4byte	.LASF125
 2023 049c 04       		.byte	0x4
 2024 049d EA02     		.2byte	0x2ea
 2025 049f 9D000000 		.4byte	0x9d
 2026 04a3 02       		.byte	0x2
 2027 04a4 23       		.byte	0x23
 2028 04a5 38       		.uleb128 0x38
 2029 04a6 0F       		.uleb128 0xf
 2030 04a7 5D050000 		.4byte	.LASF126
 2031 04ab 04       		.byte	0x4
 2032 04ac EB02     		.2byte	0x2eb
 2033 04ae 70000000 		.4byte	0x70
 2034 04b2 02       		.byte	0x2
 2035 04b3 23       		.byte	0x23
 2036 04b4 3C       		.uleb128 0x3c
 2037 04b5 0F       		.uleb128 0xf
 2038 04b6 CF060000 		.4byte	.LASF127
 2039 04ba 04       		.byte	0x4
 2040 04bb EC02     		.2byte	0x2ec
 2041 04bd 9D000000 		.4byte	0x9d
 2042 04c1 02       		.byte	0x2
 2043 04c2 23       		.byte	0x23
 2044 04c3 40       		.uleb128 0x40
 2045 04c4 0F       		.uleb128 0xf
 2046 04c5 6C060000 		.4byte	.LASF128
 2047 04c9 04       		.byte	0x4
 2048 04ca ED02     		.2byte	0x2ed
 2049 04cc 9D000000 		.4byte	0x9d
 2050 04d0 02       		.byte	0x2
 2051 04d1 23       		.byte	0x23
 2052 04d2 44       		.uleb128 0x44
 2053 04d3 0F       		.uleb128 0xf
 2054 04d4 67050000 		.4byte	.LASF129
 2055 04d8 04       		.byte	0x4
 2056 04d9 EE02     		.2byte	0x2ee
 2057 04db F6020000 		.4byte	0x2f6
 2058 04df 02       		.byte	0x2
 2059 04e0 23       		.byte	0x23
 2060 04e1 48       		.uleb128 0x48
 2061 04e2 0F       		.uleb128 0xf
 2062 04e3 37010000 		.4byte	.LASF130
 2063 04e7 04       		.byte	0x4
 2064 04e8 EF02     		.2byte	0x2ef
 2065 04ea 9D000000 		.4byte	0x9d
 2066 04ee 02       		.byte	0x2
 2067 04ef 23       		.byte	0x23
 2068 04f0 50       		.uleb128 0x50
 2069 04f1 0F       		.uleb128 0xf
 2070 04f2 15050000 		.4byte	.LASF131
 2071 04f6 04       		.byte	0x4
 2072 04f7 F002     		.2byte	0x2f0
 2073 04f9 9D000000 		.4byte	0x9d
 2074 04fd 02       		.byte	0x2
 2075 04fe 23       		.byte	0x23
ARM GAS  /tmp/cchGjec2.s 			page 38


 2076 04ff 54       		.uleb128 0x54
 2077 0500 0F       		.uleb128 0xf
 2078 0501 2A060000 		.4byte	.LASF132
 2079 0505 04       		.byte	0x4
 2080 0506 F102     		.2byte	0x2f1
 2081 0508 9D000000 		.4byte	0x9d
 2082 050c 02       		.byte	0x2
 2083 050d 23       		.byte	0x23
 2084 050e 58       		.uleb128 0x58
 2085 050f 0F       		.uleb128 0xf
 2086 0510 71050000 		.4byte	.LASF133
 2087 0514 04       		.byte	0x4
 2088 0515 F202     		.2byte	0x2f2
 2089 0517 70000000 		.4byte	0x70
 2090 051b 02       		.byte	0x2
 2091 051c 23       		.byte	0x23
 2092 051d 5C       		.uleb128 0x5c
 2093 051e 0F       		.uleb128 0xf
 2094 051f 10000000 		.4byte	.LASF134
 2095 0523 04       		.byte	0x4
 2096 0524 F302     		.2byte	0x2f3
 2097 0526 9D000000 		.4byte	0x9d
 2098 052a 02       		.byte	0x2
 2099 052b 23       		.byte	0x23
 2100 052c 60       		.uleb128 0x60
 2101 052d 0F       		.uleb128 0xf
 2102 052e 14040000 		.4byte	.LASF135
 2103 0532 04       		.byte	0x4
 2104 0533 F402     		.2byte	0x2f4
 2105 0535 9D000000 		.4byte	0x9d
 2106 0539 02       		.byte	0x2
 2107 053a 23       		.byte	0x23
 2108 053b 64       		.uleb128 0x64
 2109 053c 0F       		.uleb128 0xf
 2110 053d 7B050000 		.4byte	.LASF136
 2111 0541 04       		.byte	0x4
 2112 0542 F502     		.2byte	0x2f5
 2113 0544 F6020000 		.4byte	0x2f6
 2114 0548 02       		.byte	0x2
 2115 0549 23       		.byte	0x23
 2116 054a 68       		.uleb128 0x68
 2117 054b 0F       		.uleb128 0xf
 2118 054c 47080000 		.4byte	.LASF137
 2119 0550 04       		.byte	0x4
 2120 0551 F602     		.2byte	0x2f6
 2121 0553 9D000000 		.4byte	0x9d
 2122 0557 02       		.byte	0x2
 2123 0558 23       		.byte	0x23
 2124 0559 70       		.uleb128 0x70
 2125 055a 0E       		.uleb128 0xe
 2126 055b 43535200 		.ascii	"CSR\000"
 2127 055f 04       		.byte	0x4
 2128 0560 F702     		.2byte	0x2f7
 2129 0562 9D000000 		.4byte	0x9d
 2130 0566 02       		.byte	0x2
 2131 0567 23       		.byte	0x23
 2132 0568 74       		.uleb128 0x74
ARM GAS  /tmp/cchGjec2.s 			page 39


 2133 0569 0F       		.uleb128 0xf
 2134 056a 85050000 		.4byte	.LASF138
 2135 056e 04       		.byte	0x4
 2136 056f F802     		.2byte	0x2f8
 2137 0571 F6020000 		.4byte	0x2f6
 2138 0575 02       		.byte	0x2
 2139 0576 23       		.byte	0x23
 2140 0577 78       		.uleb128 0x78
 2141 0578 0F       		.uleb128 0xf
 2142 0579 E2070000 		.4byte	.LASF139
 2143 057d 04       		.byte	0x4
 2144 057e F902     		.2byte	0x2f9
 2145 0580 9D000000 		.4byte	0x9d
 2146 0584 03       		.byte	0x3
 2147 0585 23       		.byte	0x23
 2148 0586 8001     		.uleb128 0x80
 2149 0588 0F       		.uleb128 0xf
 2150 0589 BA030000 		.4byte	.LASF140
 2151 058d 04       		.byte	0x4
 2152 058e FA02     		.2byte	0x2fa
 2153 0590 9D000000 		.4byte	0x9d
 2154 0594 03       		.byte	0x3
 2155 0595 23       		.byte	0x23
 2156 0596 8401     		.uleb128 0x84
 2157 0598 00       		.byte	0
 2158 0599 10       		.uleb128 0x10
 2159 059a 46030000 		.4byte	.LASF141
 2160 059e 04       		.byte	0x4
 2161 059f FB02     		.2byte	0x2fb
 2162 05a1 CC030000 		.4byte	0x3cc
 2163 05a5 11       		.uleb128 0x11
 2164 05a6 0C       		.byte	0xc
 2165 05a7 05       		.byte	0x5
 2166 05a8 DE       		.byte	0xde
 2167 05a9 F4050000 		.4byte	0x5f4
 2168 05ad 12       		.uleb128 0x12
 2169 05ae A9000000 		.4byte	.LASF142
 2170 05b2 05       		.byte	0x5
 2171 05b3 DF       		.byte	0xdf
 2172 05b4 F4050000 		.4byte	0x5f4
 2173 05b8 02       		.byte	0x2
 2174 05b9 23       		.byte	0x23
 2175 05ba 00       		.uleb128 0
 2176 05bb 12       		.uleb128 0x12
 2177 05bc 87060000 		.4byte	.LASF143
 2178 05c0 05       		.byte	0x5
 2179 05c1 E0       		.byte	0xe0
 2180 05c2 FA050000 		.4byte	0x5fa
 2181 05c6 02       		.byte	0x2
 2182 05c7 23       		.byte	0x23
 2183 05c8 04       		.uleb128 0x4
 2184 05c9 12       		.uleb128 0x12
 2185 05ca 65030000 		.4byte	.LASF144
 2186 05ce 05       		.byte	0x5
 2187 05cf E1       		.byte	0xe1
 2188 05d0 3E000000 		.4byte	0x3e
 2189 05d4 02       		.byte	0x2
ARM GAS  /tmp/cchGjec2.s 			page 40


 2190 05d5 23       		.byte	0x23
 2191 05d6 08       		.uleb128 0x8
 2192 05d7 12       		.uleb128 0x12
 2193 05d8 8D020000 		.4byte	.LASF145
 2194 05dc 05       		.byte	0x5
 2195 05dd E3       		.byte	0xe3
 2196 05de 3E000000 		.4byte	0x3e
 2197 05e2 02       		.byte	0x2
 2198 05e3 23       		.byte	0x23
 2199 05e4 09       		.uleb128 0x9
 2200 05e5 12       		.uleb128 0x12
 2201 05e6 E4000000 		.4byte	.LASF146
 2202 05ea 05       		.byte	0x5
 2203 05eb E4       		.byte	0xe4
 2204 05ec 3E000000 		.4byte	0x3e
 2205 05f0 02       		.byte	0x2
 2206 05f1 23       		.byte	0x23
 2207 05f2 0A       		.uleb128 0xa
 2208 05f3 00       		.byte	0
 2209 05f4 07       		.uleb128 0x7
 2210 05f5 04       		.byte	0x4
 2211 05f6 6E030000 		.4byte	0x36e
 2212 05fa 07       		.uleb128 0x7
 2213 05fb 04       		.byte	0x4
 2214 05fc 9D000000 		.4byte	0x9d
 2215 0600 04       		.uleb128 0x4
 2216 0601 8F050000 		.4byte	.LASF147
 2217 0605 05       		.byte	0x5
 2218 0606 E5       		.byte	0xe5
 2219 0607 A5050000 		.4byte	0x5a5
 2220 060b 04       		.uleb128 0x4
 2221 060c 18030000 		.4byte	.LASF148
 2222 0610 05       		.byte	0x5
 2223 0611 EE       		.byte	0xee
 2224 0612 16060000 		.4byte	0x616
 2225 0616 07       		.uleb128 0x7
 2226 0617 04       		.byte	0x4
 2227 0618 1C060000 		.4byte	0x61c
 2228 061c 13       		.uleb128 0x13
 2229 061d 01       		.byte	0x1
 2230 061e 2D060000 		.4byte	0x62d
 2231 0622 14       		.uleb128 0x14
 2232 0623 9B000000 		.4byte	0x9b
 2233 0627 14       		.uleb128 0x14
 2234 0628 70000000 		.4byte	0x70
 2235 062c 00       		.byte	0
 2236 062d 07       		.uleb128 0x7
 2237 062e 04       		.byte	0x4
 2238 062f 33060000 		.4byte	0x633
 2239 0633 08       		.uleb128 0x8
 2240 0634 00060000 		.4byte	0x600
 2241 0638 11       		.uleb128 0x11
 2242 0639 08       		.byte	0x8
 2243 063a 01       		.byte	0x1
 2244 063b 68       		.byte	0x68
 2245 063c 5D060000 		.4byte	0x65d
 2246 0640 12       		.uleb128 0x12
ARM GAS  /tmp/cchGjec2.s 			page 41


 2247 0641 1F050000 		.4byte	.LASF149
 2248 0645 01       		.byte	0x1
 2249 0646 69       		.byte	0x69
 2250 0647 0B060000 		.4byte	0x60b
 2251 064b 02       		.byte	0x2
 2252 064c 23       		.byte	0x23
 2253 064d 00       		.uleb128 0
 2254 064e 12       		.uleb128 0x12
 2255 064f 57060000 		.4byte	.LASF150
 2256 0653 01       		.byte	0x1
 2257 0654 6A       		.byte	0x6a
 2258 0655 9B000000 		.4byte	0x9b
 2259 0659 02       		.byte	0x2
 2260 065a 23       		.byte	0x23
 2261 065b 04       		.uleb128 0x4
 2262 065c 00       		.byte	0
 2263 065d 04       		.uleb128 0x4
 2264 065e 00000000 		.4byte	.LASF151
 2265 0662 01       		.byte	0x1
 2266 0663 6B       		.byte	0x6b
 2267 0664 38060000 		.4byte	0x638
 2268 0668 15       		.uleb128 0x15
 2269 0669 01       		.byte	0x1
 2270 066a AC050000 		.4byte	.LASF152
 2271 066e 01       		.byte	0x1
 2272 066f 84       		.byte	0x84
 2273 0670 01       		.byte	0x1
 2274 0671 00000000 		.4byte	.LFB118
 2275 0675 34000000 		.4byte	.LFE118
 2276 0679 00000000 		.4byte	.LLST0
 2277 067d 01       		.byte	0x1
 2278 067e AE060000 		.4byte	0x6ae
 2279 0682 16       		.uleb128 0x16
 2280 0683 68080000 		.4byte	.LASF154
 2281 0687 01       		.byte	0x1
 2282 0688 85       		.byte	0x85
 2283 0689 70000000 		.4byte	0x70
 2284 068d 20000000 		.4byte	.LLST1
 2285 0691 17       		.uleb128 0x17
 2286 0692 06000000 		.4byte	.LVL0
 2287 0696 460C0000 		.4byte	0xc46
 2288 069a 17       		.uleb128 0x17
 2289 069b 26000000 		.4byte	.LVL3
 2290 069f 500C0000 		.4byte	0xc50
 2291 06a3 18       		.uleb128 0x18
 2292 06a4 2E000000 		.4byte	.LVL4
 2293 06a8 01       		.byte	0x1
 2294 06a9 5A0C0000 		.4byte	0xc5a
 2295 06ad 00       		.byte	0
 2296 06ae 15       		.uleb128 0x15
 2297 06af 01       		.byte	0x1
 2298 06b0 8C060000 		.4byte	.LASF153
 2299 06b4 01       		.byte	0x1
 2300 06b5 96       		.byte	0x96
 2301 06b6 01       		.byte	0x1
 2302 06b7 00000000 		.4byte	.LFB119
 2303 06bb 38000000 		.4byte	.LFE119
ARM GAS  /tmp/cchGjec2.s 			page 42


 2304 06bf 33000000 		.4byte	.LLST2
 2305 06c3 01       		.byte	0x1
 2306 06c4 F4060000 		.4byte	0x6f4
 2307 06c8 16       		.uleb128 0x16
 2308 06c9 68080000 		.4byte	.LASF154
 2309 06cd 01       		.byte	0x1
 2310 06ce 97       		.byte	0x97
 2311 06cf 70000000 		.4byte	0x70
 2312 06d3 53000000 		.4byte	.LLST3
 2313 06d7 17       		.uleb128 0x17
 2314 06d8 06000000 		.4byte	.LVL5
 2315 06dc 460C0000 		.4byte	0xc46
 2316 06e0 17       		.uleb128 0x17
 2317 06e1 2A000000 		.4byte	.LVL8
 2318 06e5 500C0000 		.4byte	0xc50
 2319 06e9 18       		.uleb128 0x18
 2320 06ea 32000000 		.4byte	.LVL9
 2321 06ee 01       		.byte	0x1
 2322 06ef 5A0C0000 		.4byte	0xc5a
 2323 06f3 00       		.byte	0
 2324 06f4 15       		.uleb128 0x15
 2325 06f5 01       		.byte	0x1
 2326 06f6 A1060000 		.4byte	.LASF155
 2327 06fa 01       		.byte	0x1
 2328 06fb A8       		.byte	0xa8
 2329 06fc 01       		.byte	0x1
 2330 06fd 00000000 		.4byte	.LFB120
 2331 0701 38000000 		.4byte	.LFE120
 2332 0705 66000000 		.4byte	.LLST4
 2333 0709 01       		.byte	0x1
 2334 070a 3A070000 		.4byte	0x73a
 2335 070e 16       		.uleb128 0x16
 2336 070f 68080000 		.4byte	.LASF154
 2337 0713 01       		.byte	0x1
 2338 0714 A9       		.byte	0xa9
 2339 0715 70000000 		.4byte	0x70
 2340 0719 86000000 		.4byte	.LLST5
 2341 071d 17       		.uleb128 0x17
 2342 071e 06000000 		.4byte	.LVL10
 2343 0722 460C0000 		.4byte	0xc46
 2344 0726 17       		.uleb128 0x17
 2345 0727 2A000000 		.4byte	.LVL13
 2346 072b 500C0000 		.4byte	0xc50
 2347 072f 18       		.uleb128 0x18
 2348 0730 32000000 		.4byte	.LVL14
 2349 0734 01       		.byte	0x1
 2350 0735 5A0C0000 		.4byte	0xc5a
 2351 0739 00       		.byte	0
 2352 073a 15       		.uleb128 0x15
 2353 073b 01       		.byte	0x1
 2354 073c C6060000 		.4byte	.LASF156
 2355 0740 01       		.byte	0x1
 2356 0741 BA       		.byte	0xba
 2357 0742 01       		.byte	0x1
 2358 0743 00000000 		.4byte	.LFB121
 2359 0747 38000000 		.4byte	.LFE121
 2360 074b 99000000 		.4byte	.LLST6
ARM GAS  /tmp/cchGjec2.s 			page 43


 2361 074f 01       		.byte	0x1
 2362 0750 80070000 		.4byte	0x780
 2363 0754 16       		.uleb128 0x16
 2364 0755 68080000 		.4byte	.LASF154
 2365 0759 01       		.byte	0x1
 2366 075a BB       		.byte	0xbb
 2367 075b 70000000 		.4byte	0x70
 2368 075f B9000000 		.4byte	.LLST7
 2369 0763 17       		.uleb128 0x17
 2370 0764 06000000 		.4byte	.LVL15
 2371 0768 460C0000 		.4byte	0xc46
 2372 076c 17       		.uleb128 0x17
 2373 076d 2A000000 		.4byte	.LVL18
 2374 0771 500C0000 		.4byte	0xc50
 2375 0775 18       		.uleb128 0x18
 2376 0776 32000000 		.4byte	.LVL19
 2377 077a 01       		.byte	0x1
 2378 077b 5A0C0000 		.4byte	0xc5a
 2379 077f 00       		.byte	0
 2380 0780 15       		.uleb128 0x15
 2381 0781 01       		.byte	0x1
 2382 0782 07070000 		.4byte	.LASF157
 2383 0786 01       		.byte	0x1
 2384 0787 CC       		.byte	0xcc
 2385 0788 01       		.byte	0x1
 2386 0789 00000000 		.4byte	.LFB122
 2387 078d 34000000 		.4byte	.LFE122
 2388 0791 CC000000 		.4byte	.LLST8
 2389 0795 01       		.byte	0x1
 2390 0796 C6070000 		.4byte	0x7c6
 2391 079a 16       		.uleb128 0x16
 2392 079b 68080000 		.4byte	.LASF154
 2393 079f 01       		.byte	0x1
 2394 07a0 CD       		.byte	0xcd
 2395 07a1 70000000 		.4byte	0x70
 2396 07a5 EC000000 		.4byte	.LLST9
 2397 07a9 17       		.uleb128 0x17
 2398 07aa 06000000 		.4byte	.LVL20
 2399 07ae 460C0000 		.4byte	0xc46
 2400 07b2 17       		.uleb128 0x17
 2401 07b3 26000000 		.4byte	.LVL23
 2402 07b7 500C0000 		.4byte	0xc50
 2403 07bb 18       		.uleb128 0x18
 2404 07bc 2E000000 		.4byte	.LVL24
 2405 07c0 01       		.byte	0x1
 2406 07c1 5A0C0000 		.4byte	0xc5a
 2407 07c5 00       		.byte	0
 2408 07c6 15       		.uleb128 0x15
 2409 07c7 01       		.byte	0x1
 2410 07c8 CD070000 		.4byte	.LASF158
 2411 07cc 01       		.byte	0x1
 2412 07cd DE       		.byte	0xde
 2413 07ce 01       		.byte	0x1
 2414 07cf 00000000 		.4byte	.LFB123
 2415 07d3 38000000 		.4byte	.LFE123
 2416 07d7 FF000000 		.4byte	.LLST10
 2417 07db 01       		.byte	0x1
ARM GAS  /tmp/cchGjec2.s 			page 44


 2418 07dc 0C080000 		.4byte	0x80c
 2419 07e0 16       		.uleb128 0x16
 2420 07e1 68080000 		.4byte	.LASF154
 2421 07e5 01       		.byte	0x1
 2422 07e6 DF       		.byte	0xdf
 2423 07e7 70000000 		.4byte	0x70
 2424 07eb 1F010000 		.4byte	.LLST11
 2425 07ef 17       		.uleb128 0x17
 2426 07f0 06000000 		.4byte	.LVL25
 2427 07f4 460C0000 		.4byte	0xc46
 2428 07f8 17       		.uleb128 0x17
 2429 07f9 2A000000 		.4byte	.LVL28
 2430 07fd 500C0000 		.4byte	0xc50
 2431 0801 18       		.uleb128 0x18
 2432 0802 32000000 		.4byte	.LVL29
 2433 0806 01       		.byte	0x1
 2434 0807 5A0C0000 		.4byte	0xc5a
 2435 080b 00       		.byte	0
 2436 080c 15       		.uleb128 0x15
 2437 080d 01       		.byte	0x1
 2438 080e E8070000 		.4byte	.LASF159
 2439 0812 01       		.byte	0x1
 2440 0813 F0       		.byte	0xf0
 2441 0814 01       		.byte	0x1
 2442 0815 00000000 		.4byte	.LFB124
 2443 0819 38000000 		.4byte	.LFE124
 2444 081d 32010000 		.4byte	.LLST12
 2445 0821 01       		.byte	0x1
 2446 0822 52080000 		.4byte	0x852
 2447 0826 16       		.uleb128 0x16
 2448 0827 68080000 		.4byte	.LASF154
 2449 082b 01       		.byte	0x1
 2450 082c F1       		.byte	0xf1
 2451 082d 70000000 		.4byte	0x70
 2452 0831 52010000 		.4byte	.LLST13
 2453 0835 17       		.uleb128 0x17
 2454 0836 06000000 		.4byte	.LVL30
 2455 083a 460C0000 		.4byte	0xc46
 2456 083e 17       		.uleb128 0x17
 2457 083f 2A000000 		.4byte	.LVL33
 2458 0843 500C0000 		.4byte	0xc50
 2459 0847 18       		.uleb128 0x18
 2460 0848 32000000 		.4byte	.LVL34
 2461 084c 01       		.byte	0x1
 2462 084d 5A0C0000 		.4byte	0xc5a
 2463 0851 00       		.byte	0
 2464 0852 19       		.uleb128 0x19
 2465 0853 01       		.byte	0x1
 2466 0854 6C030000 		.4byte	.LASF160
 2467 0858 01       		.byte	0x1
 2468 0859 0201     		.2byte	0x102
 2469 085b 01       		.byte	0x1
 2470 085c 00000000 		.4byte	.LFB125
 2471 0860 38000000 		.4byte	.LFE125
 2472 0864 65010000 		.4byte	.LLST14
 2473 0868 01       		.byte	0x1
 2474 0869 9A080000 		.4byte	0x89a
ARM GAS  /tmp/cchGjec2.s 			page 45


 2475 086d 1A       		.uleb128 0x1a
 2476 086e 68080000 		.4byte	.LASF154
 2477 0872 01       		.byte	0x1
 2478 0873 0301     		.2byte	0x103
 2479 0875 70000000 		.4byte	0x70
 2480 0879 85010000 		.4byte	.LLST15
 2481 087d 17       		.uleb128 0x17
 2482 087e 06000000 		.4byte	.LVL35
 2483 0882 460C0000 		.4byte	0xc46
 2484 0886 17       		.uleb128 0x17
 2485 0887 2A000000 		.4byte	.LVL38
 2486 088b 500C0000 		.4byte	0xc50
 2487 088f 18       		.uleb128 0x18
 2488 0890 32000000 		.4byte	.LVL39
 2489 0894 01       		.byte	0x1
 2490 0895 5A0C0000 		.4byte	0xc5a
 2491 0899 00       		.byte	0
 2492 089a 19       		.uleb128 0x19
 2493 089b 01       		.byte	0x1
 2494 089c 86080000 		.4byte	.LASF161
 2495 08a0 01       		.byte	0x1
 2496 08a1 1401     		.2byte	0x114
 2497 08a3 01       		.byte	0x1
 2498 08a4 00000000 		.4byte	.LFB126
 2499 08a8 34000000 		.4byte	.LFE126
 2500 08ac 98010000 		.4byte	.LLST16
 2501 08b0 01       		.byte	0x1
 2502 08b1 E2080000 		.4byte	0x8e2
 2503 08b5 1A       		.uleb128 0x1a
 2504 08b6 68080000 		.4byte	.LASF154
 2505 08ba 01       		.byte	0x1
 2506 08bb 1501     		.2byte	0x115
 2507 08bd 70000000 		.4byte	0x70
 2508 08c1 B8010000 		.4byte	.LLST17
 2509 08c5 17       		.uleb128 0x17
 2510 08c6 06000000 		.4byte	.LVL40
 2511 08ca 460C0000 		.4byte	0xc46
 2512 08ce 17       		.uleb128 0x17
 2513 08cf 26000000 		.4byte	.LVL43
 2514 08d3 500C0000 		.4byte	0xc50
 2515 08d7 18       		.uleb128 0x18
 2516 08d8 2E000000 		.4byte	.LVL44
 2517 08dc 01       		.byte	0x1
 2518 08dd 5A0C0000 		.4byte	0xc5a
 2519 08e1 00       		.byte	0
 2520 08e2 19       		.uleb128 0x19
 2521 08e3 01       		.byte	0x1
 2522 08e4 9E080000 		.4byte	.LASF162
 2523 08e8 01       		.byte	0x1
 2524 08e9 2601     		.2byte	0x126
 2525 08eb 01       		.byte	0x1
 2526 08ec 00000000 		.4byte	.LFB127
 2527 08f0 38000000 		.4byte	.LFE127
 2528 08f4 CB010000 		.4byte	.LLST18
 2529 08f8 01       		.byte	0x1
 2530 08f9 2A090000 		.4byte	0x92a
 2531 08fd 1A       		.uleb128 0x1a
ARM GAS  /tmp/cchGjec2.s 			page 46


 2532 08fe 68080000 		.4byte	.LASF154
 2533 0902 01       		.byte	0x1
 2534 0903 2701     		.2byte	0x127
 2535 0905 70000000 		.4byte	0x70
 2536 0909 EB010000 		.4byte	.LLST19
 2537 090d 17       		.uleb128 0x17
 2538 090e 06000000 		.4byte	.LVL45
 2539 0912 460C0000 		.4byte	0xc46
 2540 0916 17       		.uleb128 0x17
 2541 0917 2A000000 		.4byte	.LVL48
 2542 091b 500C0000 		.4byte	0xc50
 2543 091f 18       		.uleb128 0x18
 2544 0920 32000000 		.4byte	.LVL49
 2545 0924 01       		.byte	0x1
 2546 0925 5A0C0000 		.4byte	0xc5a
 2547 0929 00       		.byte	0
 2548 092a 19       		.uleb128 0x19
 2549 092b 01       		.byte	0x1
 2550 092c A8080000 		.4byte	.LASF163
 2551 0930 01       		.byte	0x1
 2552 0931 3801     		.2byte	0x138
 2553 0933 01       		.byte	0x1
 2554 0934 00000000 		.4byte	.LFB128
 2555 0938 38000000 		.4byte	.LFE128
 2556 093c FE010000 		.4byte	.LLST20
 2557 0940 01       		.byte	0x1
 2558 0941 72090000 		.4byte	0x972
 2559 0945 1A       		.uleb128 0x1a
 2560 0946 68080000 		.4byte	.LASF154
 2561 094a 01       		.byte	0x1
 2562 094b 3901     		.2byte	0x139
 2563 094d 70000000 		.4byte	0x70
 2564 0951 1E020000 		.4byte	.LLST21
 2565 0955 17       		.uleb128 0x17
 2566 0956 06000000 		.4byte	.LVL50
 2567 095a 460C0000 		.4byte	0xc46
 2568 095e 17       		.uleb128 0x17
 2569 095f 2A000000 		.4byte	.LVL53
 2570 0963 500C0000 		.4byte	0xc50
 2571 0967 18       		.uleb128 0x18
 2572 0968 32000000 		.4byte	.LVL54
 2573 096c 01       		.byte	0x1
 2574 096d 5A0C0000 		.4byte	0xc5a
 2575 0971 00       		.byte	0
 2576 0972 19       		.uleb128 0x19
 2577 0973 01       		.byte	0x1
 2578 0974 DA080000 		.4byte	.LASF164
 2579 0978 01       		.byte	0x1
 2580 0979 4A01     		.2byte	0x14a
 2581 097b 01       		.byte	0x1
 2582 097c 00000000 		.4byte	.LFB129
 2583 0980 38000000 		.4byte	.LFE129
 2584 0984 31020000 		.4byte	.LLST22
 2585 0988 01       		.byte	0x1
 2586 0989 BA090000 		.4byte	0x9ba
 2587 098d 1A       		.uleb128 0x1a
 2588 098e 68080000 		.4byte	.LASF154
ARM GAS  /tmp/cchGjec2.s 			page 47


 2589 0992 01       		.byte	0x1
 2590 0993 4B01     		.2byte	0x14b
 2591 0995 70000000 		.4byte	0x70
 2592 0999 51020000 		.4byte	.LLST23
 2593 099d 17       		.uleb128 0x17
 2594 099e 06000000 		.4byte	.LVL55
 2595 09a2 460C0000 		.4byte	0xc46
 2596 09a6 17       		.uleb128 0x17
 2597 09a7 2A000000 		.4byte	.LVL58
 2598 09ab 500C0000 		.4byte	0xc50
 2599 09af 18       		.uleb128 0x18
 2600 09b0 32000000 		.4byte	.LVL59
 2601 09b4 01       		.byte	0x1
 2602 09b5 5A0C0000 		.4byte	0xc5a
 2603 09b9 00       		.byte	0
 2604 09ba 19       		.uleb128 0x19
 2605 09bb 01       		.byte	0x1
 2606 09bc 9F000000 		.4byte	.LASF165
 2607 09c0 01       		.byte	0x1
 2608 09c1 5C01     		.2byte	0x15c
 2609 09c3 01       		.byte	0x1
 2610 09c4 00000000 		.4byte	.LFB130
 2611 09c8 34000000 		.4byte	.LFE130
 2612 09cc 64020000 		.4byte	.LLST24
 2613 09d0 01       		.byte	0x1
 2614 09d1 020A0000 		.4byte	0xa02
 2615 09d5 1A       		.uleb128 0x1a
 2616 09d6 68080000 		.4byte	.LASF154
 2617 09da 01       		.byte	0x1
 2618 09db 5D01     		.2byte	0x15d
 2619 09dd 70000000 		.4byte	0x70
 2620 09e1 84020000 		.4byte	.LLST25
 2621 09e5 17       		.uleb128 0x17
 2622 09e6 06000000 		.4byte	.LVL60
 2623 09ea 460C0000 		.4byte	0xc46
 2624 09ee 17       		.uleb128 0x17
 2625 09ef 26000000 		.4byte	.LVL63
 2626 09f3 500C0000 		.4byte	0xc50
 2627 09f7 18       		.uleb128 0x18
 2628 09f8 2E000000 		.4byte	.LVL64
 2629 09fc 01       		.byte	0x1
 2630 09fd 5A0C0000 		.4byte	0xc5a
 2631 0a01 00       		.byte	0
 2632 0a02 19       		.uleb128 0x19
 2633 0a03 01       		.byte	0x1
 2634 0a04 CA020000 		.4byte	.LASF166
 2635 0a08 01       		.byte	0x1
 2636 0a09 6E01     		.2byte	0x16e
 2637 0a0b 01       		.byte	0x1
 2638 0a0c 00000000 		.4byte	.LFB131
 2639 0a10 38000000 		.4byte	.LFE131
 2640 0a14 97020000 		.4byte	.LLST26
 2641 0a18 01       		.byte	0x1
 2642 0a19 4A0A0000 		.4byte	0xa4a
 2643 0a1d 1A       		.uleb128 0x1a
 2644 0a1e 68080000 		.4byte	.LASF154
 2645 0a22 01       		.byte	0x1
ARM GAS  /tmp/cchGjec2.s 			page 48


 2646 0a23 6F01     		.2byte	0x16f
 2647 0a25 70000000 		.4byte	0x70
 2648 0a29 B7020000 		.4byte	.LLST27
 2649 0a2d 17       		.uleb128 0x17
 2650 0a2e 06000000 		.4byte	.LVL65
 2651 0a32 460C0000 		.4byte	0xc46
 2652 0a36 17       		.uleb128 0x17
 2653 0a37 2A000000 		.4byte	.LVL68
 2654 0a3b 500C0000 		.4byte	0xc50
 2655 0a3f 18       		.uleb128 0x18
 2656 0a40 32000000 		.4byte	.LVL69
 2657 0a44 01       		.byte	0x1
 2658 0a45 5A0C0000 		.4byte	0xc5a
 2659 0a49 00       		.byte	0
 2660 0a4a 19       		.uleb128 0x19
 2661 0a4b 01       		.byte	0x1
 2662 0a4c F8020000 		.4byte	.LASF167
 2663 0a50 01       		.byte	0x1
 2664 0a51 8001     		.2byte	0x180
 2665 0a53 01       		.byte	0x1
 2666 0a54 00000000 		.4byte	.LFB132
 2667 0a58 38000000 		.4byte	.LFE132
 2668 0a5c CA020000 		.4byte	.LLST28
 2669 0a60 01       		.byte	0x1
 2670 0a61 920A0000 		.4byte	0xa92
 2671 0a65 1A       		.uleb128 0x1a
 2672 0a66 68080000 		.4byte	.LASF154
 2673 0a6a 01       		.byte	0x1
 2674 0a6b 8101     		.2byte	0x181
 2675 0a6d 70000000 		.4byte	0x70
 2676 0a71 EA020000 		.4byte	.LLST29
 2677 0a75 17       		.uleb128 0x17
 2678 0a76 06000000 		.4byte	.LVL70
 2679 0a7a 460C0000 		.4byte	0xc46
 2680 0a7e 17       		.uleb128 0x17
 2681 0a7f 2A000000 		.4byte	.LVL73
 2682 0a83 500C0000 		.4byte	0xc50
 2683 0a87 18       		.uleb128 0x18
 2684 0a88 32000000 		.4byte	.LVL74
 2685 0a8c 01       		.byte	0x1
 2686 0a8d 5A0C0000 		.4byte	0xc5a
 2687 0a91 00       		.byte	0
 2688 0a92 19       		.uleb128 0x19
 2689 0a93 01       		.byte	0x1
 2690 0a94 BB010000 		.4byte	.LASF168
 2691 0a98 01       		.byte	0x1
 2692 0a99 9201     		.2byte	0x192
 2693 0a9b 01       		.byte	0x1
 2694 0a9c 00000000 		.4byte	.LFB133
 2695 0aa0 38000000 		.4byte	.LFE133
 2696 0aa4 FD020000 		.4byte	.LLST30
 2697 0aa8 01       		.byte	0x1
 2698 0aa9 DA0A0000 		.4byte	0xada
 2699 0aad 1A       		.uleb128 0x1a
 2700 0aae 68080000 		.4byte	.LASF154
 2701 0ab2 01       		.byte	0x1
 2702 0ab3 9301     		.2byte	0x193
ARM GAS  /tmp/cchGjec2.s 			page 49


 2703 0ab5 70000000 		.4byte	0x70
 2704 0ab9 1D030000 		.4byte	.LLST31
 2705 0abd 17       		.uleb128 0x17
 2706 0abe 06000000 		.4byte	.LVL75
 2707 0ac2 460C0000 		.4byte	0xc46
 2708 0ac6 17       		.uleb128 0x17
 2709 0ac7 2A000000 		.4byte	.LVL78
 2710 0acb 500C0000 		.4byte	0xc50
 2711 0acf 18       		.uleb128 0x18
 2712 0ad0 32000000 		.4byte	.LVL79
 2713 0ad4 01       		.byte	0x1
 2714 0ad5 5A0C0000 		.4byte	0xc5a
 2715 0ad9 00       		.byte	0
 2716 0ada 1B       		.uleb128 0x1b
 2717 0adb 01       		.byte	0x1
 2718 0adc D7060000 		.4byte	.LASF169
 2719 0ae0 01       		.byte	0x1
 2720 0ae1 A801     		.2byte	0x1a8
 2721 0ae3 01       		.byte	0x1
 2722 0ae4 00000000 		.4byte	.LFB134
 2723 0ae8 4C000000 		.4byte	.LFE134
 2724 0aec 30030000 		.4byte	.LLST32
 2725 0af0 01       		.byte	0x1
 2726 0af1 040B0000 		.4byte	0xb04
 2727 0af5 1C       		.uleb128 0x1c
 2728 0af6 6900     		.ascii	"i\000"
 2729 0af8 01       		.byte	0x1
 2730 0af9 A901     		.2byte	0x1a9
 2731 0afb 29000000 		.4byte	0x29
 2732 0aff 50030000 		.4byte	.LLST33
 2733 0b03 00       		.byte	0
 2734 0b04 1D       		.uleb128 0x1d
 2735 0b05 01       		.byte	0x1
 2736 0b06 F8080000 		.4byte	.LASF188
 2737 0b0a 01       		.byte	0x1
 2738 0b0b CE01     		.2byte	0x1ce
 2739 0b0d 01       		.byte	0x1
 2740 0b0e 90000000 		.4byte	0x90
 2741 0b12 00000000 		.4byte	.LFB135
 2742 0b16 C0000000 		.4byte	.LFE135
 2743 0b1a 64030000 		.4byte	.LLST34
 2744 0b1e 01       		.byte	0x1
 2745 0b1f 800B0000 		.4byte	0xb80
 2746 0b23 1E       		.uleb128 0x1e
 2747 0b24 DE010000 		.4byte	.LASF170
 2748 0b28 01       		.byte	0x1
 2749 0b29 CE01     		.2byte	0x1ce
 2750 0b2b 2D060000 		.4byte	0x62d
 2751 0b2f 90030000 		.4byte	.LLST35
 2752 0b33 1E       		.uleb128 0x1e
 2753 0b34 06040000 		.4byte	.LASF171
 2754 0b38 01       		.byte	0x1
 2755 0b39 CF01     		.2byte	0x1cf
 2756 0b3b 70000000 		.4byte	0x70
 2757 0b3f C4030000 		.4byte	.LLST36
 2758 0b43 1E       		.uleb128 0x1e
 2759 0b44 09020000 		.4byte	.LASF172
ARM GAS  /tmp/cchGjec2.s 			page 50


 2760 0b48 01       		.byte	0x1
 2761 0b49 D001     		.2byte	0x1d0
 2762 0b4b 0B060000 		.4byte	0x60b
 2763 0b4f FE030000 		.4byte	.LLST37
 2764 0b53 1E       		.uleb128 0x1e
 2765 0b54 D1040000 		.4byte	.LASF173
 2766 0b58 01       		.byte	0x1
 2767 0b59 D101     		.2byte	0x1d1
 2768 0b5b 9B000000 		.4byte	0x9b
 2769 0b5f 38040000 		.4byte	.LLST38
 2770 0b63 17       		.uleb128 0x17
 2771 0b64 96000000 		.4byte	.LVL84
 2772 0b68 650C0000 		.4byte	0xc65
 2773 0b6c 1F       		.uleb128 0x1f
 2774 0b6d AA000000 		.4byte	.LVL87
 2775 0b71 7F0C0000 		.4byte	0xc7f
 2776 0b75 20       		.uleb128 0x20
 2777 0b76 01       		.byte	0x1
 2778 0b77 50       		.byte	0x50
 2779 0b78 05       		.byte	0x5
 2780 0b79 03       		.byte	0x3
 2781 0b7a 00000000 		.4byte	.LC0
 2782 0b7e 00       		.byte	0
 2783 0b7f 00       		.byte	0
 2784 0b80 1B       		.uleb128 0x1b
 2785 0b81 01       		.byte	0x1
 2786 0b82 F6060000 		.4byte	.LASF174
 2787 0b86 01       		.byte	0x1
 2788 0b87 FD01     		.2byte	0x1fd
 2789 0b89 01       		.byte	0x1
 2790 0b8a 00000000 		.4byte	.LFB136
 2791 0b8e 7C000000 		.4byte	.LFE136
 2792 0b92 72040000 		.4byte	.LLST39
 2793 0b96 01       		.byte	0x1
 2794 0b97 DF0B0000 		.4byte	0xbdf
 2795 0b9b 1E       		.uleb128 0x1e
 2796 0b9c DE010000 		.4byte	.LASF170
 2797 0ba0 01       		.byte	0x1
 2798 0ba1 FD01     		.2byte	0x1fd
 2799 0ba3 2D060000 		.4byte	0x62d
 2800 0ba7 92040000 		.4byte	.LLST40
 2801 0bab 17       		.uleb128 0x17
 2802 0bac 1E000000 		.4byte	.LVL90
 2803 0bb0 930C0000 		.4byte	0xc93
 2804 0bb4 21       		.uleb128 0x21
 2805 0bb5 66000000 		.4byte	.LVL91
 2806 0bb9 7F0C0000 		.4byte	0xc7f
 2807 0bbd CB0B0000 		.4byte	0xbcb
 2808 0bc1 20       		.uleb128 0x20
 2809 0bc2 01       		.byte	0x1
 2810 0bc3 50       		.byte	0x50
 2811 0bc4 05       		.byte	0x5
 2812 0bc5 03       		.byte	0x3
 2813 0bc6 20000000 		.4byte	.LC2
 2814 0bca 00       		.byte	0
 2815 0bcb 1F       		.uleb128 0x1f
 2816 0bcc 6E000000 		.4byte	.LVL94
ARM GAS  /tmp/cchGjec2.s 			page 51


 2817 0bd0 7F0C0000 		.4byte	0xc7f
 2818 0bd4 20       		.uleb128 0x20
 2819 0bd5 01       		.byte	0x1
 2820 0bd6 50       		.byte	0x50
 2821 0bd7 05       		.byte	0x5
 2822 0bd8 03       		.byte	0x3
 2823 0bd9 10000000 		.4byte	.LC1
 2824 0bdd 00       		.byte	0
 2825 0bde 00       		.byte	0
 2826 0bdf 22       		.uleb128 0x22
 2827 0be0 7F070000 		.4byte	.LASF175
 2828 0be4 01       		.byte	0x1
 2829 0be5 70       		.byte	0x70
 2830 0be6 70000000 		.4byte	0x70
 2831 0bea 05       		.byte	0x5
 2832 0beb 03       		.byte	0x3
 2833 0bec 00000000 		.4byte	dma_streams_mask
 2834 0bf0 0B       		.uleb128 0xb
 2835 0bf1 5D060000 		.4byte	0x65d
 2836 0bf5 000C0000 		.4byte	0xc00
 2837 0bf9 0C       		.uleb128 0xc
 2838 0bfa A2000000 		.4byte	0xa2
 2839 0bfe 0F       		.byte	0xf
 2840 0bff 00       		.byte	0
 2841 0c00 22       		.uleb128 0x22
 2842 0c01 78080000 		.4byte	.LASF176
 2843 0c05 01       		.byte	0x1
 2844 0c06 75       		.byte	0x75
 2845 0c07 F00B0000 		.4byte	0xbf0
 2846 0c0b 05       		.byte	0x5
 2847 0c0c 03       		.byte	0x3
 2848 0c0d 00000000 		.4byte	dma_isr_redir
 2849 0c11 23       		.uleb128 0x23
 2850 0c12 FA050000 		.4byte	.LASF177
 2851 0c16 06       		.byte	0x6
 2852 0c17 9806     		.2byte	0x698
 2853 0c19 06030000 		.4byte	0x306
 2854 0c1d 01       		.byte	0x1
 2855 0c1e 01       		.byte	0x1
 2856 0c1f 0B       		.uleb128 0xb
 2857 0c20 00060000 		.4byte	0x600
 2858 0c24 2F0C0000 		.4byte	0xc2f
 2859 0c28 0C       		.uleb128 0xc
 2860 0c29 A2000000 		.4byte	0xa2
 2861 0c2d 0F       		.byte	0xf
 2862 0c2e 00       		.byte	0
 2863 0c2f 24       		.uleb128 0x24
 2864 0c30 EB000000 		.4byte	.LASF178
 2865 0c34 01       		.byte	0x1
 2866 0c35 4E       		.byte	0x4e
 2867 0c36 410C0000 		.4byte	0xc41
 2868 0c3a 01       		.byte	0x1
 2869 0c3b 05       		.byte	0x5
 2870 0c3c 03       		.byte	0x3
 2871 0c3d 00000000 		.4byte	_stm32_dma_streams
 2872 0c41 08       		.uleb128 0x8
 2873 0c42 1F0C0000 		.4byte	0xc1f
ARM GAS  /tmp/cchGjec2.s 			page 52


 2874 0c46 25       		.uleb128 0x25
 2875 0c47 01       		.byte	0x1
 2876 0c48 4C080000 		.4byte	.LASF179
 2877 0c4c 07       		.byte	0x7
 2878 0c4d E4       		.byte	0xe4
 2879 0c4e 01       		.byte	0x1
 2880 0c4f 01       		.byte	0x1
 2881 0c50 25       		.uleb128 0x25
 2882 0c51 01       		.byte	0x1
 2883 0c52 90070000 		.4byte	.LASF180
 2884 0c56 07       		.byte	0x7
 2885 0c57 E5       		.byte	0xe5
 2886 0c58 01       		.byte	0x1
 2887 0c59 01       		.byte	0x1
 2888 0c5a 26       		.uleb128 0x26
 2889 0c5b 01       		.byte	0x1
 2890 0c5c 52030000 		.4byte	.LASF181
 2891 0c60 08       		.byte	0x8
 2892 0c61 FC01     		.2byte	0x1fc
 2893 0c63 01       		.byte	0x1
 2894 0c64 01       		.byte	0x1
 2895 0c65 27       		.uleb128 0x27
 2896 0c66 01       		.byte	0x1
 2897 0c67 41010000 		.4byte	.LASF182
 2898 0c6b 09       		.byte	0x9
 2899 0c6c 1C01     		.2byte	0x11c
 2900 0c6e 01       		.byte	0x1
 2901 0c6f 01       		.byte	0x1
 2902 0c70 7F0C0000 		.4byte	0xc7f
 2903 0c74 14       		.uleb128 0x14
 2904 0c75 70000000 		.4byte	0x70
 2905 0c79 14       		.uleb128 0x14
 2906 0c7a 70000000 		.4byte	0x70
 2907 0c7e 00       		.byte	0
 2908 0c7f 28       		.uleb128 0x28
 2909 0c80 01       		.byte	0x1
 2910 0c81 44000000 		.4byte	.LASF183
 2911 0c85 07       		.byte	0x7
 2912 0c86 EF       		.byte	0xef
 2913 0c87 01       		.byte	0x1
 2914 0c88 01       		.byte	0x1
 2915 0c89 930C0000 		.4byte	0xc93
 2916 0c8d 14       		.uleb128 0x14
 2917 0c8e A9000000 		.4byte	0xa9
 2918 0c92 00       		.byte	0
 2919 0c93 29       		.uleb128 0x29
 2920 0c94 01       		.byte	0x1
 2921 0c95 CC010000 		.4byte	.LASF189
 2922 0c99 09       		.byte	0x9
 2923 0c9a 1D01     		.2byte	0x11d
 2924 0c9c 01       		.byte	0x1
 2925 0c9d 01       		.byte	0x1
 2926 0c9e 14       		.uleb128 0x14
 2927 0c9f 70000000 		.4byte	0x70
 2928 0ca3 00       		.byte	0
 2929 0ca4 00       		.byte	0
 2930              		.section	.debug_abbrev,"",%progbits
ARM GAS  /tmp/cchGjec2.s 			page 53


 2931              	.Ldebug_abbrev0:
 2932 0000 01       		.uleb128 0x1
 2933 0001 11       		.uleb128 0x11
 2934 0002 01       		.byte	0x1
 2935 0003 25       		.uleb128 0x25
 2936 0004 0E       		.uleb128 0xe
 2937 0005 13       		.uleb128 0x13
 2938 0006 0B       		.uleb128 0xb
 2939 0007 03       		.uleb128 0x3
 2940 0008 0E       		.uleb128 0xe
 2941 0009 1B       		.uleb128 0x1b
 2942 000a 0E       		.uleb128 0xe
 2943 000b 55       		.uleb128 0x55
 2944 000c 06       		.uleb128 0x6
 2945 000d 11       		.uleb128 0x11
 2946 000e 01       		.uleb128 0x1
 2947 000f 52       		.uleb128 0x52
 2948 0010 01       		.uleb128 0x1
 2949 0011 10       		.uleb128 0x10
 2950 0012 06       		.uleb128 0x6
 2951 0013 00       		.byte	0
 2952 0014 00       		.byte	0
 2953 0015 02       		.uleb128 0x2
 2954 0016 24       		.uleb128 0x24
 2955 0017 00       		.byte	0
 2956 0018 0B       		.uleb128 0xb
 2957 0019 0B       		.uleb128 0xb
 2958 001a 3E       		.uleb128 0x3e
 2959 001b 0B       		.uleb128 0xb
 2960 001c 03       		.uleb128 0x3
 2961 001d 08       		.uleb128 0x8
 2962 001e 00       		.byte	0
 2963 001f 00       		.byte	0
 2964 0020 03       		.uleb128 0x3
 2965 0021 24       		.uleb128 0x24
 2966 0022 00       		.byte	0
 2967 0023 0B       		.uleb128 0xb
 2968 0024 0B       		.uleb128 0xb
 2969 0025 3E       		.uleb128 0x3e
 2970 0026 0B       		.uleb128 0xb
 2971 0027 03       		.uleb128 0x3
 2972 0028 0E       		.uleb128 0xe
 2973 0029 00       		.byte	0
 2974 002a 00       		.byte	0
 2975 002b 04       		.uleb128 0x4
 2976 002c 16       		.uleb128 0x16
 2977 002d 00       		.byte	0
 2978 002e 03       		.uleb128 0x3
 2979 002f 0E       		.uleb128 0xe
 2980 0030 3A       		.uleb128 0x3a
 2981 0031 0B       		.uleb128 0xb
 2982 0032 3B       		.uleb128 0x3b
 2983 0033 0B       		.uleb128 0xb
 2984 0034 49       		.uleb128 0x49
 2985 0035 13       		.uleb128 0x13
 2986 0036 00       		.byte	0
 2987 0037 00       		.byte	0
ARM GAS  /tmp/cchGjec2.s 			page 54


 2988 0038 05       		.uleb128 0x5
 2989 0039 0F       		.uleb128 0xf
 2990 003a 00       		.byte	0
 2991 003b 0B       		.uleb128 0xb
 2992 003c 0B       		.uleb128 0xb
 2993 003d 00       		.byte	0
 2994 003e 00       		.byte	0
 2995 003f 06       		.uleb128 0x6
 2996 0040 35       		.uleb128 0x35
 2997 0041 00       		.byte	0
 2998 0042 49       		.uleb128 0x49
 2999 0043 13       		.uleb128 0x13
 3000 0044 00       		.byte	0
 3001 0045 00       		.byte	0
 3002 0046 07       		.uleb128 0x7
 3003 0047 0F       		.uleb128 0xf
 3004 0048 00       		.byte	0
 3005 0049 0B       		.uleb128 0xb
 3006 004a 0B       		.uleb128 0xb
 3007 004b 49       		.uleb128 0x49
 3008 004c 13       		.uleb128 0x13
 3009 004d 00       		.byte	0
 3010 004e 00       		.byte	0
 3011 004f 08       		.uleb128 0x8
 3012 0050 26       		.uleb128 0x26
 3013 0051 00       		.byte	0
 3014 0052 49       		.uleb128 0x49
 3015 0053 13       		.uleb128 0x13
 3016 0054 00       		.byte	0
 3017 0055 00       		.byte	0
 3018 0056 09       		.uleb128 0x9
 3019 0057 04       		.uleb128 0x4
 3020 0058 01       		.byte	0x1
 3021 0059 03       		.uleb128 0x3
 3022 005a 0E       		.uleb128 0xe
 3023 005b 0B       		.uleb128 0xb
 3024 005c 0B       		.uleb128 0xb
 3025 005d 3A       		.uleb128 0x3a
 3026 005e 0B       		.uleb128 0xb
 3027 005f 3B       		.uleb128 0x3b
 3028 0060 0B       		.uleb128 0xb
 3029 0061 01       		.uleb128 0x1
 3030 0062 13       		.uleb128 0x13
 3031 0063 00       		.byte	0
 3032 0064 00       		.byte	0
 3033 0065 0A       		.uleb128 0xa
 3034 0066 28       		.uleb128 0x28
 3035 0067 00       		.byte	0
 3036 0068 03       		.uleb128 0x3
 3037 0069 0E       		.uleb128 0xe
 3038 006a 1C       		.uleb128 0x1c
 3039 006b 0D       		.uleb128 0xd
 3040 006c 00       		.byte	0
 3041 006d 00       		.byte	0
 3042 006e 0B       		.uleb128 0xb
 3043 006f 01       		.uleb128 0x1
 3044 0070 01       		.byte	0x1
ARM GAS  /tmp/cchGjec2.s 			page 55


 3045 0071 49       		.uleb128 0x49
 3046 0072 13       		.uleb128 0x13
 3047 0073 01       		.uleb128 0x1
 3048 0074 13       		.uleb128 0x13
 3049 0075 00       		.byte	0
 3050 0076 00       		.byte	0
 3051 0077 0C       		.uleb128 0xc
 3052 0078 21       		.uleb128 0x21
 3053 0079 00       		.byte	0
 3054 007a 49       		.uleb128 0x49
 3055 007b 13       		.uleb128 0x13
 3056 007c 2F       		.uleb128 0x2f
 3057 007d 0B       		.uleb128 0xb
 3058 007e 00       		.byte	0
 3059 007f 00       		.byte	0
 3060 0080 0D       		.uleb128 0xd
 3061 0081 13       		.uleb128 0x13
 3062 0082 01       		.byte	0x1
 3063 0083 0B       		.uleb128 0xb
 3064 0084 0B       		.uleb128 0xb
 3065 0085 3A       		.uleb128 0x3a
 3066 0086 0B       		.uleb128 0xb
 3067 0087 3B       		.uleb128 0x3b
 3068 0088 05       		.uleb128 0x5
 3069 0089 01       		.uleb128 0x1
 3070 008a 13       		.uleb128 0x13
 3071 008b 00       		.byte	0
 3072 008c 00       		.byte	0
 3073 008d 0E       		.uleb128 0xe
 3074 008e 0D       		.uleb128 0xd
 3075 008f 00       		.byte	0
 3076 0090 03       		.uleb128 0x3
 3077 0091 08       		.uleb128 0x8
 3078 0092 3A       		.uleb128 0x3a
 3079 0093 0B       		.uleb128 0xb
 3080 0094 3B       		.uleb128 0x3b
 3081 0095 05       		.uleb128 0x5
 3082 0096 49       		.uleb128 0x49
 3083 0097 13       		.uleb128 0x13
 3084 0098 38       		.uleb128 0x38
 3085 0099 0A       		.uleb128 0xa
 3086 009a 00       		.byte	0
 3087 009b 00       		.byte	0
 3088 009c 0F       		.uleb128 0xf
 3089 009d 0D       		.uleb128 0xd
 3090 009e 00       		.byte	0
 3091 009f 03       		.uleb128 0x3
 3092 00a0 0E       		.uleb128 0xe
 3093 00a1 3A       		.uleb128 0x3a
 3094 00a2 0B       		.uleb128 0xb
 3095 00a3 3B       		.uleb128 0x3b
 3096 00a4 05       		.uleb128 0x5
 3097 00a5 49       		.uleb128 0x49
 3098 00a6 13       		.uleb128 0x13
 3099 00a7 38       		.uleb128 0x38
 3100 00a8 0A       		.uleb128 0xa
 3101 00a9 00       		.byte	0
ARM GAS  /tmp/cchGjec2.s 			page 56


 3102 00aa 00       		.byte	0
 3103 00ab 10       		.uleb128 0x10
 3104 00ac 16       		.uleb128 0x16
 3105 00ad 00       		.byte	0
 3106 00ae 03       		.uleb128 0x3
 3107 00af 0E       		.uleb128 0xe
 3108 00b0 3A       		.uleb128 0x3a
 3109 00b1 0B       		.uleb128 0xb
 3110 00b2 3B       		.uleb128 0x3b
 3111 00b3 05       		.uleb128 0x5
 3112 00b4 49       		.uleb128 0x49
 3113 00b5 13       		.uleb128 0x13
 3114 00b6 00       		.byte	0
 3115 00b7 00       		.byte	0
 3116 00b8 11       		.uleb128 0x11
 3117 00b9 13       		.uleb128 0x13
 3118 00ba 01       		.byte	0x1
 3119 00bb 0B       		.uleb128 0xb
 3120 00bc 0B       		.uleb128 0xb
 3121 00bd 3A       		.uleb128 0x3a
 3122 00be 0B       		.uleb128 0xb
 3123 00bf 3B       		.uleb128 0x3b
 3124 00c0 0B       		.uleb128 0xb
 3125 00c1 01       		.uleb128 0x1
 3126 00c2 13       		.uleb128 0x13
 3127 00c3 00       		.byte	0
 3128 00c4 00       		.byte	0
 3129 00c5 12       		.uleb128 0x12
 3130 00c6 0D       		.uleb128 0xd
 3131 00c7 00       		.byte	0
 3132 00c8 03       		.uleb128 0x3
 3133 00c9 0E       		.uleb128 0xe
 3134 00ca 3A       		.uleb128 0x3a
 3135 00cb 0B       		.uleb128 0xb
 3136 00cc 3B       		.uleb128 0x3b
 3137 00cd 0B       		.uleb128 0xb
 3138 00ce 49       		.uleb128 0x49
 3139 00cf 13       		.uleb128 0x13
 3140 00d0 38       		.uleb128 0x38
 3141 00d1 0A       		.uleb128 0xa
 3142 00d2 00       		.byte	0
 3143 00d3 00       		.byte	0
 3144 00d4 13       		.uleb128 0x13
 3145 00d5 15       		.uleb128 0x15
 3146 00d6 01       		.byte	0x1
 3147 00d7 27       		.uleb128 0x27
 3148 00d8 0C       		.uleb128 0xc
 3149 00d9 01       		.uleb128 0x1
 3150 00da 13       		.uleb128 0x13
 3151 00db 00       		.byte	0
 3152 00dc 00       		.byte	0
 3153 00dd 14       		.uleb128 0x14
 3154 00de 05       		.uleb128 0x5
 3155 00df 00       		.byte	0
 3156 00e0 49       		.uleb128 0x49
 3157 00e1 13       		.uleb128 0x13
 3158 00e2 00       		.byte	0
ARM GAS  /tmp/cchGjec2.s 			page 57


 3159 00e3 00       		.byte	0
 3160 00e4 15       		.uleb128 0x15
 3161 00e5 2E       		.uleb128 0x2e
 3162 00e6 01       		.byte	0x1
 3163 00e7 3F       		.uleb128 0x3f
 3164 00e8 0C       		.uleb128 0xc
 3165 00e9 03       		.uleb128 0x3
 3166 00ea 0E       		.uleb128 0xe
 3167 00eb 3A       		.uleb128 0x3a
 3168 00ec 0B       		.uleb128 0xb
 3169 00ed 3B       		.uleb128 0x3b
 3170 00ee 0B       		.uleb128 0xb
 3171 00ef 27       		.uleb128 0x27
 3172 00f0 0C       		.uleb128 0xc
 3173 00f1 11       		.uleb128 0x11
 3174 00f2 01       		.uleb128 0x1
 3175 00f3 12       		.uleb128 0x12
 3176 00f4 01       		.uleb128 0x1
 3177 00f5 40       		.uleb128 0x40
 3178 00f6 06       		.uleb128 0x6
 3179 00f7 9642     		.uleb128 0x2116
 3180 00f9 0C       		.uleb128 0xc
 3181 00fa 01       		.uleb128 0x1
 3182 00fb 13       		.uleb128 0x13
 3183 00fc 00       		.byte	0
 3184 00fd 00       		.byte	0
 3185 00fe 16       		.uleb128 0x16
 3186 00ff 34       		.uleb128 0x34
 3187 0100 00       		.byte	0
 3188 0101 03       		.uleb128 0x3
 3189 0102 0E       		.uleb128 0xe
 3190 0103 3A       		.uleb128 0x3a
 3191 0104 0B       		.uleb128 0xb
 3192 0105 3B       		.uleb128 0x3b
 3193 0106 0B       		.uleb128 0xb
 3194 0107 49       		.uleb128 0x49
 3195 0108 13       		.uleb128 0x13
 3196 0109 02       		.uleb128 0x2
 3197 010a 06       		.uleb128 0x6
 3198 010b 00       		.byte	0
 3199 010c 00       		.byte	0
 3200 010d 17       		.uleb128 0x17
 3201 010e 898201   		.uleb128 0x4109
 3202 0111 00       		.byte	0
 3203 0112 11       		.uleb128 0x11
 3204 0113 01       		.uleb128 0x1
 3205 0114 31       		.uleb128 0x31
 3206 0115 13       		.uleb128 0x13
 3207 0116 00       		.byte	0
 3208 0117 00       		.byte	0
 3209 0118 18       		.uleb128 0x18
 3210 0119 898201   		.uleb128 0x4109
 3211 011c 00       		.byte	0
 3212 011d 11       		.uleb128 0x11
 3213 011e 01       		.uleb128 0x1
 3214 011f 9542     		.uleb128 0x2115
 3215 0121 0C       		.uleb128 0xc
ARM GAS  /tmp/cchGjec2.s 			page 58


 3216 0122 31       		.uleb128 0x31
 3217 0123 13       		.uleb128 0x13
 3218 0124 00       		.byte	0
 3219 0125 00       		.byte	0
 3220 0126 19       		.uleb128 0x19
 3221 0127 2E       		.uleb128 0x2e
 3222 0128 01       		.byte	0x1
 3223 0129 3F       		.uleb128 0x3f
 3224 012a 0C       		.uleb128 0xc
 3225 012b 03       		.uleb128 0x3
 3226 012c 0E       		.uleb128 0xe
 3227 012d 3A       		.uleb128 0x3a
 3228 012e 0B       		.uleb128 0xb
 3229 012f 3B       		.uleb128 0x3b
 3230 0130 05       		.uleb128 0x5
 3231 0131 27       		.uleb128 0x27
 3232 0132 0C       		.uleb128 0xc
 3233 0133 11       		.uleb128 0x11
 3234 0134 01       		.uleb128 0x1
 3235 0135 12       		.uleb128 0x12
 3236 0136 01       		.uleb128 0x1
 3237 0137 40       		.uleb128 0x40
 3238 0138 06       		.uleb128 0x6
 3239 0139 9642     		.uleb128 0x2116
 3240 013b 0C       		.uleb128 0xc
 3241 013c 01       		.uleb128 0x1
 3242 013d 13       		.uleb128 0x13
 3243 013e 00       		.byte	0
 3244 013f 00       		.byte	0
 3245 0140 1A       		.uleb128 0x1a
 3246 0141 34       		.uleb128 0x34
 3247 0142 00       		.byte	0
 3248 0143 03       		.uleb128 0x3
 3249 0144 0E       		.uleb128 0xe
 3250 0145 3A       		.uleb128 0x3a
 3251 0146 0B       		.uleb128 0xb
 3252 0147 3B       		.uleb128 0x3b
 3253 0148 05       		.uleb128 0x5
 3254 0149 49       		.uleb128 0x49
 3255 014a 13       		.uleb128 0x13
 3256 014b 02       		.uleb128 0x2
 3257 014c 06       		.uleb128 0x6
 3258 014d 00       		.byte	0
 3259 014e 00       		.byte	0
 3260 014f 1B       		.uleb128 0x1b
 3261 0150 2E       		.uleb128 0x2e
 3262 0151 01       		.byte	0x1
 3263 0152 3F       		.uleb128 0x3f
 3264 0153 0C       		.uleb128 0xc
 3265 0154 03       		.uleb128 0x3
 3266 0155 0E       		.uleb128 0xe
 3267 0156 3A       		.uleb128 0x3a
 3268 0157 0B       		.uleb128 0xb
 3269 0158 3B       		.uleb128 0x3b
 3270 0159 05       		.uleb128 0x5
 3271 015a 27       		.uleb128 0x27
 3272 015b 0C       		.uleb128 0xc
ARM GAS  /tmp/cchGjec2.s 			page 59


 3273 015c 11       		.uleb128 0x11
 3274 015d 01       		.uleb128 0x1
 3275 015e 12       		.uleb128 0x12
 3276 015f 01       		.uleb128 0x1
 3277 0160 40       		.uleb128 0x40
 3278 0161 06       		.uleb128 0x6
 3279 0162 9742     		.uleb128 0x2117
 3280 0164 0C       		.uleb128 0xc
 3281 0165 01       		.uleb128 0x1
 3282 0166 13       		.uleb128 0x13
 3283 0167 00       		.byte	0
 3284 0168 00       		.byte	0
 3285 0169 1C       		.uleb128 0x1c
 3286 016a 34       		.uleb128 0x34
 3287 016b 00       		.byte	0
 3288 016c 03       		.uleb128 0x3
 3289 016d 08       		.uleb128 0x8
 3290 016e 3A       		.uleb128 0x3a
 3291 016f 0B       		.uleb128 0xb
 3292 0170 3B       		.uleb128 0x3b
 3293 0171 05       		.uleb128 0x5
 3294 0172 49       		.uleb128 0x49
 3295 0173 13       		.uleb128 0x13
 3296 0174 02       		.uleb128 0x2
 3297 0175 06       		.uleb128 0x6
 3298 0176 00       		.byte	0
 3299 0177 00       		.byte	0
 3300 0178 1D       		.uleb128 0x1d
 3301 0179 2E       		.uleb128 0x2e
 3302 017a 01       		.byte	0x1
 3303 017b 3F       		.uleb128 0x3f
 3304 017c 0C       		.uleb128 0xc
 3305 017d 03       		.uleb128 0x3
 3306 017e 0E       		.uleb128 0xe
 3307 017f 3A       		.uleb128 0x3a
 3308 0180 0B       		.uleb128 0xb
 3309 0181 3B       		.uleb128 0x3b
 3310 0182 05       		.uleb128 0x5
 3311 0183 27       		.uleb128 0x27
 3312 0184 0C       		.uleb128 0xc
 3313 0185 49       		.uleb128 0x49
 3314 0186 13       		.uleb128 0x13
 3315 0187 11       		.uleb128 0x11
 3316 0188 01       		.uleb128 0x1
 3317 0189 12       		.uleb128 0x12
 3318 018a 01       		.uleb128 0x1
 3319 018b 40       		.uleb128 0x40
 3320 018c 06       		.uleb128 0x6
 3321 018d 9742     		.uleb128 0x2117
 3322 018f 0C       		.uleb128 0xc
 3323 0190 01       		.uleb128 0x1
 3324 0191 13       		.uleb128 0x13
 3325 0192 00       		.byte	0
 3326 0193 00       		.byte	0
 3327 0194 1E       		.uleb128 0x1e
 3328 0195 05       		.uleb128 0x5
 3329 0196 00       		.byte	0
ARM GAS  /tmp/cchGjec2.s 			page 60


 3330 0197 03       		.uleb128 0x3
 3331 0198 0E       		.uleb128 0xe
 3332 0199 3A       		.uleb128 0x3a
 3333 019a 0B       		.uleb128 0xb
 3334 019b 3B       		.uleb128 0x3b
 3335 019c 05       		.uleb128 0x5
 3336 019d 49       		.uleb128 0x49
 3337 019e 13       		.uleb128 0x13
 3338 019f 02       		.uleb128 0x2
 3339 01a0 06       		.uleb128 0x6
 3340 01a1 00       		.byte	0
 3341 01a2 00       		.byte	0
 3342 01a3 1F       		.uleb128 0x1f
 3343 01a4 898201   		.uleb128 0x4109
 3344 01a7 01       		.byte	0x1
 3345 01a8 11       		.uleb128 0x11
 3346 01a9 01       		.uleb128 0x1
 3347 01aa 31       		.uleb128 0x31
 3348 01ab 13       		.uleb128 0x13
 3349 01ac 00       		.byte	0
 3350 01ad 00       		.byte	0
 3351 01ae 20       		.uleb128 0x20
 3352 01af 8A8201   		.uleb128 0x410a
 3353 01b2 00       		.byte	0
 3354 01b3 02       		.uleb128 0x2
 3355 01b4 0A       		.uleb128 0xa
 3356 01b5 9142     		.uleb128 0x2111
 3357 01b7 0A       		.uleb128 0xa
 3358 01b8 00       		.byte	0
 3359 01b9 00       		.byte	0
 3360 01ba 21       		.uleb128 0x21
 3361 01bb 898201   		.uleb128 0x4109
 3362 01be 01       		.byte	0x1
 3363 01bf 11       		.uleb128 0x11
 3364 01c0 01       		.uleb128 0x1
 3365 01c1 31       		.uleb128 0x31
 3366 01c2 13       		.uleb128 0x13
 3367 01c3 01       		.uleb128 0x1
 3368 01c4 13       		.uleb128 0x13
 3369 01c5 00       		.byte	0
 3370 01c6 00       		.byte	0
 3371 01c7 22       		.uleb128 0x22
 3372 01c8 34       		.uleb128 0x34
 3373 01c9 00       		.byte	0
 3374 01ca 03       		.uleb128 0x3
 3375 01cb 0E       		.uleb128 0xe
 3376 01cc 3A       		.uleb128 0x3a
 3377 01cd 0B       		.uleb128 0xb
 3378 01ce 3B       		.uleb128 0x3b
 3379 01cf 0B       		.uleb128 0xb
 3380 01d0 49       		.uleb128 0x49
 3381 01d1 13       		.uleb128 0x13
 3382 01d2 02       		.uleb128 0x2
 3383 01d3 0A       		.uleb128 0xa
 3384 01d4 00       		.byte	0
 3385 01d5 00       		.byte	0
 3386 01d6 23       		.uleb128 0x23
ARM GAS  /tmp/cchGjec2.s 			page 61


 3387 01d7 34       		.uleb128 0x34
 3388 01d8 00       		.byte	0
 3389 01d9 03       		.uleb128 0x3
 3390 01da 0E       		.uleb128 0xe
 3391 01db 3A       		.uleb128 0x3a
 3392 01dc 0B       		.uleb128 0xb
 3393 01dd 3B       		.uleb128 0x3b
 3394 01de 05       		.uleb128 0x5
 3395 01df 49       		.uleb128 0x49
 3396 01e0 13       		.uleb128 0x13
 3397 01e1 3F       		.uleb128 0x3f
 3398 01e2 0C       		.uleb128 0xc
 3399 01e3 3C       		.uleb128 0x3c
 3400 01e4 0C       		.uleb128 0xc
 3401 01e5 00       		.byte	0
 3402 01e6 00       		.byte	0
 3403 01e7 24       		.uleb128 0x24
 3404 01e8 34       		.uleb128 0x34
 3405 01e9 00       		.byte	0
 3406 01ea 03       		.uleb128 0x3
 3407 01eb 0E       		.uleb128 0xe
 3408 01ec 3A       		.uleb128 0x3a
 3409 01ed 0B       		.uleb128 0xb
 3410 01ee 3B       		.uleb128 0x3b
 3411 01ef 0B       		.uleb128 0xb
 3412 01f0 49       		.uleb128 0x49
 3413 01f1 13       		.uleb128 0x13
 3414 01f2 3F       		.uleb128 0x3f
 3415 01f3 0C       		.uleb128 0xc
 3416 01f4 02       		.uleb128 0x2
 3417 01f5 0A       		.uleb128 0xa
 3418 01f6 00       		.byte	0
 3419 01f7 00       		.byte	0
 3420 01f8 25       		.uleb128 0x25
 3421 01f9 2E       		.uleb128 0x2e
 3422 01fa 00       		.byte	0
 3423 01fb 3F       		.uleb128 0x3f
 3424 01fc 0C       		.uleb128 0xc
 3425 01fd 03       		.uleb128 0x3
 3426 01fe 0E       		.uleb128 0xe
 3427 01ff 3A       		.uleb128 0x3a
 3428 0200 0B       		.uleb128 0xb
 3429 0201 3B       		.uleb128 0x3b
 3430 0202 0B       		.uleb128 0xb
 3431 0203 27       		.uleb128 0x27
 3432 0204 0C       		.uleb128 0xc
 3433 0205 3C       		.uleb128 0x3c
 3434 0206 0C       		.uleb128 0xc
 3435 0207 00       		.byte	0
 3436 0208 00       		.byte	0
 3437 0209 26       		.uleb128 0x26
 3438 020a 2E       		.uleb128 0x2e
 3439 020b 00       		.byte	0
 3440 020c 3F       		.uleb128 0x3f
 3441 020d 0C       		.uleb128 0xc
 3442 020e 03       		.uleb128 0x3
 3443 020f 0E       		.uleb128 0xe
ARM GAS  /tmp/cchGjec2.s 			page 62


 3444 0210 3A       		.uleb128 0x3a
 3445 0211 0B       		.uleb128 0xb
 3446 0212 3B       		.uleb128 0x3b
 3447 0213 05       		.uleb128 0x5
 3448 0214 27       		.uleb128 0x27
 3449 0215 0C       		.uleb128 0xc
 3450 0216 3C       		.uleb128 0x3c
 3451 0217 0C       		.uleb128 0xc
 3452 0218 00       		.byte	0
 3453 0219 00       		.byte	0
 3454 021a 27       		.uleb128 0x27
 3455 021b 2E       		.uleb128 0x2e
 3456 021c 01       		.byte	0x1
 3457 021d 3F       		.uleb128 0x3f
 3458 021e 0C       		.uleb128 0xc
 3459 021f 03       		.uleb128 0x3
 3460 0220 0E       		.uleb128 0xe
 3461 0221 3A       		.uleb128 0x3a
 3462 0222 0B       		.uleb128 0xb
 3463 0223 3B       		.uleb128 0x3b
 3464 0224 05       		.uleb128 0x5
 3465 0225 27       		.uleb128 0x27
 3466 0226 0C       		.uleb128 0xc
 3467 0227 3C       		.uleb128 0x3c
 3468 0228 0C       		.uleb128 0xc
 3469 0229 01       		.uleb128 0x1
 3470 022a 13       		.uleb128 0x13
 3471 022b 00       		.byte	0
 3472 022c 00       		.byte	0
 3473 022d 28       		.uleb128 0x28
 3474 022e 2E       		.uleb128 0x2e
 3475 022f 01       		.byte	0x1
 3476 0230 3F       		.uleb128 0x3f
 3477 0231 0C       		.uleb128 0xc
 3478 0232 03       		.uleb128 0x3
 3479 0233 0E       		.uleb128 0xe
 3480 0234 3A       		.uleb128 0x3a
 3481 0235 0B       		.uleb128 0xb
 3482 0236 3B       		.uleb128 0x3b
 3483 0237 0B       		.uleb128 0xb
 3484 0238 27       		.uleb128 0x27
 3485 0239 0C       		.uleb128 0xc
 3486 023a 3C       		.uleb128 0x3c
 3487 023b 0C       		.uleb128 0xc
 3488 023c 01       		.uleb128 0x1
 3489 023d 13       		.uleb128 0x13
 3490 023e 00       		.byte	0
 3491 023f 00       		.byte	0
 3492 0240 29       		.uleb128 0x29
 3493 0241 2E       		.uleb128 0x2e
 3494 0242 01       		.byte	0x1
 3495 0243 3F       		.uleb128 0x3f
 3496 0244 0C       		.uleb128 0xc
 3497 0245 03       		.uleb128 0x3
 3498 0246 0E       		.uleb128 0xe
 3499 0247 3A       		.uleb128 0x3a
 3500 0248 0B       		.uleb128 0xb
ARM GAS  /tmp/cchGjec2.s 			page 63


 3501 0249 3B       		.uleb128 0x3b
 3502 024a 05       		.uleb128 0x5
 3503 024b 27       		.uleb128 0x27
 3504 024c 0C       		.uleb128 0xc
 3505 024d 3C       		.uleb128 0x3c
 3506 024e 0C       		.uleb128 0xc
 3507 024f 00       		.byte	0
 3508 0250 00       		.byte	0
 3509 0251 00       		.byte	0
 3510              		.section	.debug_loc,"",%progbits
 3511              	.Ldebug_loc0:
 3512              	.LLST0:
 3513 0000 00000000 		.4byte	.LFB118
 3514 0004 02000000 		.4byte	.LCFI0
 3515 0008 0200     		.2byte	0x2
 3516 000a 7D       		.byte	0x7d
 3517 000b 00       		.sleb128 0
 3518 000c 02000000 		.4byte	.LCFI0
 3519 0010 34000000 		.4byte	.LFE118
 3520 0014 0200     		.2byte	0x2
 3521 0016 7D       		.byte	0x7d
 3522 0017 08       		.sleb128 8
 3523 0018 00000000 		.4byte	0
 3524 001c 00000000 		.4byte	0
 3525              	.LLST1:
 3526 0020 1A000000 		.4byte	.LVL1
 3527 0024 21000000 		.4byte	.LVL2-1
 3528 0028 0100     		.2byte	0x1
 3529 002a 51       		.byte	0x51
 3530 002b 00000000 		.4byte	0
 3531 002f 00000000 		.4byte	0
 3532              	.LLST2:
 3533 0033 00000000 		.4byte	.LFB119
 3534 0037 02000000 		.4byte	.LCFI1
 3535 003b 0200     		.2byte	0x2
 3536 003d 7D       		.byte	0x7d
 3537 003e 00       		.sleb128 0
 3538 003f 02000000 		.4byte	.LCFI1
 3539 0043 38000000 		.4byte	.LFE119
 3540 0047 0200     		.2byte	0x2
 3541 0049 7D       		.byte	0x7d
 3542 004a 08       		.sleb128 8
 3543 004b 00000000 		.4byte	0
 3544 004f 00000000 		.4byte	0
 3545              	.LLST3:
 3546 0053 1E000000 		.4byte	.LVL6
 3547 0057 25000000 		.4byte	.LVL7-1
 3548 005b 0100     		.2byte	0x1
 3549 005d 51       		.byte	0x51
 3550 005e 00000000 		.4byte	0
 3551 0062 00000000 		.4byte	0
 3552              	.LLST4:
 3553 0066 00000000 		.4byte	.LFB120
 3554 006a 02000000 		.4byte	.LCFI2
 3555 006e 0200     		.2byte	0x2
 3556 0070 7D       		.byte	0x7d
 3557 0071 00       		.sleb128 0
ARM GAS  /tmp/cchGjec2.s 			page 64


 3558 0072 02000000 		.4byte	.LCFI2
 3559 0076 38000000 		.4byte	.LFE120
 3560 007a 0200     		.2byte	0x2
 3561 007c 7D       		.byte	0x7d
 3562 007d 08       		.sleb128 8
 3563 007e 00000000 		.4byte	0
 3564 0082 00000000 		.4byte	0
 3565              	.LLST5:
 3566 0086 1E000000 		.4byte	.LVL11
 3567 008a 25000000 		.4byte	.LVL12-1
 3568 008e 0100     		.2byte	0x1
 3569 0090 51       		.byte	0x51
 3570 0091 00000000 		.4byte	0
 3571 0095 00000000 		.4byte	0
 3572              	.LLST6:
 3573 0099 00000000 		.4byte	.LFB121
 3574 009d 02000000 		.4byte	.LCFI3
 3575 00a1 0200     		.2byte	0x2
 3576 00a3 7D       		.byte	0x7d
 3577 00a4 00       		.sleb128 0
 3578 00a5 02000000 		.4byte	.LCFI3
 3579 00a9 38000000 		.4byte	.LFE121
 3580 00ad 0200     		.2byte	0x2
 3581 00af 7D       		.byte	0x7d
 3582 00b0 08       		.sleb128 8
 3583 00b1 00000000 		.4byte	0
 3584 00b5 00000000 		.4byte	0
 3585              	.LLST7:
 3586 00b9 1E000000 		.4byte	.LVL16
 3587 00bd 25000000 		.4byte	.LVL17-1
 3588 00c1 0100     		.2byte	0x1
 3589 00c3 51       		.byte	0x51
 3590 00c4 00000000 		.4byte	0
 3591 00c8 00000000 		.4byte	0
 3592              	.LLST8:
 3593 00cc 00000000 		.4byte	.LFB122
 3594 00d0 02000000 		.4byte	.LCFI4
 3595 00d4 0200     		.2byte	0x2
 3596 00d6 7D       		.byte	0x7d
 3597 00d7 00       		.sleb128 0
 3598 00d8 02000000 		.4byte	.LCFI4
 3599 00dc 34000000 		.4byte	.LFE122
 3600 00e0 0200     		.2byte	0x2
 3601 00e2 7D       		.byte	0x7d
 3602 00e3 08       		.sleb128 8
 3603 00e4 00000000 		.4byte	0
 3604 00e8 00000000 		.4byte	0
 3605              	.LLST9:
 3606 00ec 1A000000 		.4byte	.LVL21
 3607 00f0 21000000 		.4byte	.LVL22-1
 3608 00f4 0100     		.2byte	0x1
 3609 00f6 51       		.byte	0x51
 3610 00f7 00000000 		.4byte	0
 3611 00fb 00000000 		.4byte	0
 3612              	.LLST10:
 3613 00ff 00000000 		.4byte	.LFB123
 3614 0103 02000000 		.4byte	.LCFI5
ARM GAS  /tmp/cchGjec2.s 			page 65


 3615 0107 0200     		.2byte	0x2
 3616 0109 7D       		.byte	0x7d
 3617 010a 00       		.sleb128 0
 3618 010b 02000000 		.4byte	.LCFI5
 3619 010f 38000000 		.4byte	.LFE123
 3620 0113 0200     		.2byte	0x2
 3621 0115 7D       		.byte	0x7d
 3622 0116 08       		.sleb128 8
 3623 0117 00000000 		.4byte	0
 3624 011b 00000000 		.4byte	0
 3625              	.LLST11:
 3626 011f 1E000000 		.4byte	.LVL26
 3627 0123 25000000 		.4byte	.LVL27-1
 3628 0127 0100     		.2byte	0x1
 3629 0129 51       		.byte	0x51
 3630 012a 00000000 		.4byte	0
 3631 012e 00000000 		.4byte	0
 3632              	.LLST12:
 3633 0132 00000000 		.4byte	.LFB124
 3634 0136 02000000 		.4byte	.LCFI6
 3635 013a 0200     		.2byte	0x2
 3636 013c 7D       		.byte	0x7d
 3637 013d 00       		.sleb128 0
 3638 013e 02000000 		.4byte	.LCFI6
 3639 0142 38000000 		.4byte	.LFE124
 3640 0146 0200     		.2byte	0x2
 3641 0148 7D       		.byte	0x7d
 3642 0149 08       		.sleb128 8
 3643 014a 00000000 		.4byte	0
 3644 014e 00000000 		.4byte	0
 3645              	.LLST13:
 3646 0152 1E000000 		.4byte	.LVL31
 3647 0156 25000000 		.4byte	.LVL32-1
 3648 015a 0100     		.2byte	0x1
 3649 015c 51       		.byte	0x51
 3650 015d 00000000 		.4byte	0
 3651 0161 00000000 		.4byte	0
 3652              	.LLST14:
 3653 0165 00000000 		.4byte	.LFB125
 3654 0169 02000000 		.4byte	.LCFI7
 3655 016d 0200     		.2byte	0x2
 3656 016f 7D       		.byte	0x7d
 3657 0170 00       		.sleb128 0
 3658 0171 02000000 		.4byte	.LCFI7
 3659 0175 38000000 		.4byte	.LFE125
 3660 0179 0200     		.2byte	0x2
 3661 017b 7D       		.byte	0x7d
 3662 017c 08       		.sleb128 8
 3663 017d 00000000 		.4byte	0
 3664 0181 00000000 		.4byte	0
 3665              	.LLST15:
 3666 0185 1E000000 		.4byte	.LVL36
 3667 0189 25000000 		.4byte	.LVL37-1
 3668 018d 0100     		.2byte	0x1
 3669 018f 51       		.byte	0x51
 3670 0190 00000000 		.4byte	0
 3671 0194 00000000 		.4byte	0
ARM GAS  /tmp/cchGjec2.s 			page 66


 3672              	.LLST16:
 3673 0198 00000000 		.4byte	.LFB126
 3674 019c 02000000 		.4byte	.LCFI8
 3675 01a0 0200     		.2byte	0x2
 3676 01a2 7D       		.byte	0x7d
 3677 01a3 00       		.sleb128 0
 3678 01a4 02000000 		.4byte	.LCFI8
 3679 01a8 34000000 		.4byte	.LFE126
 3680 01ac 0200     		.2byte	0x2
 3681 01ae 7D       		.byte	0x7d
 3682 01af 08       		.sleb128 8
 3683 01b0 00000000 		.4byte	0
 3684 01b4 00000000 		.4byte	0
 3685              	.LLST17:
 3686 01b8 1A000000 		.4byte	.LVL41
 3687 01bc 21000000 		.4byte	.LVL42-1
 3688 01c0 0100     		.2byte	0x1
 3689 01c2 51       		.byte	0x51
 3690 01c3 00000000 		.4byte	0
 3691 01c7 00000000 		.4byte	0
 3692              	.LLST18:
 3693 01cb 00000000 		.4byte	.LFB127
 3694 01cf 02000000 		.4byte	.LCFI9
 3695 01d3 0200     		.2byte	0x2
 3696 01d5 7D       		.byte	0x7d
 3697 01d6 00       		.sleb128 0
 3698 01d7 02000000 		.4byte	.LCFI9
 3699 01db 38000000 		.4byte	.LFE127
 3700 01df 0200     		.2byte	0x2
 3701 01e1 7D       		.byte	0x7d
 3702 01e2 08       		.sleb128 8
 3703 01e3 00000000 		.4byte	0
 3704 01e7 00000000 		.4byte	0
 3705              	.LLST19:
 3706 01eb 1E000000 		.4byte	.LVL46
 3707 01ef 25000000 		.4byte	.LVL47-1
 3708 01f3 0100     		.2byte	0x1
 3709 01f5 51       		.byte	0x51
 3710 01f6 00000000 		.4byte	0
 3711 01fa 00000000 		.4byte	0
 3712              	.LLST20:
 3713 01fe 00000000 		.4byte	.LFB128
 3714 0202 02000000 		.4byte	.LCFI10
 3715 0206 0200     		.2byte	0x2
 3716 0208 7D       		.byte	0x7d
 3717 0209 00       		.sleb128 0
 3718 020a 02000000 		.4byte	.LCFI10
 3719 020e 38000000 		.4byte	.LFE128
 3720 0212 0200     		.2byte	0x2
 3721 0214 7D       		.byte	0x7d
 3722 0215 08       		.sleb128 8
 3723 0216 00000000 		.4byte	0
 3724 021a 00000000 		.4byte	0
 3725              	.LLST21:
 3726 021e 1E000000 		.4byte	.LVL51
 3727 0222 25000000 		.4byte	.LVL52-1
 3728 0226 0100     		.2byte	0x1
ARM GAS  /tmp/cchGjec2.s 			page 67


 3729 0228 51       		.byte	0x51
 3730 0229 00000000 		.4byte	0
 3731 022d 00000000 		.4byte	0
 3732              	.LLST22:
 3733 0231 00000000 		.4byte	.LFB129
 3734 0235 02000000 		.4byte	.LCFI11
 3735 0239 0200     		.2byte	0x2
 3736 023b 7D       		.byte	0x7d
 3737 023c 00       		.sleb128 0
 3738 023d 02000000 		.4byte	.LCFI11
 3739 0241 38000000 		.4byte	.LFE129
 3740 0245 0200     		.2byte	0x2
 3741 0247 7D       		.byte	0x7d
 3742 0248 08       		.sleb128 8
 3743 0249 00000000 		.4byte	0
 3744 024d 00000000 		.4byte	0
 3745              	.LLST23:
 3746 0251 1E000000 		.4byte	.LVL56
 3747 0255 25000000 		.4byte	.LVL57-1
 3748 0259 0100     		.2byte	0x1
 3749 025b 51       		.byte	0x51
 3750 025c 00000000 		.4byte	0
 3751 0260 00000000 		.4byte	0
 3752              	.LLST24:
 3753 0264 00000000 		.4byte	.LFB130
 3754 0268 02000000 		.4byte	.LCFI12
 3755 026c 0200     		.2byte	0x2
 3756 026e 7D       		.byte	0x7d
 3757 026f 00       		.sleb128 0
 3758 0270 02000000 		.4byte	.LCFI12
 3759 0274 34000000 		.4byte	.LFE130
 3760 0278 0200     		.2byte	0x2
 3761 027a 7D       		.byte	0x7d
 3762 027b 08       		.sleb128 8
 3763 027c 00000000 		.4byte	0
 3764 0280 00000000 		.4byte	0
 3765              	.LLST25:
 3766 0284 1A000000 		.4byte	.LVL61
 3767 0288 21000000 		.4byte	.LVL62-1
 3768 028c 0100     		.2byte	0x1
 3769 028e 51       		.byte	0x51
 3770 028f 00000000 		.4byte	0
 3771 0293 00000000 		.4byte	0
 3772              	.LLST26:
 3773 0297 00000000 		.4byte	.LFB131
 3774 029b 02000000 		.4byte	.LCFI13
 3775 029f 0200     		.2byte	0x2
 3776 02a1 7D       		.byte	0x7d
 3777 02a2 00       		.sleb128 0
 3778 02a3 02000000 		.4byte	.LCFI13
 3779 02a7 38000000 		.4byte	.LFE131
 3780 02ab 0200     		.2byte	0x2
 3781 02ad 7D       		.byte	0x7d
 3782 02ae 08       		.sleb128 8
 3783 02af 00000000 		.4byte	0
 3784 02b3 00000000 		.4byte	0
 3785              	.LLST27:
ARM GAS  /tmp/cchGjec2.s 			page 68


 3786 02b7 1E000000 		.4byte	.LVL66
 3787 02bb 25000000 		.4byte	.LVL67-1
 3788 02bf 0100     		.2byte	0x1
 3789 02c1 51       		.byte	0x51
 3790 02c2 00000000 		.4byte	0
 3791 02c6 00000000 		.4byte	0
 3792              	.LLST28:
 3793 02ca 00000000 		.4byte	.LFB132
 3794 02ce 02000000 		.4byte	.LCFI14
 3795 02d2 0200     		.2byte	0x2
 3796 02d4 7D       		.byte	0x7d
 3797 02d5 00       		.sleb128 0
 3798 02d6 02000000 		.4byte	.LCFI14
 3799 02da 38000000 		.4byte	.LFE132
 3800 02de 0200     		.2byte	0x2
 3801 02e0 7D       		.byte	0x7d
 3802 02e1 08       		.sleb128 8
 3803 02e2 00000000 		.4byte	0
 3804 02e6 00000000 		.4byte	0
 3805              	.LLST29:
 3806 02ea 1E000000 		.4byte	.LVL71
 3807 02ee 25000000 		.4byte	.LVL72-1
 3808 02f2 0100     		.2byte	0x1
 3809 02f4 51       		.byte	0x51
 3810 02f5 00000000 		.4byte	0
 3811 02f9 00000000 		.4byte	0
 3812              	.LLST30:
 3813 02fd 00000000 		.4byte	.LFB133
 3814 0301 02000000 		.4byte	.LCFI15
 3815 0305 0200     		.2byte	0x2
 3816 0307 7D       		.byte	0x7d
 3817 0308 00       		.sleb128 0
 3818 0309 02000000 		.4byte	.LCFI15
 3819 030d 38000000 		.4byte	.LFE133
 3820 0311 0200     		.2byte	0x2
 3821 0313 7D       		.byte	0x7d
 3822 0314 08       		.sleb128 8
 3823 0315 00000000 		.4byte	0
 3824 0319 00000000 		.4byte	0
 3825              	.LLST31:
 3826 031d 1E000000 		.4byte	.LVL76
 3827 0321 25000000 		.4byte	.LVL77-1
 3828 0325 0100     		.2byte	0x1
 3829 0327 51       		.byte	0x51
 3830 0328 00000000 		.4byte	0
 3831 032c 00000000 		.4byte	0
 3832              	.LLST32:
 3833 0330 00000000 		.4byte	.LFB134
 3834 0334 04000000 		.4byte	.LCFI16
 3835 0338 0200     		.2byte	0x2
 3836 033a 7D       		.byte	0x7d
 3837 033b 00       		.sleb128 0
 3838 033c 04000000 		.4byte	.LCFI16
 3839 0340 4C000000 		.4byte	.LFE134
 3840 0344 0200     		.2byte	0x2
 3841 0346 7D       		.byte	0x7d
 3842 0347 08       		.sleb128 8
ARM GAS  /tmp/cchGjec2.s 			page 69


 3843 0348 00000000 		.4byte	0
 3844 034c 00000000 		.4byte	0
 3845              	.LLST33:
 3846 0350 0C000000 		.4byte	.LVL80
 3847 0354 10000000 		.4byte	.LVL81
 3848 0358 0200     		.2byte	0x2
 3849 035a 30       		.byte	0x30
 3850 035b 9F       		.byte	0x9f
 3851 035c 00000000 		.4byte	0
 3852 0360 00000000 		.4byte	0
 3853              	.LLST34:
 3854 0364 00000000 		.4byte	.LFB135
 3855 0368 04000000 		.4byte	.LCFI17
 3856 036c 0200     		.2byte	0x2
 3857 036e 7D       		.byte	0x7d
 3858 036f 00       		.sleb128 0
 3859 0370 04000000 		.4byte	.LCFI17
 3860 0374 08000000 		.4byte	.LCFI18
 3861 0378 0200     		.2byte	0x2
 3862 037a 7D       		.byte	0x7d
 3863 037b 18       		.sleb128 24
 3864 037c 08000000 		.4byte	.LCFI18
 3865 0380 C0000000 		.4byte	.LFE135
 3866 0384 0200     		.2byte	0x2
 3867 0386 7D       		.byte	0x7d
 3868 0387 28       		.sleb128 40
 3869 0388 00000000 		.4byte	0
 3870 038c 00000000 		.4byte	0
 3871              	.LLST35:
 3872 0390 00000000 		.4byte	.LVL82
 3873 0394 0C000000 		.4byte	.LVL83
 3874 0398 0100     		.2byte	0x1
 3875 039a 50       		.byte	0x50
 3876 039b 0C000000 		.4byte	.LVL83
 3877 039f 9E000000 		.4byte	.LVL85
 3878 03a3 0100     		.2byte	0x1
 3879 03a5 56       		.byte	0x56
 3880 03a6 9E000000 		.4byte	.LVL85
 3881 03aa A0000000 		.4byte	.LVL86
 3882 03ae 0100     		.2byte	0x1
 3883 03b0 50       		.byte	0x50
 3884 03b1 A0000000 		.4byte	.LVL86
 3885 03b5 C0000000 		.4byte	.LFE135
 3886 03b9 0100     		.2byte	0x1
 3887 03bb 56       		.byte	0x56
 3888 03bc 00000000 		.4byte	0
 3889 03c0 00000000 		.4byte	0
 3890              	.LLST36:
 3891 03c4 00000000 		.4byte	.LVL82
 3892 03c8 0C000000 		.4byte	.LVL83
 3893 03cc 0100     		.2byte	0x1
 3894 03ce 51       		.byte	0x51
 3895 03cf 0C000000 		.4byte	.LVL83
 3896 03d3 9E000000 		.4byte	.LVL85
 3897 03d7 0400     		.2byte	0x4
 3898 03d9 F3       		.byte	0xf3
 3899 03da 01       		.uleb128 0x1
ARM GAS  /tmp/cchGjec2.s 			page 70


 3900 03db 51       		.byte	0x51
 3901 03dc 9F       		.byte	0x9f
 3902 03dd 9E000000 		.4byte	.LVL85
 3903 03e1 A9000000 		.4byte	.LVL87-1
 3904 03e5 0100     		.2byte	0x1
 3905 03e7 51       		.byte	0x51
 3906 03e8 A9000000 		.4byte	.LVL87-1
 3907 03ec C0000000 		.4byte	.LFE135
 3908 03f0 0400     		.2byte	0x4
 3909 03f2 F3       		.byte	0xf3
 3910 03f3 01       		.uleb128 0x1
 3911 03f4 51       		.byte	0x51
 3912 03f5 9F       		.byte	0x9f
 3913 03f6 00000000 		.4byte	0
 3914 03fa 00000000 		.4byte	0
 3915              	.LLST37:
 3916 03fe 00000000 		.4byte	.LVL82
 3917 0402 0C000000 		.4byte	.LVL83
 3918 0406 0100     		.2byte	0x1
 3919 0408 52       		.byte	0x52
 3920 0409 0C000000 		.4byte	.LVL83
 3921 040d 9E000000 		.4byte	.LVL85
 3922 0411 0400     		.2byte	0x4
 3923 0413 F3       		.byte	0xf3
 3924 0414 01       		.uleb128 0x1
 3925 0415 52       		.byte	0x52
 3926 0416 9F       		.byte	0x9f
 3927 0417 9E000000 		.4byte	.LVL85
 3928 041b A9000000 		.4byte	.LVL87-1
 3929 041f 0100     		.2byte	0x1
 3930 0421 52       		.byte	0x52
 3931 0422 A9000000 		.4byte	.LVL87-1
 3932 0426 C0000000 		.4byte	.LFE135
 3933 042a 0400     		.2byte	0x4
 3934 042c F3       		.byte	0xf3
 3935 042d 01       		.uleb128 0x1
 3936 042e 52       		.byte	0x52
 3937 042f 9F       		.byte	0x9f
 3938 0430 00000000 		.4byte	0
 3939 0434 00000000 		.4byte	0
 3940              	.LLST38:
 3941 0438 00000000 		.4byte	.LVL82
 3942 043c 0C000000 		.4byte	.LVL83
 3943 0440 0100     		.2byte	0x1
 3944 0442 53       		.byte	0x53
 3945 0443 0C000000 		.4byte	.LVL83
 3946 0447 9E000000 		.4byte	.LVL85
 3947 044b 0400     		.2byte	0x4
 3948 044d F3       		.byte	0xf3
 3949 044e 01       		.uleb128 0x1
 3950 044f 53       		.byte	0x53
 3951 0450 9F       		.byte	0x9f
 3952 0451 9E000000 		.4byte	.LVL85
 3953 0455 A9000000 		.4byte	.LVL87-1
 3954 0459 0100     		.2byte	0x1
 3955 045b 53       		.byte	0x53
 3956 045c A9000000 		.4byte	.LVL87-1
ARM GAS  /tmp/cchGjec2.s 			page 71


 3957 0460 C0000000 		.4byte	.LFE135
 3958 0464 0400     		.2byte	0x4
 3959 0466 F3       		.byte	0xf3
 3960 0467 01       		.uleb128 0x1
 3961 0468 53       		.byte	0x53
 3962 0469 9F       		.byte	0x9f
 3963 046a 00000000 		.4byte	0
 3964 046e 00000000 		.4byte	0
 3965              	.LLST39:
 3966 0472 00000000 		.4byte	.LFB136
 3967 0476 02000000 		.4byte	.LCFI19
 3968 047a 0200     		.2byte	0x2
 3969 047c 7D       		.byte	0x7d
 3970 047d 00       		.sleb128 0
 3971 047e 02000000 		.4byte	.LCFI19
 3972 0482 7C000000 		.4byte	.LFE136
 3973 0486 0200     		.2byte	0x2
 3974 0488 7D       		.byte	0x7d
 3975 0489 10       		.sleb128 16
 3976 048a 00000000 		.4byte	0
 3977 048e 00000000 		.4byte	0
 3978              	.LLST40:
 3979 0492 00000000 		.4byte	.LVL88
 3980 0496 08000000 		.4byte	.LVL89
 3981 049a 0100     		.2byte	0x1
 3982 049c 50       		.byte	0x50
 3983 049d 08000000 		.4byte	.LVL89
 3984 04a1 68000000 		.4byte	.LVL92
 3985 04a5 0100     		.2byte	0x1
 3986 04a7 54       		.byte	0x54
 3987 04a8 68000000 		.4byte	.LVL92
 3988 04ac 6A000000 		.4byte	.LVL93
 3989 04b0 0100     		.2byte	0x1
 3990 04b2 50       		.byte	0x50
 3991 04b3 6A000000 		.4byte	.LVL93
 3992 04b7 7C000000 		.4byte	.LFE136
 3993 04bb 0100     		.2byte	0x1
 3994 04bd 54       		.byte	0x54
 3995 04be 00000000 		.4byte	0
 3996 04c2 00000000 		.4byte	0
 3997              		.section	.debug_aranges,"",%progbits
 3998 0000 AC000000 		.4byte	0xac
 3999 0004 0200     		.2byte	0x2
 4000 0006 00000000 		.4byte	.Ldebug_info0
 4001 000a 04       		.byte	0x4
 4002 000b 00       		.byte	0
 4003 000c 0000     		.2byte	0
 4004 000e 0000     		.2byte	0
 4005 0010 00000000 		.4byte	.LFB118
 4006 0014 34000000 		.4byte	.LFE118-.LFB118
 4007 0018 00000000 		.4byte	.LFB119
 4008 001c 38000000 		.4byte	.LFE119-.LFB119
 4009 0020 00000000 		.4byte	.LFB120
 4010 0024 38000000 		.4byte	.LFE120-.LFB120
 4011 0028 00000000 		.4byte	.LFB121
 4012 002c 38000000 		.4byte	.LFE121-.LFB121
 4013 0030 00000000 		.4byte	.LFB122
ARM GAS  /tmp/cchGjec2.s 			page 72


 4014 0034 34000000 		.4byte	.LFE122-.LFB122
 4015 0038 00000000 		.4byte	.LFB123
 4016 003c 38000000 		.4byte	.LFE123-.LFB123
 4017 0040 00000000 		.4byte	.LFB124
 4018 0044 38000000 		.4byte	.LFE124-.LFB124
 4019 0048 00000000 		.4byte	.LFB125
 4020 004c 38000000 		.4byte	.LFE125-.LFB125
 4021 0050 00000000 		.4byte	.LFB126
 4022 0054 34000000 		.4byte	.LFE126-.LFB126
 4023 0058 00000000 		.4byte	.LFB127
 4024 005c 38000000 		.4byte	.LFE127-.LFB127
 4025 0060 00000000 		.4byte	.LFB128
 4026 0064 38000000 		.4byte	.LFE128-.LFB128
 4027 0068 00000000 		.4byte	.LFB129
 4028 006c 38000000 		.4byte	.LFE129-.LFB129
 4029 0070 00000000 		.4byte	.LFB130
 4030 0074 34000000 		.4byte	.LFE130-.LFB130
 4031 0078 00000000 		.4byte	.LFB131
 4032 007c 38000000 		.4byte	.LFE131-.LFB131
 4033 0080 00000000 		.4byte	.LFB132
 4034 0084 38000000 		.4byte	.LFE132-.LFB132
 4035 0088 00000000 		.4byte	.LFB133
 4036 008c 38000000 		.4byte	.LFE133-.LFB133
 4037 0090 00000000 		.4byte	.LFB134
 4038 0094 4C000000 		.4byte	.LFE134-.LFB134
 4039 0098 00000000 		.4byte	.LFB135
 4040 009c C0000000 		.4byte	.LFE135-.LFB135
 4041 00a0 00000000 		.4byte	.LFB136
 4042 00a4 7C000000 		.4byte	.LFE136-.LFB136
 4043 00a8 00000000 		.4byte	0
 4044 00ac 00000000 		.4byte	0
 4045              		.section	.debug_ranges,"",%progbits
 4046              	.Ldebug_ranges0:
 4047 0000 00000000 		.4byte	.LFB118
 4048 0004 34000000 		.4byte	.LFE118
 4049 0008 00000000 		.4byte	.LFB119
 4050 000c 38000000 		.4byte	.LFE119
 4051 0010 00000000 		.4byte	.LFB120
 4052 0014 38000000 		.4byte	.LFE120
 4053 0018 00000000 		.4byte	.LFB121
 4054 001c 38000000 		.4byte	.LFE121
 4055 0020 00000000 		.4byte	.LFB122
 4056 0024 34000000 		.4byte	.LFE122
 4057 0028 00000000 		.4byte	.LFB123
 4058 002c 38000000 		.4byte	.LFE123
 4059 0030 00000000 		.4byte	.LFB124
 4060 0034 38000000 		.4byte	.LFE124
 4061 0038 00000000 		.4byte	.LFB125
 4062 003c 38000000 		.4byte	.LFE125
 4063 0040 00000000 		.4byte	.LFB126
 4064 0044 34000000 		.4byte	.LFE126
 4065 0048 00000000 		.4byte	.LFB127
 4066 004c 38000000 		.4byte	.LFE127
 4067 0050 00000000 		.4byte	.LFB128
 4068 0054 38000000 		.4byte	.LFE128
 4069 0058 00000000 		.4byte	.LFB129
 4070 005c 38000000 		.4byte	.LFE129
ARM GAS  /tmp/cchGjec2.s 			page 73


 4071 0060 00000000 		.4byte	.LFB130
 4072 0064 34000000 		.4byte	.LFE130
 4073 0068 00000000 		.4byte	.LFB131
 4074 006c 38000000 		.4byte	.LFE131
 4075 0070 00000000 		.4byte	.LFB132
 4076 0074 38000000 		.4byte	.LFE132
 4077 0078 00000000 		.4byte	.LFB133
 4078 007c 38000000 		.4byte	.LFE133
 4079 0080 00000000 		.4byte	.LFB134
 4080 0084 4C000000 		.4byte	.LFE134
 4081 0088 00000000 		.4byte	.LFB135
 4082 008c C0000000 		.4byte	.LFE135
 4083 0090 00000000 		.4byte	.LFB136
 4084 0094 7C000000 		.4byte	.LFE136
 4085 0098 00000000 		.4byte	0
 4086 009c 00000000 		.4byte	0
 4087              		.section	.debug_line,"",%progbits
 4088              	.Ldebug_line0:
 4089 0000 5B040000 		.section	.debug_str,"MS",%progbits,1
 4089      0200D201 
 4089      00000201 
 4089      FB0E0D00 
 4089      01010101 
 4090              	.LASF151:
 4091 0000 646D615F 		.ascii	"dma_isr_redir_t\000"
 4091      6973725F 
 4091      72656469 
 4091      725F7400 
 4092              	.LASF134:
 4093 0010 41504231 		.ascii	"APB1LPENR\000"
 4093      4C50454E 
 4093      5200
 4094              	.LASF43:
 4095 001a 43414E31 		.ascii	"CAN1_RX0_IRQn\000"
 4095      5F525830 
 4095      5F495251 
 4095      6E00
 4096              	.LASF24:
 4097 0028 5056445F 		.ascii	"PVD_IRQn\000"
 4097      4952516E 
 4097      00
 4098              	.LASF87:
 4099 0031 43414E32 		.ascii	"CAN2_RX0_IRQn\000"
 4099      5F525830 
 4099      5F495251 
 4099      6E00
 4100              	.LASF106:
 4101 003f 4D304152 		.ascii	"M0AR\000"
 4101      00
 4102              	.LASF183:
 4103 0044 63684462 		.ascii	"chDbgPanic\000"
 4103      6750616E 
 4103      696300
 4104              	.LASF92:
 4105 004f 444D4132 		.ascii	"DMA2_Stream6_IRQn\000"
 4105      5F537472 
 4105      65616D36 
ARM GAS  /tmp/cchGjec2.s 			page 74


 4105      5F495251 
 4105      6E00
 4106              	.LASF46:
 4107 0061 45585449 		.ascii	"EXTI9_5_IRQn\000"
 4107      395F355F 
 4107      4952516E 
 4107      00
 4108              	.LASF96:
 4109 006e 49324333 		.ascii	"I2C3_ER_IRQn\000"
 4109      5F45525F 
 4109      4952516E 
 4109      00
 4110              	.LASF109:
 4111 007b 4C495352 		.ascii	"LISR\000"
 4111      00
 4112              	.LASF54:
 4113 0080 49324331 		.ascii	"I2C1_EV_IRQn\000"
 4113      5F45565F 
 4113      4952516E 
 4113      00
 4114              	.LASF91:
 4115 008d 444D4132 		.ascii	"DMA2_Stream5_IRQn\000"
 4115      5F537472 
 4115      65616D35 
 4115      5F495251 
 4115      6E00
 4116              	.LASF165:
 4117 009f 56656374 		.ascii	"Vector130\000"
 4117      6F723133 
 4117      3000
 4118              	.LASF142:
 4119 00a9 73747265 		.ascii	"stream\000"
 4119      616D00
 4120              	.LASF44:
 4121 00b0 43414E31 		.ascii	"CAN1_RX1_IRQn\000"
 4121      5F525831 
 4121      5F495251 
 4121      6E00
 4122              	.LASF11:
 4123 00be 6C6F6E67 		.ascii	"long long unsigned int\000"
 4123      206C6F6E 
 4123      6720756E 
 4123      7369676E 
 4123      65642069 
 4124              	.LASF64:
 4125 00d5 5254435F 		.ascii	"RTC_Alarm_IRQn\000"
 4125      416C6172 
 4125      6D5F4952 
 4125      516E00
 4126              	.LASF146:
 4127 00e4 76656374 		.ascii	"vector\000"
 4127      6F7200
 4128              	.LASF178:
 4129 00eb 5F73746D 		.ascii	"_stm32_dma_streams\000"
 4129      33325F64 
 4129      6D615F73 
 4129      74726561 
ARM GAS  /tmp/cchGjec2.s 			page 75


 4129      6D7300
 4130              	.LASF57:
 4131 00fe 49324332 		.ascii	"I2C2_ER_IRQn\000"
 4131      5F45525F 
 4131      4952516E 
 4131      00
 4132              	.LASF53:
 4133 010b 54494D34 		.ascii	"TIM4_IRQn\000"
 4133      5F495251 
 4133      6E00
 4134              	.LASF26:
 4135 0115 5254435F 		.ascii	"RTC_WKUP_IRQn\000"
 4135      574B5550 
 4135      5F495251 
 4135      6E00
 4136              	.LASF23:
 4137 0123 57574447 		.ascii	"WWDG_IRQn\000"
 4137      5F495251 
 4137      6E00
 4138              	.LASF72:
 4139 012d 5344494F 		.ascii	"SDIO_IRQn\000"
 4139      5F495251 
 4139      6E00
 4140              	.LASF130:
 4141 0137 41484231 		.ascii	"AHB1LPENR\000"
 4141      4C50454E 
 4141      5200
 4142              	.LASF182:
 4143 0141 6E766963 		.ascii	"nvicEnableVector\000"
 4143      456E6162 
 4143      6C655665 
 4143      63746F72 
 4143      00
 4144              	.LASF69:
 4145 0152 54494D38 		.ascii	"TIM8_CC_IRQn\000"
 4145      5F43435F 
 4145      4952516E 
 4145      00
 4146              	.LASF186:
 4147 015f 2F686F6D 		.ascii	"/home/david/Projects/stm32/src/pressure_sensor\000"
 4147      652F6461 
 4147      7669642F 
 4147      50726F6A 
 4147      65637473 
 4148              	.LASF1:
 4149 018e 7369676E 		.ascii	"signed char\000"
 4149      65642063 
 4149      68617200 
 4150              	.LASF88:
 4151 019a 43414E32 		.ascii	"CAN2_RX1_IRQn\000"
 4151      5F525831 
 4151      5F495251 
 4151      6E00
 4152              	.LASF102:
 4153 01a8 43525950 		.ascii	"CRYP_IRQn\000"
 4153      5F495251 
 4153      6E00
ARM GAS  /tmp/cchGjec2.s 			page 76


 4154              	.LASF116:
 4155 01b2 41484231 		.ascii	"AHB1RSTR\000"
 4155      52535452 
 4155      00
 4156              	.LASF168:
 4157 01bb 56656374 		.ascii	"Vector158\000"
 4157      6F723135 
 4157      3800
 4158              	.LASF12:
 4159 01c5 626F6F6C 		.ascii	"bool_t\000"
 4159      5F7400
 4160              	.LASF189:
 4161 01cc 6E766963 		.ascii	"nvicDisableVector\000"
 4161      44697361 
 4161      626C6556 
 4161      6563746F 
 4161      7200
 4162              	.LASF170:
 4163 01de 646D6173 		.ascii	"dmastp\000"
 4163      747000
 4164              	.LASF7:
 4165 01e5 6C6F6E67 		.ascii	"long int\000"
 4165      20696E74 
 4165      00
 4166              	.LASF121:
 4167 01ee 41504232 		.ascii	"APB2RSTR\000"
 4167      52535452 
 4167      00
 4168              	.LASF39:
 4169 01f7 444D4131 		.ascii	"DMA1_Stream5_IRQn\000"
 4169      5F537472 
 4169      65616D35 
 4169      5F495251 
 4169      6E00
 4170              	.LASF172:
 4171 0209 66756E63 		.ascii	"func\000"
 4171      00
 4172              	.LASF10:
 4173 020e 6C6F6E67 		.ascii	"long long int\000"
 4173      206C6F6E 
 4173      6720696E 
 4173      7400
 4174              	.LASF85:
 4175 021c 4554485F 		.ascii	"ETH_WKUP_IRQn\000"
 4175      574B5550 
 4175      5F495251 
 4175      6E00
 4176              	.LASF8:
 4177 022a 75696E74 		.ascii	"uint32_t\000"
 4177      33325F74 
 4177      00
 4178              	.LASF77:
 4179 0233 54494D36 		.ascii	"TIM6_DAC_IRQn\000"
 4179      5F444143 
 4179      5F495251 
 4179      6E00
 4180              	.LASF114:
ARM GAS  /tmp/cchGjec2.s 			page 77


 4181 0241 504C4C43 		.ascii	"PLLCFGR\000"
 4181      46475200 
 4182              	.LASF75:
 4183 0249 55415254 		.ascii	"UART4_IRQn\000"
 4183      345F4952 
 4183      516E00
 4184              	.LASF65:
 4185 0254 4F54475F 		.ascii	"OTG_FS_WKUP_IRQn\000"
 4185      46535F57 
 4185      4B55505F 
 4185      4952516E 
 4185      00
 4186              	.LASF21:
 4187 0265 50656E64 		.ascii	"PendSV_IRQn\000"
 4187      53565F49 
 4187      52516E00 
 4188              	.LASF67:
 4189 0271 54494D38 		.ascii	"TIM8_UP_TIM13_IRQn\000"
 4189      5F55505F 
 4189      54494D31 
 4189      335F4952 
 4189      516E00
 4190              	.LASF117:
 4191 0284 41484232 		.ascii	"AHB2RSTR\000"
 4191      52535452 
 4191      00
 4192              	.LASF145:
 4193 028d 73656C66 		.ascii	"selfindex\000"
 4193      696E6465 
 4193      7800
 4194              	.LASF93:
 4195 0297 444D4132 		.ascii	"DMA2_Stream7_IRQn\000"
 4195      5F537472 
 4195      65616D37 
 4195      5F495251 
 4195      6E00
 4196              	.LASF123:
 4197 02a9 41484231 		.ascii	"AHB1ENR\000"
 4197      454E5200 
 4198              	.LASF113:
 4199 02b1 444D415F 		.ascii	"DMA_TypeDef\000"
 4199      54797065 
 4199      44656600 
 4200              	.LASF0:
 4201 02bd 756E7369 		.ascii	"unsigned int\000"
 4201      676E6564 
 4201      20696E74 
 4201      00
 4202              	.LASF166:
 4203 02ca 56656374 		.ascii	"Vector150\000"
 4203      6F723135 
 4203      3000
 4204              	.LASF37:
 4205 02d4 444D4131 		.ascii	"DMA1_Stream3_IRQn\000"
 4205      5F537472 
 4205      65616D33 
 4205      5F495251 
ARM GAS  /tmp/cchGjec2.s 			page 78


 4205      6E00
 4206              	.LASF40:
 4207 02e6 444D4131 		.ascii	"DMA1_Stream6_IRQn\000"
 4207      5F537472 
 4207      65616D36 
 4207      5F495251 
 4207      6E00
 4208              	.LASF167:
 4209 02f8 56656374 		.ascii	"Vector154\000"
 4209      6F723135 
 4209      3400
 4210              	.LASF16:
 4211 0302 4D656D6F 		.ascii	"MemoryManagement_IRQn\000"
 4211      72794D61 
 4211      6E616765 
 4211      6D656E74 
 4211      5F495251 
 4212              	.LASF148:
 4213 0318 73746D33 		.ascii	"stm32_dmaisr_t\000"
 4213      325F646D 
 4213      61697372 
 4213      5F7400
 4214              	.LASF95:
 4215 0327 49324333 		.ascii	"I2C3_EV_IRQn\000"
 4215      5F45565F 
 4215      4952516E 
 4215      00
 4216              	.LASF9:
 4217 0334 6C6F6E67 		.ascii	"long unsigned int\000"
 4217      20756E73 
 4217      69676E65 
 4217      6420696E 
 4217      7400
 4218              	.LASF141:
 4219 0346 5243435F 		.ascii	"RCC_TypeDef\000"
 4219      54797065 
 4219      44656600 
 4220              	.LASF181:
 4221 0352 5F706F72 		.ascii	"_port_irq_epilogue\000"
 4221      745F6972 
 4221      715F6570 
 4221      696C6F67 
 4221      756500
 4222              	.LASF144:
 4223 0365 69736869 		.ascii	"ishift\000"
 4223      667400
 4224              	.LASF160:
 4225 036c 56656374 		.ascii	"VectorFC\000"
 4225      6F724643 
 4225      00
 4226              	.LASF97:
 4227 0375 4F54475F 		.ascii	"OTG_HS_EP1_OUT_IRQn\000"
 4227      48535F45 
 4227      50315F4F 
 4227      55545F49 
 4227      52516E00 
 4228              	.LASF19:
ARM GAS  /tmp/cchGjec2.s 			page 79


 4229 0389 53564361 		.ascii	"SVCall_IRQn\000"
 4229      6C6C5F49 
 4229      52516E00 
 4230              	.LASF4:
 4231 0395 73686F72 		.ascii	"short unsigned int\000"
 4231      7420756E 
 4231      7369676E 
 4231      65642069 
 4231      6E7400
 4232              	.LASF81:
 4233 03a8 444D4132 		.ascii	"DMA2_Stream2_IRQn\000"
 4233      5F537472 
 4233      65616D32 
 4233      5F495251 
 4233      6E00
 4234              	.LASF140:
 4235 03ba 504C4C49 		.ascii	"PLLI2SCFGR\000"
 4235      32534346 
 4235      475200
 4236              	.LASF42:
 4237 03c5 43414E31 		.ascii	"CAN1_TX_IRQn\000"
 4237      5F54585F 
 4237      4952516E 
 4237      00
 4238              	.LASF118:
 4239 03d2 41484233 		.ascii	"AHB3RSTR\000"
 4239      52535452 
 4239      00
 4240              	.LASF63:
 4241 03db 45585449 		.ascii	"EXTI15_10_IRQn\000"
 4241      31355F31 
 4241      305F4952 
 4241      516E00
 4242              	.LASF58:
 4243 03ea 53504931 		.ascii	"SPI1_IRQn\000"
 4243      5F495251 
 4243      6E00
 4244              	.LASF35:
 4245 03f4 444D4131 		.ascii	"DMA1_Stream1_IRQn\000"
 4245      5F537472 
 4245      65616D31 
 4245      5F495251 
 4245      6E00
 4246              	.LASF171:
 4247 0406 7072696F 		.ascii	"priority\000"
 4247      72697479 
 4247      00
 4248              	.LASF110:
 4249 040f 48495352 		.ascii	"HISR\000"
 4249      00
 4250              	.LASF135:
 4251 0414 41504232 		.ascii	"APB2LPENR\000"
 4251      4C50454E 
 4251      5200
 4252              	.LASF66:
 4253 041e 54494D38 		.ascii	"TIM8_BRK_TIM12_IRQn\000"
 4253      5F42524B 
ARM GAS  /tmp/cchGjec2.s 			page 80


 4253      5F54494D 
 4253      31325F49 
 4253      52516E00 
 4254              	.LASF22:
 4255 0432 53797354 		.ascii	"SysTick_IRQn\000"
 4255      69636B5F 
 4255      4952516E 
 4255      00
 4256              	.LASF50:
 4257 043f 54494D31 		.ascii	"TIM1_CC_IRQn\000"
 4257      5F43435F 
 4257      4952516E 
 4257      00
 4258              	.LASF68:
 4259 044c 54494D38 		.ascii	"TIM8_TRG_COM_TIM14_IRQn\000"
 4259      5F545247 
 4259      5F434F4D 
 4259      5F54494D 
 4259      31345F49 
 4260              	.LASF187:
 4261 0464 4952516E 		.ascii	"IRQn\000"
 4261      00
 4262              	.LASF111:
 4263 0469 4C494643 		.ascii	"LIFCR\000"
 4263      5200
 4264              	.LASF13:
 4265 046f 73697A65 		.ascii	"sizetype\000"
 4265      74797065 
 4265      00
 4266              	.LASF84:
 4267 0478 4554485F 		.ascii	"ETH_IRQn\000"
 4267      4952516E 
 4267      00
 4268              	.LASF48:
 4269 0481 54494D31 		.ascii	"TIM1_UP_TIM10_IRQn\000"
 4269      5F55505F 
 4269      54494D31 
 4269      305F4952 
 4269      516E00
 4270              	.LASF82:
 4271 0494 444D4132 		.ascii	"DMA2_Stream3_IRQn\000"
 4271      5F537472 
 4271      65616D33 
 4271      5F495251 
 4271      6E00
 4272              	.LASF56:
 4273 04a6 49324332 		.ascii	"I2C2_EV_IRQn\000"
 4273      5F45565F 
 4273      4952516E 
 4273      00
 4274              	.LASF38:
 4275 04b3 444D4131 		.ascii	"DMA1_Stream4_IRQn\000"
 4275      5F537472 
 4275      65616D34 
 4275      5F495251 
 4275      6E00
 4276              	.LASF94:
ARM GAS  /tmp/cchGjec2.s 			page 81


 4277 04c5 55534152 		.ascii	"USART6_IRQn\000"
 4277      54365F49 
 4277      52516E00 
 4278              	.LASF173:
 4279 04d1 70617261 		.ascii	"param\000"
 4279      6D00
 4280              	.LASF73:
 4281 04d7 54494D35 		.ascii	"TIM5_IRQn\000"
 4281      5F495251 
 4281      6E00
 4282              	.LASF32:
 4283 04e1 45585449 		.ascii	"EXTI3_IRQn\000"
 4283      335F4952 
 4283      516E00
 4284              	.LASF59:
 4285 04ec 53504932 		.ascii	"SPI2_IRQn\000"
 4285      5F495251 
 4285      6E00
 4286              	.LASF36:
 4287 04f6 444D4131 		.ascii	"DMA1_Stream2_IRQn\000"
 4287      5F537472 
 4287      65616D32 
 4287      5F495251 
 4287      6E00
 4288              	.LASF86:
 4289 0508 43414E32 		.ascii	"CAN2_TX_IRQn\000"
 4289      5F54585F 
 4289      4952516E 
 4289      00
 4290              	.LASF131:
 4291 0515 41484232 		.ascii	"AHB2LPENR\000"
 4291      4C50454E 
 4291      5200
 4292              	.LASF149:
 4293 051f 646D615F 		.ascii	"dma_func\000"
 4293      66756E63 
 4293      00
 4294              	.LASF184:
 4295 0528 474E5520 		.ascii	"GNU C 4.7.2\000"
 4295      4320342E 
 4295      372E3200 
 4296              	.LASF120:
 4297 0534 41504231 		.ascii	"APB1RSTR\000"
 4297      52535452 
 4297      00
 4298              	.LASF100:
 4299 053d 4F54475F 		.ascii	"OTG_HS_IRQn\000"
 4299      48535F49 
 4299      52516E00 
 4300              	.LASF119:
 4301 0549 52455345 		.ascii	"RESERVED0\000"
 4301      52564544 
 4301      3000
 4302              	.LASF122:
 4303 0553 52455345 		.ascii	"RESERVED1\000"
 4303      52564544 
 4303      3100
ARM GAS  /tmp/cchGjec2.s 			page 82


 4304              	.LASF126:
 4305 055d 52455345 		.ascii	"RESERVED2\000"
 4305      52564544 
 4305      3200
 4306              	.LASF129:
 4307 0567 52455345 		.ascii	"RESERVED3\000"
 4307      52564544 
 4307      3300
 4308              	.LASF133:
 4309 0571 52455345 		.ascii	"RESERVED4\000"
 4309      52564544 
 4309      3400
 4310              	.LASF136:
 4311 057b 52455345 		.ascii	"RESERVED5\000"
 4311      52564544 
 4311      3500
 4312              	.LASF138:
 4313 0585 52455345 		.ascii	"RESERVED6\000"
 4313      52564544 
 4313      3600
 4314              	.LASF147:
 4315 058f 73746D33 		.ascii	"stm32_dma_stream_t\000"
 4315      325F646D 
 4315      615F7374 
 4315      7265616D 
 4315      5F7400
 4316              	.LASF74:
 4317 05a2 53504933 		.ascii	"SPI3_IRQn\000"
 4317      5F495251 
 4317      6E00
 4318              	.LASF152:
 4319 05ac 56656374 		.ascii	"Vector6C\000"
 4319      6F723643 
 4319      00
 4320              	.LASF83:
 4321 05b5 444D4132 		.ascii	"DMA2_Stream4_IRQn\000"
 4321      5F537472 
 4321      65616D34 
 4321      5F495251 
 4321      6E00
 4322              	.LASF71:
 4323 05c7 46534D43 		.ascii	"FSMC_IRQn\000"
 4323      5F495251 
 4323      6E00
 4324              	.LASF6:
 4325 05d1 696E7433 		.ascii	"int32_t\000"
 4325      325F7400 
 4326              	.LASF2:
 4327 05d9 756E7369 		.ascii	"unsigned char\000"
 4327      676E6564 
 4327      20636861 
 4327      7200
 4328              	.LASF47:
 4329 05e7 54494D31 		.ascii	"TIM1_BRK_TIM9_IRQn\000"
 4329      5F42524B 
 4329      5F54494D 
 4329      395F4952 
ARM GAS  /tmp/cchGjec2.s 			page 83


 4329      516E00
 4330              	.LASF177:
 4331 05fa 49544D5F 		.ascii	"ITM_RxBuffer\000"
 4331      52784275 
 4331      66666572 
 4331      00
 4332              	.LASF33:
 4333 0607 45585449 		.ascii	"EXTI4_IRQn\000"
 4333      345F4952 
 4333      516E00
 4334              	.LASF103:
 4335 0612 48415348 		.ascii	"HASH_RNG_IRQn\000"
 4335      5F524E47 
 4335      5F495251 
 4335      6E00
 4336              	.LASF3:
 4337 0620 73686F72 		.ascii	"short int\000"
 4337      7420696E 
 4337      7400
 4338              	.LASF132:
 4339 062a 41484233 		.ascii	"AHB3LPENR\000"
 4339      4C50454E 
 4339      5200
 4340              	.LASF76:
 4341 0634 55415254 		.ascii	"UART5_IRQn\000"
 4341      355F4952 
 4341      516E00
 4342              	.LASF49:
 4343 063f 54494D31 		.ascii	"TIM1_TRG_COM_TIM11_IRQn\000"
 4343      5F545247 
 4343      5F434F4D 
 4343      5F54494D 
 4343      31315F49 
 4344              	.LASF150:
 4345 0657 646D615F 		.ascii	"dma_param\000"
 4345      70617261 
 4345      6D00
 4346              	.LASF31:
 4347 0661 45585449 		.ascii	"EXTI2_IRQn\000"
 4347      325F4952 
 4347      516E00
 4348              	.LASF128:
 4349 066c 41504232 		.ascii	"APB2ENR\000"
 4349      454E5200 
 4350              	.LASF125:
 4351 0674 41484233 		.ascii	"AHB3ENR\000"
 4351      454E5200 
 4352              	.LASF27:
 4353 067c 464C4153 		.ascii	"FLASH_IRQn\000"
 4353      485F4952 
 4353      516E00
 4354              	.LASF143:
 4355 0687 69666372 		.ascii	"ifcr\000"
 4355      00
 4356              	.LASF153:
 4357 068c 56656374 		.ascii	"Vector70\000"
 4357      6F723730 
ARM GAS  /tmp/cchGjec2.s 			page 84


 4357      00
 4358              	.LASF90:
 4359 0695 4F54475F 		.ascii	"OTG_FS_IRQn\000"
 4359      46535F49 
 4359      52516E00 
 4360              	.LASF155:
 4361 06a1 56656374 		.ascii	"Vector74\000"
 4361      6F723734 
 4361      00
 4362              	.LASF61:
 4363 06aa 55534152 		.ascii	"USART2_IRQn\000"
 4363      54325F49 
 4363      52516E00 
 4364              	.LASF18:
 4365 06b6 55736167 		.ascii	"UsageFault_IRQn\000"
 4365      65466175 
 4365      6C745F49 
 4365      52516E00 
 4366              	.LASF156:
 4367 06c6 56656374 		.ascii	"Vector78\000"
 4367      6F723738 
 4367      00
 4368              	.LASF127:
 4369 06cf 41504231 		.ascii	"APB1ENR\000"
 4369      454E5200 
 4370              	.LASF169:
 4371 06d7 646D6149 		.ascii	"dmaInit\000"
 4371      6E697400 
 4372              	.LASF70:
 4373 06df 444D4131 		.ascii	"DMA1_Stream7_IRQn\000"
 4373      5F537472 
 4373      65616D37 
 4373      5F495251 
 4373      6E00
 4374              	.LASF14:
 4375 06f1 63686172 		.ascii	"char\000"
 4375      00
 4376              	.LASF174:
 4377 06f6 646D6153 		.ascii	"dmaStreamRelease\000"
 4377      74726561 
 4377      6D52656C 
 4377      65617365 
 4377      00
 4378              	.LASF157:
 4379 0707 56656374 		.ascii	"Vector7C\000"
 4379      6F723743 
 4379      00
 4380              	.LASF17:
 4381 0710 42757346 		.ascii	"BusFault_IRQn\000"
 4381      61756C74 
 4381      5F495251 
 4381      6E00
 4382              	.LASF78:
 4383 071e 54494D37 		.ascii	"TIM7_IRQn\000"
 4383      5F495251 
 4383      6E00
 4384              	.LASF98:
ARM GAS  /tmp/cchGjec2.s 			page 85


 4385 0728 4F54475F 		.ascii	"OTG_HS_EP1_IN_IRQn\000"
 4385      48535F45 
 4385      50315F49 
 4385      4E5F4952 
 4385      516E00
 4386              	.LASF15:
 4387 073b 4E6F6E4D 		.ascii	"NonMaskableInt_IRQn\000"
 4387      61736B61 
 4387      626C6549 
 4387      6E745F49 
 4387      52516E00 
 4388              	.LASF105:
 4389 074f 4E445452 		.ascii	"NDTR\000"
 4389      00
 4390              	.LASF108:
 4391 0754 444D415F 		.ascii	"DMA_Stream_TypeDef\000"
 4391      53747265 
 4391      616D5F54 
 4391      79706544 
 4391      656600
 4392              	.LASF124:
 4393 0767 41484232 		.ascii	"AHB2ENR\000"
 4393      454E5200 
 4394              	.LASF25:
 4395 076f 54414D50 		.ascii	"TAMP_STAMP_IRQn\000"
 4395      5F535441 
 4395      4D505F49 
 4395      52516E00 
 4396              	.LASF175:
 4397 077f 646D615F 		.ascii	"dma_streams_mask\000"
 4397      73747265 
 4397      616D735F 
 4397      6D61736B 
 4397      00
 4398              	.LASF180:
 4399 0790 6462675F 		.ascii	"dbg_check_leave_isr\000"
 4399      63686563 
 4399      6B5F6C65 
 4399      6176655F 
 4399      69737200 
 4400              	.LASF20:
 4401 07a4 44656275 		.ascii	"DebugMonitor_IRQn\000"
 4401      674D6F6E 
 4401      69746F72 
 4401      5F495251 
 4401      6E00
 4402              	.LASF79:
 4403 07b6 444D4132 		.ascii	"DMA2_Stream0_IRQn\000"
 4403      5F537472 
 4403      65616D30 
 4403      5F495251 
 4403      6E00
 4404              	.LASF107:
 4405 07c8 4D314152 		.ascii	"M1AR\000"
 4405      00
 4406              	.LASF158:
 4407 07cd 56656374 		.ascii	"Vector80\000"
ARM GAS  /tmp/cchGjec2.s 			page 86


 4407      6F723830 
 4407      00
 4408              	.LASF62:
 4409 07d6 55534152 		.ascii	"USART3_IRQn\000"
 4409      54335F49 
 4409      52516E00 
 4410              	.LASF139:
 4411 07e2 53534347 		.ascii	"SSCGR\000"
 4411      5200
 4412              	.LASF159:
 4413 07e8 56656374 		.ascii	"Vector84\000"
 4413      6F723834 
 4413      00
 4414              	.LASF51:
 4415 07f1 54494D32 		.ascii	"TIM2_IRQn\000"
 4415      5F495251 
 4415      6E00
 4416              	.LASF29:
 4417 07fb 45585449 		.ascii	"EXTI0_IRQn\000"
 4417      305F4952 
 4417      516E00
 4418              	.LASF185:
 4419 0806 2E2E2F2E 		.ascii	"../../ChibiOS/os/hal/platforms/STM32F4xx/stm32_dma."
 4419      2E2F4368 
 4419      6962694F 
 4419      532F6F73 
 4419      2F68616C 
 4420 0839 6300     		.ascii	"c\000"
 4421              	.LASF60:
 4422 083b 55534152 		.ascii	"USART1_IRQn\000"
 4422      54315F49 
 4422      52516E00 
 4423              	.LASF137:
 4424 0847 42444352 		.ascii	"BDCR\000"
 4424      00
 4425              	.LASF179:
 4426 084c 6462675F 		.ascii	"dbg_check_enter_isr\000"
 4426      63686563 
 4426      6B5F656E 
 4426      7465725F 
 4426      69737200 
 4427              	.LASF5:
 4428 0860 75696E74 		.ascii	"uint8_t\000"
 4428      385F7400 
 4429              	.LASF154:
 4430 0868 666C6167 		.ascii	"flags\000"
 4430      7300
 4431              	.LASF101:
 4432 086e 44434D49 		.ascii	"DCMI_IRQn\000"
 4432      5F495251 
 4432      6E00
 4433              	.LASF176:
 4434 0878 646D615F 		.ascii	"dma_isr_redir\000"
 4434      6973725F 
 4434      72656469 
 4434      7200
 4435              	.LASF161:
ARM GAS  /tmp/cchGjec2.s 			page 87


 4436 0886 56656374 		.ascii	"Vector120\000"
 4436      6F723132 
 4436      3000
 4437              	.LASF104:
 4438 0890 4650555F 		.ascii	"FPU_IRQn\000"
 4438      4952516E 
 4438      00
 4439              	.LASF115:
 4440 0899 43464752 		.ascii	"CFGR\000"
 4440      00
 4441              	.LASF162:
 4442 089e 56656374 		.ascii	"Vector124\000"
 4442      6F723132 
 4442      3400
 4443              	.LASF163:
 4444 08a8 56656374 		.ascii	"Vector128\000"
 4444      6F723132 
 4444      3800
 4445              	.LASF55:
 4446 08b2 49324331 		.ascii	"I2C1_ER_IRQn\000"
 4446      5F45525F 
 4446      4952516E 
 4446      00
 4447              	.LASF41:
 4448 08bf 4144435F 		.ascii	"ADC_IRQn\000"
 4448      4952516E 
 4448      00
 4449              	.LASF80:
 4450 08c8 444D4132 		.ascii	"DMA2_Stream1_IRQn\000"
 4450      5F537472 
 4450      65616D31 
 4450      5F495251 
 4450      6E00
 4451              	.LASF164:
 4452 08da 56656374 		.ascii	"Vector12C\000"
 4452      6F723132 
 4452      4300
 4453              	.LASF112:
 4454 08e4 48494643 		.ascii	"HIFCR\000"
 4454      5200
 4455              	.LASF45:
 4456 08ea 43414E31 		.ascii	"CAN1_SCE_IRQn\000"
 4456      5F534345 
 4456      5F495251 
 4456      6E00
 4457              	.LASF188:
 4458 08f8 646D6153 		.ascii	"dmaStreamAllocate\000"
 4458      74726561 
 4458      6D416C6C 
 4458      6F636174 
 4458      6500
 4459              	.LASF89:
 4460 090a 43414E32 		.ascii	"CAN2_SCE_IRQn\000"
 4460      5F534345 
 4460      5F495251 
 4460      6E00
 4461              	.LASF28:
ARM GAS  /tmp/cchGjec2.s 			page 88


 4462 0918 5243435F 		.ascii	"RCC_IRQn\000"
 4462      4952516E 
 4462      00
 4463              	.LASF99:
 4464 0921 4F54475F 		.ascii	"OTG_HS_WKUP_IRQn\000"
 4464      48535F57 
 4464      4B55505F 
 4464      4952516E 
 4464      00
 4465              	.LASF52:
 4466 0932 54494D33 		.ascii	"TIM3_IRQn\000"
 4466      5F495251 
 4466      6E00
 4467              	.LASF30:
 4468 093c 45585449 		.ascii	"EXTI1_IRQn\000"
 4468      315F4952 
 4468      516E00
 4469              	.LASF34:
 4470 0947 444D4131 		.ascii	"DMA1_Stream0_IRQn\000"
 4470      5F537472 
 4470      65616D30 
 4470      5F495251 
 4470      6E00
 4471              		.ident	"GCC: (crosstool-NG 1.17.0 - PSAS ST32F4 GFE) 4.7.2"
ARM GAS  /tmp/cchGjec2.s 			page 89


DEFINED SYMBOLS
                            *ABS*:0000000000000000 stm32_dma.c
     /tmp/cchGjec2.s:21     .text.Vector6C:0000000000000000 $t
     /tmp/cchGjec2.s:27     .text.Vector6C:0000000000000000 Vector6C
     /tmp/cchGjec2.s:76     .text.Vector6C:0000000000000030 $d
     /tmp/cchGjec2.s:81     .text.Vector70:0000000000000000 $t
     /tmp/cchGjec2.s:87     .text.Vector70:0000000000000000 Vector70
     /tmp/cchGjec2.s:137    .text.Vector70:0000000000000034 $d
     /tmp/cchGjec2.s:142    .text.Vector74:0000000000000000 $t
     /tmp/cchGjec2.s:148    .text.Vector74:0000000000000000 Vector74
     /tmp/cchGjec2.s:198    .text.Vector74:0000000000000034 $d
     /tmp/cchGjec2.s:203    .text.Vector78:0000000000000000 $t
     /tmp/cchGjec2.s:209    .text.Vector78:0000000000000000 Vector78
     /tmp/cchGjec2.s:259    .text.Vector78:0000000000000034 $d
     /tmp/cchGjec2.s:264    .text.Vector7C:0000000000000000 $t
     /tmp/cchGjec2.s:270    .text.Vector7C:0000000000000000 Vector7C
     /tmp/cchGjec2.s:318    .text.Vector7C:0000000000000030 $d
     /tmp/cchGjec2.s:323    .text.Vector80:0000000000000000 $t
     /tmp/cchGjec2.s:329    .text.Vector80:0000000000000000 Vector80
     /tmp/cchGjec2.s:379    .text.Vector80:0000000000000034 $d
     /tmp/cchGjec2.s:384    .text.Vector84:0000000000000000 $t
     /tmp/cchGjec2.s:390    .text.Vector84:0000000000000000 Vector84
     /tmp/cchGjec2.s:440    .text.Vector84:0000000000000034 $d
     /tmp/cchGjec2.s:445    .text.VectorFC:0000000000000000 $t
     /tmp/cchGjec2.s:451    .text.VectorFC:0000000000000000 VectorFC
     /tmp/cchGjec2.s:501    .text.VectorFC:0000000000000034 $d
     /tmp/cchGjec2.s:506    .text.Vector120:0000000000000000 $t
     /tmp/cchGjec2.s:512    .text.Vector120:0000000000000000 Vector120
     /tmp/cchGjec2.s:560    .text.Vector120:0000000000000030 $d
     /tmp/cchGjec2.s:565    .text.Vector124:0000000000000000 $t
     /tmp/cchGjec2.s:571    .text.Vector124:0000000000000000 Vector124
     /tmp/cchGjec2.s:621    .text.Vector124:0000000000000034 $d
     /tmp/cchGjec2.s:626    .text.Vector128:0000000000000000 $t
     /tmp/cchGjec2.s:632    .text.Vector128:0000000000000000 Vector128
     /tmp/cchGjec2.s:682    .text.Vector128:0000000000000034 $d
     /tmp/cchGjec2.s:687    .text.Vector12C:0000000000000000 $t
     /tmp/cchGjec2.s:693    .text.Vector12C:0000000000000000 Vector12C
     /tmp/cchGjec2.s:743    .text.Vector12C:0000000000000034 $d
     /tmp/cchGjec2.s:748    .text.Vector130:0000000000000000 $t
     /tmp/cchGjec2.s:754    .text.Vector130:0000000000000000 Vector130
     /tmp/cchGjec2.s:802    .text.Vector130:0000000000000030 $d
     /tmp/cchGjec2.s:807    .text.Vector150:0000000000000000 $t
     /tmp/cchGjec2.s:813    .text.Vector150:0000000000000000 Vector150
     /tmp/cchGjec2.s:863    .text.Vector150:0000000000000034 $d
     /tmp/cchGjec2.s:868    .text.Vector154:0000000000000000 $t
     /tmp/cchGjec2.s:874    .text.Vector154:0000000000000000 Vector154
     /tmp/cchGjec2.s:924    .text.Vector154:0000000000000034 $d
     /tmp/cchGjec2.s:929    .text.Vector158:0000000000000000 $t
     /tmp/cchGjec2.s:935    .text.Vector158:0000000000000000 Vector158
     /tmp/cchGjec2.s:985    .text.Vector158:0000000000000034 $d
     /tmp/cchGjec2.s:990    .text.dmaInit:0000000000000000 $t
     /tmp/cchGjec2.s:996    .text.dmaInit:0000000000000000 dmaInit
     /tmp/cchGjec2.s:1056   .text.dmaInit:0000000000000040 $d
     /tmp/cchGjec2.s:1063   .text.dmaStreamAllocate:0000000000000000 $t
     /tmp/cchGjec2.s:1069   .text.dmaStreamAllocate:0000000000000000 dmaStreamAllocate
     /tmp/cchGjec2.s:1197   .text.dmaStreamAllocate:00000000000000b4 $d
     /tmp/cchGjec2.s:1204   .text.dmaStreamRelease:0000000000000000 $t
ARM GAS  /tmp/cchGjec2.s 			page 90


     /tmp/cchGjec2.s:1210   .text.dmaStreamRelease:0000000000000000 dmaStreamRelease
     /tmp/cchGjec2.s:1290   .text.dmaStreamRelease:0000000000000070 $d
     /tmp/cchGjec2.s:1318   .rodata._stm32_dma_streams:0000000000000000 _stm32_dma_streams
     /tmp/cchGjec2.s:1298   .rodata.str1.4:0000000000000000 $d
     /tmp/cchGjec2.s:1307   .bss.dma_isr_redir:0000000000000000 $d
     /tmp/cchGjec2.s:1311   .bss.dma_isr_redir:0000000000000000 dma_isr_redir
     /tmp/cchGjec2.s:1314   .rodata._stm32_dma_streams:0000000000000000 $d
     /tmp/cchGjec2.s:1416   .bss.dma_streams_mask:0000000000000000 $d
     /tmp/cchGjec2.s:1420   .bss.dma_streams_mask:0000000000000000 dma_streams_mask
                     .debug_frame:0000000000000010 $d
     /tmp/cchGjec2.s:80     .text.Vector6C:0000000000000034 $t
     /tmp/cchGjec2.s:141    .text.Vector70:0000000000000038 $t
     /tmp/cchGjec2.s:202    .text.Vector74:0000000000000038 $t
     /tmp/cchGjec2.s:263    .text.Vector78:0000000000000038 $t
     /tmp/cchGjec2.s:322    .text.Vector7C:0000000000000034 $t
     /tmp/cchGjec2.s:383    .text.Vector80:0000000000000038 $t
     /tmp/cchGjec2.s:444    .text.Vector84:0000000000000038 $t
     /tmp/cchGjec2.s:505    .text.VectorFC:0000000000000038 $t
     /tmp/cchGjec2.s:564    .text.Vector120:0000000000000034 $t
     /tmp/cchGjec2.s:625    .text.Vector124:0000000000000038 $t
     /tmp/cchGjec2.s:686    .text.Vector128:0000000000000038 $t
     /tmp/cchGjec2.s:747    .text.Vector12C:0000000000000038 $t
     /tmp/cchGjec2.s:806    .text.Vector130:0000000000000034 $t
     /tmp/cchGjec2.s:867    .text.Vector150:0000000000000038 $t
     /tmp/cchGjec2.s:928    .text.Vector154:0000000000000038 $t
     /tmp/cchGjec2.s:989    .text.Vector158:0000000000000038 $t
     /tmp/cchGjec2.s:1062   .text.dmaInit:000000000000004c $t
     /tmp/cchGjec2.s:1297   .text.dmaStreamRelease:000000000000007c $t

UNDEFINED SYMBOLS
dbg_check_enter_isr
dbg_check_leave_isr
_port_irq_epilogue
nvicEnableVector
chDbgPanic
nvicDisableVector
