ARM GAS  /tmp/ccxnTNoi.s 			page 1


   1              		.syntax unified
   2              		.cpu cortex-m4
   3              		.eabi_attribute 27, 3
   4              		.eabi_attribute 28, 1
   5              		.fpu fpv4-sp-d16
   6              		.eabi_attribute 20, 1
   7              		.eabi_attribute 21, 1
   8              		.eabi_attribute 23, 3
   9              		.eabi_attribute 24, 1
  10              		.eabi_attribute 25, 1
  11              		.eabi_attribute 26, 1
  12              		.eabi_attribute 30, 2
  13              		.eabi_attribute 34, 1
  14              		.eabi_attribute 18, 4
  15              		.thumb
  16              		.file	"usb.c"
  17              		.text
  18              	.Ltext0:
  19              		.cfi_sections	.debug_frame
  20              		.section	.text.usbInit,"ax",%progbits
  21              		.align	2
  22              		.p2align 4,,15
  23              		.global	usbInit
  24              		.thumb
  25              		.thumb_func
  26              		.type	usbInit, %function
  27              	usbInit:
  28              	.LFB120:
  29              		.file 1 "../../ChibiOS/os/hal/src/usb.c"
  30              		.loc 1 228 0
  31              		.cfi_startproc
  32              		@ args = 0, pretend = 0, frame = 0
  33              		@ frame_needed = 0, uses_anonymous_args = 0
  34              		@ link register save eliminated.
  35              		.loc 1 231 0
  36              		.loc 1 230 0
  37 0000 FFF7FEBF 		b	usb_lld_init
  38              	.LVL0:
  39              		.cfi_endproc
  40              	.LFE120:
  41              		.size	usbInit, .-usbInit
  42 0004 AFF30080 		.section	.text.usbObjectInit,"ax",%progbits
  42      AFF30080 
  42      AFF30080 
  43              		.align	2
  44              		.p2align 4,,15
  45              		.global	usbObjectInit
  46              		.thumb
  47              		.thumb_func
  48              		.type	usbObjectInit, %function
  49              	usbObjectInit:
  50              	.LFB121:
  51              		.loc 1 240 0
  52              		.cfi_startproc
  53              		@ args = 0, pretend = 0, frame = 0
  54              		@ frame_needed = 0, uses_anonymous_args = 0
  55              		@ link register save eliminated.
ARM GAS  /tmp/ccxnTNoi.s 			page 2


  56              	.LVL1:
  57              		.loc 1 243 0
  58 0000 0023     		movs	r3, #0
  59              		.loc 1 242 0
  60 0002 0122     		movs	r2, #1
  61 0004 0270     		strb	r2, [r0, #0]
  62              		.loc 1 243 0
  63 0006 4360     		str	r3, [r0, #4]
  64              		.loc 1 244 0
  65 0008 8360     		str	r3, [r0, #8]
  66              		.loc 1 245 0
  67 000a 8381     		strh	r3, [r0, #12]	@ movhi
  68              		.loc 1 246 0
  69 000c C381     		strh	r3, [r0, #14]	@ movhi
  70 000e 7047     		bx	lr
  71              		.cfi_endproc
  72              	.LFE121:
  73              		.size	usbObjectInit, .-usbObjectInit
  74              		.section	.text.usbStart,"ax",%progbits
  75              		.align	2
  76              		.p2align 4,,15
  77              		.global	usbStart
  78              		.thumb
  79              		.thumb_func
  80              		.type	usbStart, %function
  81              	usbStart:
  82              	.LFB122:
  83              		.loc 1 257 0
  84              		.cfi_startproc
  85              		@ args = 0, pretend = 0, frame = 0
  86              		@ frame_needed = 0, uses_anonymous_args = 0
  87              	.LVL2:
  88              		.loc 1 260 0
  89 0000 0028     		cmp	r0, #0
  90 0002 18BF     		it	ne
  91 0004 0029     		cmpne	r1, #0
  92              		.loc 1 257 0
  93 0006 70B5     		push	{r4, r5, r6, lr}
  94              	.LCFI0:
  95              		.cfi_def_cfa_offset 16
  96              		.cfi_offset 4, -16
  97              		.cfi_offset 5, -12
  98              		.cfi_offset 6, -8
  99              		.cfi_offset 14, -4
 100              		.loc 1 260 0
 101 0008 0E46     		mov	r6, r1
 102 000a 0446     		mov	r4, r0
 103 000c 1CD0     		beq	.L10
 104              	.LVL3:
 105              	.L4:
 106              	.LBB2:
 107              		.loc 1 262 0
 108 000e 2023     		movs	r3, #32
 109              	.LVL4:
 110              	@ 262 "../../ChibiOS/os/hal/src/usb.c" 1
 111 0010 83F31188 		msr     BASEPRI, r3
 112              	@ 0 "" 2
ARM GAS  /tmp/ccxnTNoi.s 			page 3


 113              	.LVL5:
 114              		.thumb
 115              	.LBE2:
 116 0014 FFF7FEFF 		bl	dbg_check_lock
 117              	.LVL6:
 118              		.loc 1 263 0
 119 0018 2378     		ldrb	r3, [r4, #0]	@ zero_extendqisi2
 120 001a 013B     		subs	r3, r3, #1
 121 001c 012B     		cmp	r3, #1
 122 001e 02D9     		bls	.L5
 123              		.loc 1 263 0 is_stmt 0 discriminator 1
 124 0020 0B48     		ldr	r0, .L11
 125 0022 FFF7FEFF 		bl	chDbgPanic
 126              	.LVL7:
 127              	.L5:
 128              		.loc 1 267 0 is_stmt 1
 129 0026 0025     		movs	r5, #0
 130              		.loc 1 268 0
 131 0028 2046     		mov	r0, r4
 132              		.loc 1 265 0
 133 002a 6660     		str	r6, [r4, #4]
 134              	.LVL8:
 135              		.loc 1 267 0
 136 002c 2561     		str	r5, [r4, #16]
 137              	.LVL9:
 138 002e 6561     		str	r5, [r4, #20]
 139              	.LVL10:
 140 0030 A561     		str	r5, [r4, #24]
 141              	.LVL11:
 142 0032 E561     		str	r5, [r4, #28]
 143              	.LVL12:
 144              		.loc 1 268 0
 145 0034 FFF7FEFF 		bl	usb_lld_start
 146              	.LVL13:
 147              		.loc 1 269 0
 148 0038 0223     		movs	r3, #2
 149 003a 2370     		strb	r3, [r4, #0]
 150              		.loc 1 270 0
 151 003c FFF7FEFF 		bl	dbg_check_unlock
 152              	.LVL14:
 153              	.LBB3:
 154 0040 2B46     		mov	r3, r5
 155              	.LVL15:
 156              	@ 270 "../../ChibiOS/os/hal/src/usb.c" 1
 157 0042 83F31188 		msr     BASEPRI, r3
 158              	@ 0 "" 2
 159              	.LVL16:
 160              		.thumb
 161 0046 70BD     		pop	{r4, r5, r6, pc}
 162              	.LVL17:
 163              	.L10:
 164              	.LBE3:
 165              		.loc 1 260 0 discriminator 1
 166 0048 0248     		ldr	r0, .L11+4
 167              	.LVL18:
 168 004a FFF7FEFF 		bl	chDbgPanic
 169              	.LVL19:
ARM GAS  /tmp/ccxnTNoi.s 			page 4


 170 004e DEE7     		b	.L4
 171              	.L12:
 172              		.align	2
 173              	.L11:
 174 0050 10000000 		.word	.LC1
 175 0054 00000000 		.word	.LC0
 176              		.cfi_endproc
 177              	.LFE122:
 178              		.size	usbStart, .-usbStart
 179 0058 AFF30080 		.section	.text.usbStop,"ax",%progbits
 179      AFF30080 
 180              		.align	2
 181              		.p2align 4,,15
 182              		.global	usbStop
 183              		.thumb
 184              		.thumb_func
 185              		.type	usbStop, %function
 186              	usbStop:
 187              	.LFB123:
 188              		.loc 1 280 0
 189              		.cfi_startproc
 190              		@ args = 0, pretend = 0, frame = 0
 191              		@ frame_needed = 0, uses_anonymous_args = 0
 192              	.LVL20:
 193 0000 10B5     		push	{r4, lr}
 194              	.LCFI1:
 195              		.cfi_def_cfa_offset 8
 196              		.cfi_offset 4, -8
 197              		.cfi_offset 14, -4
 198              		.loc 1 282 0
 199 0002 0446     		mov	r4, r0
 200 0004 B0B1     		cbz	r0, .L16
 201              	.LVL21:
 202              	.L14:
 203              	.LBB4:
 204              		.loc 1 284 0
 205 0006 2023     		movs	r3, #32
 206              	.LVL22:
 207              	@ 284 "../../ChibiOS/os/hal/src/usb.c" 1
 208 0008 83F31188 		msr     BASEPRI, r3
 209              	@ 0 "" 2
 210              	.LVL23:
 211              		.thumb
 212              	.LBE4:
 213 000c FFF7FEFF 		bl	dbg_check_lock
 214              	.LVL24:
 215              		.loc 1 285 0
 216 0010 2378     		ldrb	r3, [r4, #0]	@ zero_extendqisi2
 217 0012 013B     		subs	r3, r3, #1
 218 0014 012B     		cmp	r3, #1
 219 0016 02D9     		bls	.L15
 220              		.loc 1 285 0 is_stmt 0 discriminator 1
 221 0018 0848     		ldr	r0, .L17
 222 001a FFF7FEFF 		bl	chDbgPanic
 223              	.LVL25:
 224              	.L15:
 225              		.loc 1 287 0 is_stmt 1
ARM GAS  /tmp/ccxnTNoi.s 			page 5


 226 001e 2046     		mov	r0, r4
 227 0020 FFF7FEFF 		bl	usb_lld_stop
 228              	.LVL26:
 229              		.loc 1 288 0
 230 0024 0123     		movs	r3, #1
 231 0026 2370     		strb	r3, [r4, #0]
 232              		.loc 1 289 0
 233 0028 FFF7FEFF 		bl	dbg_check_unlock
 234              	.LVL27:
 235              	.LBB5:
 236 002c 0023     		movs	r3, #0
 237              	.LVL28:
 238              	@ 289 "../../ChibiOS/os/hal/src/usb.c" 1
 239 002e 83F31188 		msr     BASEPRI, r3
 240              	@ 0 "" 2
 241              	.LVL29:
 242              		.thumb
 243 0032 10BD     		pop	{r4, pc}
 244              	.LVL30:
 245              	.L16:
 246              	.LBE5:
 247              		.loc 1 282 0 discriminator 1
 248 0034 0248     		ldr	r0, .L17+4
 249              	.LVL31:
 250 0036 FFF7FEFF 		bl	chDbgPanic
 251              	.LVL32:
 252 003a E4E7     		b	.L14
 253              	.L18:
 254              		.align	2
 255              	.L17:
 256 003c 2C000000 		.word	.LC3
 257 0040 20000000 		.word	.LC2
 258              		.cfi_endproc
 259              	.LFE123:
 260              		.size	usbStop, .-usbStop
 261 0044 AFF30080 		.section	.text.usbInitEndpointI,"ax",%progbits
 261      AFF30080 
 261      AFF30080 
 262              		.align	2
 263              		.p2align 4,,15
 264              		.global	usbInitEndpointI
 265              		.thumb
 266              		.thumb_func
 267              		.type	usbInitEndpointI, %function
 268              	usbInitEndpointI:
 269              	.LFB124:
 270              		.loc 1 306 0
 271              		.cfi_startproc
 272              		@ args = 0, pretend = 0, frame = 0
 273              		@ frame_needed = 0, uses_anonymous_args = 0
 274              	.LVL33:
 275 0000 F8B5     		push	{r3, r4, r5, r6, r7, lr}
 276              	.LCFI2:
 277              		.cfi_def_cfa_offset 24
 278              		.cfi_offset 3, -24
 279              		.cfi_offset 4, -20
 280              		.cfi_offset 5, -16
ARM GAS  /tmp/ccxnTNoi.s 			page 6


 281              		.cfi_offset 6, -12
 282              		.cfi_offset 7, -8
 283              		.cfi_offset 14, -4
 284              		.loc 1 306 0
 285 0002 0446     		mov	r4, r0
 286 0004 1546     		mov	r5, r2
 287 0006 0E46     		mov	r6, r1
 288              		.loc 1 308 0
 289 0008 FFF7FEFF 		bl	chDbgCheckClassI
 290              	.LVL34:
 291              		.loc 1 309 0
 292 000c 002C     		cmp	r4, #0
 293 000e 18BF     		it	ne
 294 0010 002D     		cmpne	r5, #0
 295 0012 20D0     		beq	.L40
 296              	.L20:
 297              		.loc 1 310 0
 298 0014 2378     		ldrb	r3, [r4, #0]	@ zero_extendqisi2
 299 0016 042B     		cmp	r3, #4
 300 0018 02D0     		beq	.L21
 301              		.loc 1 310 0 is_stmt 0 discriminator 1
 302 001a 1148     		ldr	r0, .L41
 303 001c FFF7FEFF 		bl	chDbgPanic
 304              	.LVL35:
 305              	.L21:
 306              		.loc 1 312 0 is_stmt 1
 307 0020 371D     		adds	r7, r6, #4
 308 0022 54F82730 		ldr	r3, [r4, r7, lsl #2]
 309 0026 13B1     		cbz	r3, .L22
 310              		.loc 1 312 0 is_stmt 0 discriminator 1
 311 0028 0E48     		ldr	r0, .L41+4
 312 002a FFF7FEFF 		bl	chDbgPanic
 313              	.LVL36:
 314              	.L22:
 315              		.loc 1 316 0 is_stmt 1
 316 002e 6869     		ldr	r0, [r5, #20]
 317 0030 18B1     		cbz	r0, .L23
 318              		.loc 1 317 0
 319 0032 0021     		movs	r1, #0
 320 0034 1022     		movs	r2, #16
 321 0036 FFF7FEFF 		bl	memset
 322              	.LVL37:
 323              	.L23:
 324              		.loc 1 318 0
 325 003a A869     		ldr	r0, [r5, #24]
 326 003c 18B1     		cbz	r0, .L24
 327              		.loc 1 319 0
 328 003e 0021     		movs	r1, #0
 329 0040 1022     		movs	r2, #16
 330 0042 FFF7FEFF 		bl	memset
 331              	.LVL38:
 332              	.L24:
 333              		.loc 1 324 0
 334 0046 2046     		mov	r0, r4
 335 0048 3146     		mov	r1, r6
 336              		.loc 1 321 0
 337 004a 44F82750 		str	r5, [r4, r7, lsl #2]
ARM GAS  /tmp/ccxnTNoi.s 			page 7


 338              		.loc 1 325 0
 339 004e BDE8F840 		pop	{r3, r4, r5, r6, r7, lr}
 340              		.loc 1 324 0
 341 0052 FFF7FEBF 		b	usb_lld_init_endpoint
 342              	.LVL39:
 343              	.L40:
 344              		.loc 1 309 0 discriminator 1
 345 0056 0448     		ldr	r0, .L41+8
 346 0058 FFF7FEFF 		bl	chDbgPanic
 347              	.LVL40:
 348 005c DAE7     		b	.L20
 349              	.L42:
 350 005e 00BF     		.align	2
 351              	.L41:
 352 0060 54000000 		.word	.LC5
 353 0064 70000000 		.word	.LC6
 354 0068 3C000000 		.word	.LC4
 355              		.cfi_endproc
 356              	.LFE124:
 357              		.size	usbInitEndpointI, .-usbInitEndpointI
 358 006c AFF30080 		.section	.text.usbDisableEndpointsI,"ax",%progbits
 359              		.align	2
 360              		.p2align 4,,15
 361              		.global	usbDisableEndpointsI
 362              		.thumb
 363              		.thumb_func
 364              		.type	usbDisableEndpointsI, %function
 365              	usbDisableEndpointsI:
 366              	.LFB125:
 367              		.loc 1 338 0
 368              		.cfi_startproc
 369              		@ args = 0, pretend = 0, frame = 0
 370              		@ frame_needed = 0, uses_anonymous_args = 0
 371              	.LVL41:
 372 0000 10B5     		push	{r4, lr}
 373              	.LCFI3:
 374              		.cfi_def_cfa_offset 8
 375              		.cfi_offset 4, -8
 376              		.cfi_offset 14, -4
 377              		.loc 1 338 0
 378 0002 0446     		mov	r4, r0
 379              		.loc 1 341 0
 380 0004 FFF7FEFF 		bl	chDbgCheckClassI
 381              	.LVL42:
 382              		.loc 1 342 0
 383 0008 B4B1     		cbz	r4, .L49
 384              	.L44:
 385              		.loc 1 343 0
 386 000a 2378     		ldrb	r3, [r4, #0]	@ zero_extendqisi2
 387 000c 032B     		cmp	r3, #3
 388 000e 02D0     		beq	.L45
 389              		.loc 1 343 0 is_stmt 0 discriminator 1
 390 0010 0B48     		ldr	r0, .L50
 391 0012 FFF7FEFF 		bl	chDbgPanic
 392              	.LVL43:
 393              	.L45:
 394              		.loc 1 346 0 is_stmt 1
ARM GAS  /tmp/ccxnTNoi.s 			page 8


 395 0016 A189     		ldrh	r1, [r4, #12]
 396              		.loc 1 347 0
 397 0018 E289     		ldrh	r2, [r4, #14]
 398              		.loc 1 349 0
 399 001a 0023     		movs	r3, #0
 400              		.loc 1 346 0
 401 001c 21F00101 		bic	r1, r1, #1
 402              		.loc 1 347 0
 403 0020 22F00102 		bic	r2, r2, #1
 404              		.loc 1 352 0
 405 0024 2046     		mov	r0, r4
 406              		.loc 1 346 0
 407 0026 A181     		strh	r1, [r4, #12]	@ movhi
 408              		.loc 1 347 0
 409 0028 E281     		strh	r2, [r4, #14]	@ movhi
 410              	.LVL44:
 411              		.loc 1 349 0
 412 002a 6361     		str	r3, [r4, #20]
 413              	.LVL45:
 414 002c A361     		str	r3, [r4, #24]
 415              	.LVL46:
 416 002e E361     		str	r3, [r4, #28]
 417              	.LVL47:
 418              		.loc 1 353 0
 419 0030 BDE81040 		pop	{r4, lr}
 420              		.loc 1 352 0
 421 0034 FFF7FEBF 		b	usb_lld_disable_endpoints
 422              	.LVL48:
 423              	.L49:
 424              		.loc 1 342 0 discriminator 1
 425 0038 0248     		ldr	r0, .L50+4
 426 003a FFF7FEFF 		bl	chDbgPanic
 427              	.LVL49:
 428 003e E4E7     		b	.L44
 429              	.L51:
 430              		.align	2
 431              	.L50:
 432 0040 A8000000 		.word	.LC8
 433 0044 8C000000 		.word	.LC7
 434              		.cfi_endproc
 435              	.LFE125:
 436              		.size	usbDisableEndpointsI, .-usbDisableEndpointsI
 437 0048 AFF30080 		.section	.text.usbPrepareReceive,"ax",%progbits
 437      AFF30080 
 438              		.align	2
 439              		.p2align 4,,15
 440              		.global	usbPrepareReceive
 441              		.thumb
 442              		.thumb_func
 443              		.type	usbPrepareReceive, %function
 444              	usbPrepareReceive:
 445              	.LFB126:
 446              		.loc 1 367 0
 447              		.cfi_startproc
 448              		@ args = 0, pretend = 0, frame = 0
 449              		@ frame_needed = 0, uses_anonymous_args = 0
 450              		@ link register save eliminated.
ARM GAS  /tmp/ccxnTNoi.s 			page 9


 451              	.LVL50:
 452 0000 30B4     		push	{r4, r5}
 453              	.LCFI4:
 454              		.cfi_def_cfa_offset 8
 455              		.cfi_offset 4, -8
 456              		.cfi_offset 5, -4
 457              		.loc 1 368 0
 458 0002 0C1D     		adds	r4, r1, #4
 459              		.loc 1 370 0
 460 0004 0025     		movs	r5, #0
 461              		.loc 1 368 0
 462 0006 50F82440 		ldr	r4, [r0, r4, lsl #2]
 463 000a A469     		ldr	r4, [r4, #24]
 464              	.LVL51:
 465              		.loc 1 370 0
 466 000c 2560     		str	r5, [r4, #0]
 467              		.loc 1 371 0
 468 000e E260     		str	r2, [r4, #12]
 469              		.loc 1 372 0
 470 0010 6360     		str	r3, [r4, #4]
 471              		.loc 1 373 0
 472 0012 A560     		str	r5, [r4, #8]
 473              		.loc 1 376 0
 474 0014 30BC     		pop	{r4, r5}
 475              		.loc 1 375 0
 476 0016 FFF7FEBF 		b	usb_lld_prepare_receive
 477              	.LVL52:
 478              		.cfi_endproc
 479              	.LFE126:
 480              		.size	usbPrepareReceive, .-usbPrepareReceive
 481 001a 00BFAFF3 		.section	.text.usbPrepareTransmit,"ax",%progbits
 481      0080
 482              		.align	2
 483              		.p2align 4,,15
 484              		.global	usbPrepareTransmit
 485              		.thumb
 486              		.thumb_func
 487              		.type	usbPrepareTransmit, %function
 488              	usbPrepareTransmit:
 489              	.LFB127:
 490              		.loc 1 393 0
 491              		.cfi_startproc
 492              		@ args = 0, pretend = 0, frame = 0
 493              		@ frame_needed = 0, uses_anonymous_args = 0
 494              		@ link register save eliminated.
 495              	.LVL53:
 496 0000 30B4     		push	{r4, r5}
 497              	.LCFI5:
 498              		.cfi_def_cfa_offset 8
 499              		.cfi_offset 4, -8
 500              		.cfi_offset 5, -4
 501              		.loc 1 394 0
 502 0002 0C1D     		adds	r4, r1, #4
 503              		.loc 1 396 0
 504 0004 0025     		movs	r5, #0
 505              		.loc 1 394 0
 506 0006 50F82440 		ldr	r4, [r0, r4, lsl #2]
ARM GAS  /tmp/ccxnTNoi.s 			page 10


 507 000a 6469     		ldr	r4, [r4, #20]
 508              	.LVL54:
 509              		.loc 1 396 0
 510 000c 2560     		str	r5, [r4, #0]
 511              		.loc 1 397 0
 512 000e E260     		str	r2, [r4, #12]
 513              		.loc 1 398 0
 514 0010 6360     		str	r3, [r4, #4]
 515              		.loc 1 399 0
 516 0012 A560     		str	r5, [r4, #8]
 517              		.loc 1 402 0
 518 0014 30BC     		pop	{r4, r5}
 519              		.loc 1 401 0
 520 0016 FFF7FEBF 		b	usb_lld_prepare_transmit
 521              	.LVL55:
 522              		.cfi_endproc
 523              	.LFE127:
 524              		.size	usbPrepareTransmit, .-usbPrepareTransmit
 525 001a 00BFAFF3 		.section	.text.usbPrepareQueuedReceive,"ax",%progbits
 525      0080
 526              		.align	2
 527              		.p2align 4,,15
 528              		.global	usbPrepareQueuedReceive
 529              		.thumb
 530              		.thumb_func
 531              		.type	usbPrepareQueuedReceive, %function
 532              	usbPrepareQueuedReceive:
 533              	.LFB128:
 534              		.loc 1 422 0
 535              		.cfi_startproc
 536              		@ args = 0, pretend = 0, frame = 0
 537              		@ frame_needed = 0, uses_anonymous_args = 0
 538              		@ link register save eliminated.
 539              	.LVL56:
 540 0000 30B4     		push	{r4, r5}
 541              	.LCFI6:
 542              		.cfi_def_cfa_offset 8
 543              		.cfi_offset 4, -8
 544              		.cfi_offset 5, -4
 545              		.loc 1 423 0
 546 0002 0C1D     		adds	r4, r1, #4
 547              		.loc 1 425 0
 548 0004 0125     		movs	r5, #1
 549              		.loc 1 423 0
 550 0006 50F82440 		ldr	r4, [r0, r4, lsl #2]
 551 000a A469     		ldr	r4, [r4, #24]
 552              	.LVL57:
 553              		.loc 1 427 0
 554 000c 6360     		str	r3, [r4, #4]
 555              		.loc 1 428 0
 556 000e 0023     		movs	r3, #0
 557              	.LVL58:
 558              		.loc 1 425 0
 559 0010 2560     		str	r5, [r4, #0]
 560              		.loc 1 426 0
 561 0012 E260     		str	r2, [r4, #12]
 562              		.loc 1 428 0
ARM GAS  /tmp/ccxnTNoi.s 			page 11


 563 0014 A360     		str	r3, [r4, #8]
 564              		.loc 1 431 0
 565 0016 30BC     		pop	{r4, r5}
 566              		.loc 1 430 0
 567 0018 FFF7FEBF 		b	usb_lld_prepare_receive
 568              	.LVL59:
 569              		.cfi_endproc
 570              	.LFE128:
 571              		.size	usbPrepareQueuedReceive, .-usbPrepareQueuedReceive
 572 001c AFF30080 		.section	.text.usbPrepareQueuedTransmit,"ax",%progbits
 573              		.align	2
 574              		.p2align 4,,15
 575              		.global	usbPrepareQueuedTransmit
 576              		.thumb
 577              		.thumb_func
 578              		.type	usbPrepareQueuedTransmit, %function
 579              	usbPrepareQueuedTransmit:
 580              	.LFB129:
 581              		.loc 1 448 0
 582              		.cfi_startproc
 583              		@ args = 0, pretend = 0, frame = 0
 584              		@ frame_needed = 0, uses_anonymous_args = 0
 585              		@ link register save eliminated.
 586              	.LVL60:
 587 0000 30B4     		push	{r4, r5}
 588              	.LCFI7:
 589              		.cfi_def_cfa_offset 8
 590              		.cfi_offset 4, -8
 591              		.cfi_offset 5, -4
 592              		.loc 1 449 0
 593 0002 0C1D     		adds	r4, r1, #4
 594              		.loc 1 451 0
 595 0004 0125     		movs	r5, #1
 596              		.loc 1 449 0
 597 0006 50F82440 		ldr	r4, [r0, r4, lsl #2]
 598 000a 6469     		ldr	r4, [r4, #20]
 599              	.LVL61:
 600              		.loc 1 453 0
 601 000c 6360     		str	r3, [r4, #4]
 602              		.loc 1 454 0
 603 000e 0023     		movs	r3, #0
 604              	.LVL62:
 605              		.loc 1 451 0
 606 0010 2560     		str	r5, [r4, #0]
 607              		.loc 1 452 0
 608 0012 E260     		str	r2, [r4, #12]
 609              		.loc 1 454 0
 610 0014 A360     		str	r3, [r4, #8]
 611              		.loc 1 457 0
 612 0016 30BC     		pop	{r4, r5}
 613              		.loc 1 456 0
 614 0018 FFF7FEBF 		b	usb_lld_prepare_transmit
 615              	.LVL63:
 616              		.cfi_endproc
 617              	.LFE129:
 618              		.size	usbPrepareQueuedTransmit, .-usbPrepareQueuedTransmit
 619 001c AFF30080 		.section	.text.usbStartReceiveI,"ax",%progbits
ARM GAS  /tmp/ccxnTNoi.s 			page 12


 620              		.align	2
 621              		.p2align 4,,15
 622              		.global	usbStartReceiveI
 623              		.thumb
 624              		.thumb_func
 625              		.type	usbStartReceiveI, %function
 626              	usbStartReceiveI:
 627              	.LFB130:
 628              		.loc 1 473 0
 629              		.cfi_startproc
 630              		@ args = 0, pretend = 0, frame = 0
 631              		@ frame_needed = 0, uses_anonymous_args = 0
 632              	.LVL64:
 633 0000 70B5     		push	{r4, r5, r6, lr}
 634              	.LCFI8:
 635              		.cfi_def_cfa_offset 16
 636              		.cfi_offset 4, -16
 637              		.cfi_offset 5, -12
 638              		.cfi_offset 6, -8
 639              		.cfi_offset 14, -4
 640              		.loc 1 473 0
 641 0002 0446     		mov	r4, r0
 642 0004 0D46     		mov	r5, r1
 643              		.loc 1 475 0
 644 0006 FFF7FEFF 		bl	chDbgCheckClassI
 645              	.LVL65:
 646              		.loc 1 476 0
 647 000a 94B1     		cbz	r4, .L60
 648              	.L57:
 649              		.loc 1 478 0
 650 000c E389     		ldrh	r3, [r4, #14]
 651 000e 43FA05F0 		asr	r0, r3, r5
 652 0012 10F00106 		ands	r6, r0, #1
 653 0016 01D0     		beq	.L61
 654              		.loc 1 479 0
 655 0018 0120     		movs	r0, #1
 656              		.loc 1 484 0
 657 001a 70BD     		pop	{r4, r5, r6, pc}
 658              	.L61:
 659              		.loc 1 481 0
 660 001c 0122     		movs	r2, #1
 661 001e 02FA05F2 		lsl	r2, r2, r5
 662 0022 1343     		orrs	r3, r3, r2
 663              		.loc 1 482 0
 664 0024 2046     		mov	r0, r4
 665              		.loc 1 481 0
 666 0026 E381     		strh	r3, [r4, #14]	@ movhi
 667              		.loc 1 482 0
 668 0028 2946     		mov	r1, r5
 669 002a FFF7FEFF 		bl	usb_lld_start_out
 670              	.LVL66:
 671              		.loc 1 483 0
 672 002e 3046     		mov	r0, r6
 673 0030 70BD     		pop	{r4, r5, r6, pc}
 674              	.L60:
 675              		.loc 1 476 0 discriminator 1
 676 0032 0248     		ldr	r0, .L62
ARM GAS  /tmp/ccxnTNoi.s 			page 13


 677 0034 FFF7FEFF 		bl	chDbgPanic
 678              	.LVL67:
 679 0038 E8E7     		b	.L57
 680              	.L63:
 681 003a 00BF     		.align	2
 682              	.L62:
 683 003c C4000000 		.word	.LC9
 684              		.cfi_endproc
 685              	.LFE130:
 686              		.size	usbStartReceiveI, .-usbStartReceiveI
 687              		.section	.text.usbStartTransmitI,"ax",%progbits
 688              		.align	2
 689              		.p2align 4,,15
 690              		.global	usbStartTransmitI
 691              		.thumb
 692              		.thumb_func
 693              		.type	usbStartTransmitI, %function
 694              	usbStartTransmitI:
 695              	.LFB131:
 696              		.loc 1 500 0
 697              		.cfi_startproc
 698              		@ args = 0, pretend = 0, frame = 0
 699              		@ frame_needed = 0, uses_anonymous_args = 0
 700              	.LVL68:
 701 0000 70B5     		push	{r4, r5, r6, lr}
 702              	.LCFI9:
 703              		.cfi_def_cfa_offset 16
 704              		.cfi_offset 4, -16
 705              		.cfi_offset 5, -12
 706              		.cfi_offset 6, -8
 707              		.cfi_offset 14, -4
 708              		.loc 1 500 0
 709 0002 0446     		mov	r4, r0
 710 0004 0D46     		mov	r5, r1
 711              		.loc 1 502 0
 712 0006 FFF7FEFF 		bl	chDbgCheckClassI
 713              	.LVL69:
 714              		.loc 1 503 0
 715 000a 94B1     		cbz	r4, .L68
 716              	.L65:
 717              		.loc 1 505 0
 718 000c A389     		ldrh	r3, [r4, #12]
 719 000e 43FA05F0 		asr	r0, r3, r5
 720 0012 10F00106 		ands	r6, r0, #1
 721 0016 01D0     		beq	.L69
 722              		.loc 1 506 0
 723 0018 0120     		movs	r0, #1
 724              		.loc 1 511 0
 725 001a 70BD     		pop	{r4, r5, r6, pc}
 726              	.L69:
 727              		.loc 1 508 0
 728 001c 0122     		movs	r2, #1
 729 001e 02FA05F2 		lsl	r2, r2, r5
 730 0022 1343     		orrs	r3, r3, r2
 731              		.loc 1 509 0
 732 0024 2046     		mov	r0, r4
 733              		.loc 1 508 0
ARM GAS  /tmp/ccxnTNoi.s 			page 14


 734 0026 A381     		strh	r3, [r4, #12]	@ movhi
 735              		.loc 1 509 0
 736 0028 2946     		mov	r1, r5
 737 002a FFF7FEFF 		bl	usb_lld_start_in
 738              	.LVL70:
 739              		.loc 1 510 0
 740 002e 3046     		mov	r0, r6
 741 0030 70BD     		pop	{r4, r5, r6, pc}
 742              	.L68:
 743              		.loc 1 503 0 discriminator 1
 744 0032 0248     		ldr	r0, .L70
 745 0034 FFF7FEFF 		bl	chDbgPanic
 746              	.LVL71:
 747 0038 E8E7     		b	.L65
 748              	.L71:
 749 003a 00BF     		.align	2
 750              	.L70:
 751 003c DC000000 		.word	.LC10
 752              		.cfi_endproc
 753              	.LFE131:
 754              		.size	usbStartTransmitI, .-usbStartTransmitI
 755              		.section	.text.usbStallReceiveI,"ax",%progbits
 756              		.align	2
 757              		.p2align 4,,15
 758              		.global	usbStallReceiveI
 759              		.thumb
 760              		.thumb_func
 761              		.type	usbStallReceiveI, %function
 762              	usbStallReceiveI:
 763              	.LFB132:
 764              		.loc 1 525 0
 765              		.cfi_startproc
 766              		@ args = 0, pretend = 0, frame = 0
 767              		@ frame_needed = 0, uses_anonymous_args = 0
 768              	.LVL72:
 769 0000 70B5     		push	{r4, r5, r6, lr}
 770              	.LCFI10:
 771              		.cfi_def_cfa_offset 16
 772              		.cfi_offset 4, -16
 773              		.cfi_offset 5, -12
 774              		.cfi_offset 6, -8
 775              		.cfi_offset 14, -4
 776              		.loc 1 525 0
 777 0002 0446     		mov	r4, r0
 778 0004 0D46     		mov	r5, r1
 779              		.loc 1 527 0
 780 0006 FFF7FEFF 		bl	chDbgCheckClassI
 781              	.LVL73:
 782              		.loc 1 528 0
 783 000a 6CB1     		cbz	r4, .L76
 784              	.L73:
 785              		.loc 1 530 0
 786 000c E089     		ldrh	r0, [r4, #14]
 787 000e 40FA05F0 		asr	r0, r0, r5
 788 0012 10F00106 		ands	r6, r0, #1
 789 0016 01D0     		beq	.L77
 790              		.loc 1 531 0
ARM GAS  /tmp/ccxnTNoi.s 			page 15


 791 0018 0120     		movs	r0, #1
 792              		.loc 1 535 0
 793 001a 70BD     		pop	{r4, r5, r6, pc}
 794              	.L77:
 795              		.loc 1 533 0
 796 001c 2046     		mov	r0, r4
 797 001e 2946     		mov	r1, r5
 798 0020 FFF7FEFF 		bl	usb_lld_stall_out
 799              	.LVL74:
 800              		.loc 1 534 0
 801 0024 3046     		mov	r0, r6
 802 0026 70BD     		pop	{r4, r5, r6, pc}
 803              	.L76:
 804              		.loc 1 528 0 discriminator 1
 805 0028 0148     		ldr	r0, .L78
 806 002a FFF7FEFF 		bl	chDbgPanic
 807              	.LVL75:
 808 002e EDE7     		b	.L73
 809              	.L79:
 810              		.align	2
 811              	.L78:
 812 0030 F4000000 		.word	.LC11
 813              		.cfi_endproc
 814              	.LFE132:
 815              		.size	usbStallReceiveI, .-usbStallReceiveI
 816 0034 AFF30080 		.section	.text.usbStallTransmitI,"ax",%progbits
 816      AFF30080 
 816      AFF30080 
 817              		.align	2
 818              		.p2align 4,,15
 819              		.global	usbStallTransmitI
 820              		.thumb
 821              		.thumb_func
 822              		.type	usbStallTransmitI, %function
 823              	usbStallTransmitI:
 824              	.LFB133:
 825              		.loc 1 549 0
 826              		.cfi_startproc
 827              		@ args = 0, pretend = 0, frame = 0
 828              		@ frame_needed = 0, uses_anonymous_args = 0
 829              	.LVL76:
 830 0000 70B5     		push	{r4, r5, r6, lr}
 831              	.LCFI11:
 832              		.cfi_def_cfa_offset 16
 833              		.cfi_offset 4, -16
 834              		.cfi_offset 5, -12
 835              		.cfi_offset 6, -8
 836              		.cfi_offset 14, -4
 837              		.loc 1 549 0
 838 0002 0446     		mov	r4, r0
 839 0004 0D46     		mov	r5, r1
 840              		.loc 1 551 0
 841 0006 FFF7FEFF 		bl	chDbgCheckClassI
 842              	.LVL77:
 843              		.loc 1 552 0
 844 000a 6CB1     		cbz	r4, .L84
 845              	.L81:
ARM GAS  /tmp/ccxnTNoi.s 			page 16


 846              		.loc 1 554 0
 847 000c A089     		ldrh	r0, [r4, #12]
 848 000e 40FA05F0 		asr	r0, r0, r5
 849 0012 10F00106 		ands	r6, r0, #1
 850 0016 01D0     		beq	.L85
 851              		.loc 1 555 0
 852 0018 0120     		movs	r0, #1
 853              		.loc 1 559 0
 854 001a 70BD     		pop	{r4, r5, r6, pc}
 855              	.L85:
 856              		.loc 1 557 0
 857 001c 2046     		mov	r0, r4
 858 001e 2946     		mov	r1, r5
 859 0020 FFF7FEFF 		bl	usb_lld_stall_in
 860              	.LVL78:
 861              		.loc 1 558 0
 862 0024 3046     		mov	r0, r6
 863 0026 70BD     		pop	{r4, r5, r6, pc}
 864              	.L84:
 865              		.loc 1 552 0 discriminator 1
 866 0028 0148     		ldr	r0, .L86
 867 002a FFF7FEFF 		bl	chDbgPanic
 868              	.LVL79:
 869 002e EDE7     		b	.L81
 870              	.L87:
 871              		.align	2
 872              	.L86:
 873 0030 0C010000 		.word	.LC12
 874              		.cfi_endproc
 875              	.LFE133:
 876              		.size	usbStallTransmitI, .-usbStallTransmitI
 877 0034 AFF30080 		.section	.text._usb_reset,"ax",%progbits
 877      AFF30080 
 877      AFF30080 
 878              		.align	2
 879              		.p2align 4,,15
 880              		.global	_usb_reset
 881              		.thumb
 882              		.thumb_func
 883              		.type	_usb_reset, %function
 884              	_usb_reset:
 885              	.LFB134:
 886              		.loc 1 570 0
 887              		.cfi_startproc
 888              		@ args = 0, pretend = 0, frame = 0
 889              		@ frame_needed = 0, uses_anonymous_args = 0
 890              		@ link register save eliminated.
 891              	.LVL80:
 892 0000 10B4     		push	{r4}
 893              	.LCFI12:
 894              		.cfi_def_cfa_offset 4
 895              		.cfi_offset 4, -4
 896              		.loc 1 570 0
 897 0002 0346     		mov	r3, r0
 898              		.loc 1 574 0
 899 0004 0022     		movs	r2, #0
 900              		.loc 1 573 0
ARM GAS  /tmp/ccxnTNoi.s 			page 17


 901 0006 0224     		movs	r4, #2
 902 0008 0470     		strb	r4, [r0, #0]
 903              		.loc 1 574 0
 904 000a 0287     		strh	r2, [r0, #56]	@ movhi
 905              		.loc 1 575 0
 906 000c 83F83A20 		strb	r2, [r3, #58]
 907              		.loc 1 576 0
 908 0010 80F83B20 		strb	r2, [r0, #59]
 909              		.loc 1 577 0
 910 0014 8281     		strh	r2, [r0, #12]	@ movhi
 911              		.loc 1 578 0
 912 0016 C281     		strh	r2, [r0, #14]	@ movhi
 913              	.LVL81:
 914              		.loc 1 582 0
 915 0018 0261     		str	r2, [r0, #16]
 916              	.LVL82:
 917 001a 4261     		str	r2, [r0, #20]
 918              	.LVL83:
 919 001c 8261     		str	r2, [r0, #24]
 920              	.LVL84:
 921 001e C261     		str	r2, [r0, #28]
 922              	.LVL85:
 923              		.loc 1 585 0
 924 0020 83F82020 		strb	r2, [r3, #32]
 925              		.loc 1 589 0
 926 0024 10BC     		pop	{r4}
 927              		.loc 1 588 0
 928 0026 FFF7FEBF 		b	usb_lld_reset
 929              	.LVL86:
 930              		.cfi_endproc
 931              	.LFE134:
 932              		.size	_usb_reset, .-_usb_reset
 933 002a 00BFAFF3 		.section	.text._usb_ep0setup,"ax",%progbits
 933      0080
 934              		.align	2
 935              		.p2align 4,,15
 936              		.global	_usb_ep0setup
 937              		.thumb
 938              		.thumb_func
 939              		.type	_usb_ep0setup, %function
 940              	_usb_ep0setup:
 941              	.LFB135:
 942              		.loc 1 601 0
 943              		.cfi_startproc
 944              		@ args = 0, pretend = 0, frame = 0
 945              		@ frame_needed = 0, uses_anonymous_args = 0
 946              	.LVL87:
 947 0000 F8B5     		push	{r3, r4, r5, r6, r7, lr}
 948              	.LCFI13:
 949              		.cfi_def_cfa_offset 24
 950              		.cfi_offset 3, -24
 951              		.cfi_offset 4, -20
 952              		.cfi_offset 5, -16
 953              		.cfi_offset 6, -12
 954              		.cfi_offset 7, -8
 955              		.cfi_offset 14, -4
 956              		.loc 1 604 0
ARM GAS  /tmp/ccxnTNoi.s 			page 18


 957 0002 0023     		movs	r3, #0
 958              		.loc 1 601 0
 959 0004 0446     		mov	r4, r0
 960              		.loc 1 604 0
 961 0006 80F82030 		strb	r3, [r0, #32]
 962              		.loc 1 605 0
 963 000a 00F13002 		add	r2, r0, #48
 964 000e FFF7FEFF 		bl	usb_lld_read_setup
 965              	.LVL88:
 966              		.loc 1 609 0
 967 0012 6368     		ldr	r3, [r4, #4]
 968 0014 9B68     		ldr	r3, [r3, #8]
 969 0016 002B     		cmp	r3, #0
 970 0018 2DD0     		beq	.L93
 971              		.loc 1 610 0 discriminator 1
 972 001a 2046     		mov	r0, r4
 973 001c 9847     		blx	r3
 974              	.LVL89:
 975              		.loc 1 609 0 discriminator 1
 976 001e 50B3     		cbz	r0, .L93
 977 0020 A56A     		ldr	r5, [r4, #40]
 978 0022 94F83030 		ldrb	r3, [r4, #48]	@ zero_extendqisi2
 979              	.L133:
 980              		.loc 1 629 0
 981 0026 94F83710 		ldrb	r1, [r4, #55]	@ zero_extendqisi2
 982 002a 94F83620 		ldrb	r2, [r4, #54]	@ zero_extendqisi2
 983 002e 42EA0122 		orr	r2, r2, r1, lsl #8
 984              	.LVL90:
 985              		.loc 1 631 0
 986 0032 AA42     		cmp	r2, r5
 987              		.loc 1 632 0
 988 0034 3CBF     		itt	cc
 989 0036 1546     		movcc	r5, r2
 990 0038 A262     		strcc	r2, [r4, #40]
 991              		.loc 1 633 0
 992 003a 13F0800F 		tst	r3, #128
 993              		.loc 1 638 0
 994 003e 2B46     		mov	r3, r5
 995              		.loc 1 633 0
 996 0040 40F08780 		bne	.L162
 997              		.loc 1 655 0
 998 0044 002D     		cmp	r5, #0
 999 0046 6DD1     		bne	.L163
 1000              		.loc 1 666 0
 1001 0048 0422     		movs	r2, #4
 1002              	.LVL91:
 1003 004a 84F82020 		strb	r2, [r4, #32]
 1004              		.loc 1 667 0
 1005 004e 2046     		mov	r0, r4
 1006 0050 2946     		mov	r1, r5
 1007              	.LVL92:
 1008 0052 2A46     		mov	r2, r5
 1009 0054 FFF7FEFF 		bl	usbPrepareTransmit
 1010              	.LVL93:
 1011              	.LBB18:
 1012              		.loc 1 668 0
 1013 0058 2023     		movs	r3, #32
ARM GAS  /tmp/ccxnTNoi.s 			page 19


 1014              	.LVL94:
 1015              	@ 668 "../../ChibiOS/os/hal/src/usb.c" 1
 1016 005a 83F31188 		msr     BASEPRI, r3
 1017              	@ 0 "" 2
 1018              	.LVL95:
 1019              		.thumb
 1020              	.LBE18:
 1021 005e FFF7FEFF 		bl	dbg_check_lock_from_isr
 1022              	.LVL96:
 1023              		.loc 1 669 0
 1024 0062 2946     		mov	r1, r5
 1025 0064 2046     		mov	r0, r4
 1026 0066 FFF7FEFF 		bl	usbStartTransmitI
 1027              	.LVL97:
 1028              		.loc 1 670 0
 1029 006a FFF7FEFF 		bl	dbg_check_unlock_from_isr
 1030              	.LVL98:
 1031              	.LBB19:
 1032 006e 2B46     		mov	r3, r5
 1033              	.LVL99:
 1034              	@ 670 "../../ChibiOS/os/hal/src/usb.c" 1
 1035 0070 83F31188 		msr     BASEPRI, r3
 1036              	@ 0 "" 2
 1037              	.LVL100:
 1038              		.thumb
 1039 0074 F8BD     		pop	{r3, r4, r5, r6, r7, pc}
 1040              	.LVL101:
 1041              	.L93:
 1042              	.LBE19:
 1043              		.loc 1 613 0
 1044 0076 94F83030 		ldrb	r3, [r4, #48]	@ zero_extendqisi2
 1045 007a 13F06007 		ands	r7, r3, #96
 1046 007e 11D0     		beq	.L164
 1047              	.L91:
 1048              		.loc 1 618 0
 1049 0080 0021     		movs	r1, #0
 1050 0082 2046     		mov	r0, r4
 1051 0084 FFF7FEFF 		bl	usb_lld_stall_in
 1052              	.LVL102:
 1053              		.loc 1 619 0
 1054 0088 2046     		mov	r0, r4
 1055 008a 0021     		movs	r1, #0
 1056 008c FFF7FEFF 		bl	usb_lld_stall_out
 1057              	.LVL103:
 1058              		.loc 1 620 0
 1059 0090 6368     		ldr	r3, [r4, #4]
 1060 0092 1B68     		ldr	r3, [r3, #0]
 1061 0094 13B1     		cbz	r3, .L127
 1062              		.loc 1 620 0 is_stmt 0 discriminator 1
 1063 0096 2046     		mov	r0, r4
 1064 0098 0521     		movs	r1, #5
 1065 009a 9847     		blx	r3
 1066              	.LVL104:
 1067              	.L127:
 1068              		.loc 1 621 0 is_stmt 1
 1069 009c 0523     		movs	r3, #5
 1070 009e 84F82030 		strb	r3, [r4, #32]
ARM GAS  /tmp/ccxnTNoi.s 			page 20


 1071              		.loc 1 622 0
 1072 00a2 F8BD     		pop	{r3, r4, r5, r6, r7, pc}
 1073              	.L164:
 1074              	.LVL105:
 1075              	.LBB20:
 1076              	.LBB21:
 1077              		.loc 1 88 0
 1078 00a4 94F83160 		ldrb	r6, [r4, #49]	@ zero_extendqisi2
 1079              		.loc 1 86 0
 1080 00a8 03F07F02 		and	r2, r3, #127
 1081              		.loc 1 87 0
 1082 00ac 42EA0626 		orr	r6, r2, r6, lsl #8
 1083              		.loc 1 86 0
 1084 00b0 B6F5407F 		cmp	r6, #768
 1085 00b4 00F00381 		beq	.L101
 1086 00b8 17DD     		ble	.L165
 1087 00ba B6F5C06F 		cmp	r6, #1536
 1088 00be 00F09580 		beq	.L104
 1089 00c2 75DD     		ble	.L166
 1090 00c4 B6F5106F 		cmp	r6, #2304
 1091 00c8 00F0BE80 		beq	.L106
 1092 00cc 40F60242 		movw	r2, #3074
 1093 00d0 9642     		cmp	r6, r2
 1094 00d2 00F08480 		beq	.L97
 1095 00d6 B6F5006F 		cmp	r6, #2048
 1096 00da D1D1     		bne	.L91
 1097              		.loc 1 135 0
 1098 00dc 0125     		movs	r5, #1
 1099 00de 04F13B02 		add	r2, r4, #59
 1100 00e2 6262     		str	r2, [r4, #36]
 1101 00e4 A562     		str	r5, [r4, #40]
 1102 00e6 E762     		str	r7, [r4, #44]
 1103 00e8 9DE7     		b	.L133
 1104              	.L165:
 1105              		.loc 1 86 0
 1106 00ea 022E     		cmp	r6, #2
 1107 00ec 00F0BE80 		beq	.L98
 1108 00f0 70DD     		ble	.L167
 1109 00f2 B6F5807F 		cmp	r6, #256
 1110 00f6 00F09280 		beq	.L99
 1111 00fa B6F5817F 		cmp	r6, #258
 1112 00fe BFD1     		bne	.L91
 1113              		.loc 1 181 0
 1114 0100 94F83220 		ldrb	r2, [r4, #50]	@ zero_extendqisi2
 1115 0104 002A     		cmp	r2, #0
 1116 0106 BBD1     		bne	.L91
 1117              		.loc 1 184 0
 1118 0108 94F83420 		ldrb	r2, [r4, #52]	@ zero_extendqisi2
 1119 010c 12F00F01 		ands	r1, r2, #15
 1120 0110 5BD0     		beq	.L125
 1121              		.loc 1 185 0
 1122 0112 1206     		lsls	r2, r2, #24
 1123              		.loc 1 186 0
 1124 0114 2046     		mov	r0, r4
 1125              		.loc 1 185 0
 1126 0116 00F10181 		bmi	.L168
 1127              	.LVL106:
ARM GAS  /tmp/ccxnTNoi.s 			page 21


 1128              		.loc 1 188 0
 1129 011a FFF7FEFF 		bl	usb_lld_clear_out
 1130              	.LVL107:
 1131 011e 94F83030 		ldrb	r3, [r4, #48]	@ zero_extendqisi2
 1132 0122 52E0     		b	.L125
 1133              	.LVL108:
 1134              	.L163:
 1135              	.LBE21:
 1136              	.LBE20:
 1137              		.loc 1 657 0
 1138 0124 0322     		movs	r2, #3
 1139              	.LVL109:
 1140 0126 84F82020 		strb	r2, [r4, #32]
 1141              		.loc 1 658 0
 1142 012a 2046     		mov	r0, r4
 1143 012c 0021     		movs	r1, #0
 1144              	.LVL110:
 1145 012e 626A     		ldr	r2, [r4, #36]
 1146 0130 FFF7FEFF 		bl	usbPrepareReceive
 1147              	.LVL111:
 1148              	.LBB25:
 1149              		.loc 1 659 0
 1150 0134 2023     		movs	r3, #32
 1151              	.LVL112:
 1152              	@ 659 "../../ChibiOS/os/hal/src/usb.c" 1
 1153 0136 83F31188 		msr     BASEPRI, r3
 1154              	@ 0 "" 2
 1155              	.LVL113:
 1156              		.thumb
 1157              	.LBE25:
 1158 013a FFF7FEFF 		bl	dbg_check_lock_from_isr
 1159              	.LVL114:
 1160              		.loc 1 660 0
 1161 013e 0021     		movs	r1, #0
 1162 0140 2046     		mov	r0, r4
 1163 0142 FFF7FEFF 		bl	usbStartReceiveI
 1164              	.LVL115:
 1165              		.loc 1 661 0
 1166 0146 FFF7FEFF 		bl	dbg_check_unlock_from_isr
 1167              	.LVL116:
 1168              	.LBB26:
 1169 014a 0023     		movs	r3, #0
 1170              	.LVL117:
 1171              	@ 661 "../../ChibiOS/os/hal/src/usb.c" 1
 1172 014c 83F31188 		msr     BASEPRI, r3
 1173              	@ 0 "" 2
 1174              	.LVL118:
 1175              		.thumb
 1176 0150 F8BD     		pop	{r3, r4, r5, r6, r7, pc}
 1177              	.LVL119:
 1178              	.L162:
 1179              	.LBE26:
 1180              		.loc 1 635 0
 1181 0152 B5B1     		cbz	r5, .L131
 1182              		.loc 1 637 0
 1183 0154 0122     		movs	r2, #1
 1184              	.LVL120:
ARM GAS  /tmp/ccxnTNoi.s 			page 22


 1185 0156 84F82020 		strb	r2, [r4, #32]
 1186              		.loc 1 638 0
 1187 015a 2046     		mov	r0, r4
 1188 015c 0021     		movs	r1, #0
 1189              	.LVL121:
 1190 015e 626A     		ldr	r2, [r4, #36]
 1191 0160 FFF7FEFF 		bl	usbPrepareTransmit
 1192              	.LVL122:
 1193              	.LBB27:
 1194              		.loc 1 639 0
 1195 0164 2023     		movs	r3, #32
 1196              	.LVL123:
 1197              	@ 639 "../../ChibiOS/os/hal/src/usb.c" 1
 1198 0166 83F31188 		msr     BASEPRI, r3
 1199              	@ 0 "" 2
 1200              	.LVL124:
 1201              		.thumb
 1202              	.LBE27:
 1203 016a FFF7FEFF 		bl	dbg_check_lock_from_isr
 1204              	.LVL125:
 1205              		.loc 1 640 0
 1206 016e 0021     		movs	r1, #0
 1207 0170 2046     		mov	r0, r4
 1208 0172 FFF7FEFF 		bl	usbStartTransmitI
 1209              	.LVL126:
 1210              		.loc 1 641 0
 1211 0176 FFF7FEFF 		bl	dbg_check_unlock_from_isr
 1212              	.LVL127:
 1213              	.LBB28:
 1214 017a 0023     		movs	r3, #0
 1215              	.LVL128:
 1216              	@ 641 "../../ChibiOS/os/hal/src/usb.c" 1
 1217 017c 83F31188 		msr     BASEPRI, r3
 1218              	@ 0 "" 2
 1219              	.LVL129:
 1220              		.thumb
 1221 0180 F8BD     		pop	{r3, r4, r5, r6, r7, pc}
 1222              	.LVL130:
 1223              	.L131:
 1224              	.LBE28:
 1225              		.loc 1 646 0
 1226 0182 0222     		movs	r2, #2
 1227              	.LVL131:
 1228 0184 84F82020 		strb	r2, [r4, #32]
 1229              		.loc 1 647 0
 1230 0188 2046     		mov	r0, r4
 1231 018a 2946     		mov	r1, r5
 1232              	.LVL132:
 1233 018c 2A46     		mov	r2, r5
 1234 018e FFF7FEFF 		bl	usbPrepareReceive
 1235              	.LVL133:
 1236              	.LBB29:
 1237              		.loc 1 648 0
 1238 0192 2023     		movs	r3, #32
 1239              	.LVL134:
 1240              	@ 648 "../../ChibiOS/os/hal/src/usb.c" 1
 1241 0194 83F31188 		msr     BASEPRI, r3
ARM GAS  /tmp/ccxnTNoi.s 			page 23


 1242              	@ 0 "" 2
 1243              	.LVL135:
 1244              		.thumb
 1245              	.LBE29:
 1246 0198 FFF7FEFF 		bl	dbg_check_lock_from_isr
 1247              	.LVL136:
 1248              		.loc 1 649 0
 1249 019c 2946     		mov	r1, r5
 1250 019e 2046     		mov	r0, r4
 1251 01a0 FFF7FEFF 		bl	usbStartReceiveI
 1252              	.LVL137:
 1253              		.loc 1 650 0
 1254 01a4 FFF7FEFF 		bl	dbg_check_unlock_from_isr
 1255              	.LVL138:
 1256              	.LBB30:
 1257 01a8 2B46     		mov	r3, r5
 1258              	.LVL139:
 1259              	@ 650 "../../ChibiOS/os/hal/src/usb.c" 1
 1260 01aa 83F31188 		msr     BASEPRI, r3
 1261              	@ 0 "" 2
 1262              	.LVL140:
 1263              		.thumb
 1264 01ae F8BD     		pop	{r3, r4, r5, r6, r7, pc}
 1265              	.LVL141:
 1266              	.L166:
 1267              	.LBE30:
 1268              	.LBB31:
 1269              	.LBB24:
 1270              		.loc 1 86 0
 1271 01b0 40F20232 		movw	r2, #770
 1272 01b4 9642     		cmp	r6, r2
 1273 01b6 70D0     		beq	.L102
 1274 01b8 B6F5A06F 		cmp	r6, #1280
 1275 01bc 7FF460AF 		bne	.L91
 1276              		.loc 1 116 0
 1277 01c0 228E     		ldrh	r2, [r4, #48]
 1278 01c2 B2F5A06F 		cmp	r2, #1280
 1279 01c6 00F09780 		beq	.L169
 1280              	.L125:
 1281              		.loc 1 203 0
 1282 01ca 0025     		movs	r5, #0
 1283 01cc 6562     		str	r5, [r4, #36]
 1284 01ce A562     		str	r5, [r4, #40]
 1285 01d0 E562     		str	r5, [r4, #44]
 1286 01d2 28E7     		b	.L133
 1287              	.L167:
 1288              		.loc 1 86 0
 1289 01d4 002E     		cmp	r6, #0
 1290 01d6 30D0     		beq	.L96
 1291 01d8 012E     		cmp	r6, #1
 1292 01da 7FF451AF 		bne	.L91
 1293              	.L97:
 1294              		.loc 1 151 0
 1295 01de 544A     		ldr	r2, .L172
 1296 01e0 0225     		movs	r5, #2
 1297 01e2 6262     		str	r2, [r4, #36]
 1298 01e4 0022     		movs	r2, #0
ARM GAS  /tmp/ccxnTNoi.s 			page 24


 1299 01e6 A562     		str	r5, [r4, #40]
 1300 01e8 E262     		str	r2, [r4, #44]
 1301 01ea 1CE7     		b	.L133
 1302              	.L104:
 1303              		.loc 1 126 0
 1304 01ec 6268     		ldr	r2, [r4, #4]
 1305              		.loc 1 128 0
 1306 01ee 94F83560 		ldrb	r6, [r4, #53]	@ zero_extendqisi2
 1307              		.loc 1 126 0
 1308 01f2 94F83430 		ldrb	r3, [r4, #52]	@ zero_extendqisi2
 1309 01f6 5568     		ldr	r5, [r2, #4]
 1310 01f8 94F83310 		ldrb	r1, [r4, #51]	@ zero_extendqisi2
 1311 01fc 94F83220 		ldrb	r2, [r4, #50]	@ zero_extendqisi2
 1312 0200 2046     		mov	r0, r4
 1313 0202 43EA0623 		orr	r3, r3, r6, lsl #8
 1314 0206 A847     		blx	r5
 1315              	.LVL142:
 1316              		.loc 1 129 0
 1317 0208 0028     		cmp	r0, #0
 1318 020a 3FF439AF 		beq	.L91
 1319              		.loc 1 131 0
 1320 020e 4368     		ldr	r3, [r0, #4]
 1321 0210 0568     		ldr	r5, [r0, #0]
 1322 0212 6362     		str	r3, [r4, #36]
 1323 0214 A562     		str	r5, [r4, #40]
 1324 0216 E762     		str	r7, [r4, #44]
 1325 0218 94F83030 		ldrb	r3, [r4, #48]	@ zero_extendqisi2
 1326 021c 03E7     		b	.L133
 1327              	.LVL143:
 1328              	.L99:
 1329              		.loc 1 96 0
 1330 021e 94F83220 		ldrb	r2, [r4, #50]	@ zero_extendqisi2
 1331 0222 012A     		cmp	r2, #1
 1332 0224 7FF42CAF 		bne	.L91
 1333              		.loc 1 97 0
 1334 0228 228F     		ldrh	r2, [r4, #56]
 1335              		.loc 1 98 0
 1336 022a 6762     		str	r7, [r4, #36]
 1337              		.loc 1 97 0
 1338 022c 22F00202 		bic	r2, r2, #2
 1339 0230 2287     		strh	r2, [r4, #56]	@ movhi
 1340              		.loc 1 98 0
 1341 0232 A762     		str	r7, [r4, #40]
 1342 0234 E762     		str	r7, [r4, #44]
 1343 0236 3D46     		mov	r5, r7
 1344 0238 F5E6     		b	.L133
 1345              	.L96:
 1346              		.loc 1 91 0
 1347 023a 0225     		movs	r5, #2
 1348 023c 04F13802 		add	r2, r4, #56
 1349 0240 6262     		str	r2, [r4, #36]
 1350 0242 A562     		str	r5, [r4, #40]
 1351 0244 E662     		str	r6, [r4, #44]
 1352 0246 EEE6     		b	.L133
 1353              	.L106:
 1354              		.loc 1 139 0
 1355 0248 94F83220 		ldrb	r2, [r4, #50]	@ zero_extendqisi2
ARM GAS  /tmp/ccxnTNoi.s 			page 25


 1356 024c 84F83B20 		strb	r2, [r4, #59]
 1357              		.loc 1 140 0
 1358 0250 002A     		cmp	r2, #0
 1359 0252 42D1     		bne	.L115
 1360              		.loc 1 141 0
 1361 0254 0322     		movs	r2, #3
 1362 0256 2270     		strb	r2, [r4, #0]
 1363              	.L116:
 1364              		.loc 1 144 0
 1365 0258 6268     		ldr	r2, [r4, #4]
 1366 025a 1268     		ldr	r2, [r2, #0]
 1367 025c 002A     		cmp	r2, #0
 1368 025e B4D0     		beq	.L125
 1369 0260 2046     		mov	r0, r4
 1370 0262 0221     		movs	r1, #2
 1371 0264 9047     		blx	r2
 1372              	.LVL144:
 1373 0266 94F83030 		ldrb	r3, [r4, #48]	@ zero_extendqisi2
 1374 026a AEE7     		b	.L125
 1375              	.L98:
 1376              		.loc 1 155 0
 1377 026c 94F83410 		ldrb	r1, [r4, #52]	@ zero_extendqisi2
 1378 0270 11F0800F 		tst	r1, #128
 1379              		.loc 1 156 0
 1380 0274 2046     		mov	r0, r4
 1381 0276 01F00F01 		and	r1, r1, #15
 1382              		.loc 1 155 0
 1383 027a 31D1     		bne	.L170
 1384              	.LVL145:
 1385              		.loc 1 168 0
 1386 027c FFF7FEFF 		bl	usb_lld_get_status_out
 1387              	.LVL146:
 1388 0280 0128     		cmp	r0, #1
 1389 0282 31D0     		beq	.L121
 1390              	.L161:
 1391 0284 0228     		cmp	r0, #2
 1392 0286 7FF4FBAE 		bne	.L91
 1393              		.loc 1 173 0
 1394 028a 2A4B     		ldr	r3, .L172+4
 1395 028c A062     		str	r0, [r4, #40]
 1396 028e 6362     		str	r3, [r4, #36]
 1397 0290 E762     		str	r7, [r4, #44]
 1398 0292 94F83030 		ldrb	r3, [r4, #48]	@ zero_extendqisi2
 1399 0296 0546     		mov	r5, r0
 1400 0298 C5E6     		b	.L133
 1401              	.L102:
 1402              		.loc 1 194 0
 1403 029a 94F83220 		ldrb	r2, [r4, #50]	@ zero_extendqisi2
 1404 029e 002A     		cmp	r2, #0
 1405 02a0 7FF4EEAE 		bne	.L91
 1406              		.loc 1 197 0
 1407 02a4 94F83420 		ldrb	r2, [r4, #52]	@ zero_extendqisi2
 1408 02a8 12F00F01 		ands	r1, r2, #15
 1409 02ac 8DD0     		beq	.L125
 1410              		.loc 1 198 0
 1411 02ae 1306     		lsls	r3, r2, #24
 1412              		.loc 1 199 0
ARM GAS  /tmp/ccxnTNoi.s 			page 26


 1413 02b0 2046     		mov	r0, r4
 1414              		.loc 1 198 0
 1415 02b2 38D4     		bmi	.L171
 1416              	.LVL147:
 1417              		.loc 1 201 0
 1418 02b4 FFF7FEFF 		bl	usb_lld_stall_out
 1419              	.LVL148:
 1420 02b8 94F83030 		ldrb	r3, [r4, #48]	@ zero_extendqisi2
 1421 02bc 85E7     		b	.L125
 1422              	.L101:
 1423              		.loc 1 105 0
 1424 02be 94F83220 		ldrb	r2, [r4, #50]	@ zero_extendqisi2
 1425 02c2 012A     		cmp	r2, #1
 1426 02c4 7FF4DCAE 		bne	.L91
 1427              		.loc 1 106 0
 1428 02c8 228F     		ldrh	r2, [r4, #56]
 1429              		.loc 1 107 0
 1430 02ca 6762     		str	r7, [r4, #36]
 1431              		.loc 1 106 0
 1432 02cc 42F00202 		orr	r2, r2, #2
 1433 02d0 2287     		strh	r2, [r4, #56]	@ movhi
 1434              		.loc 1 107 0
 1435 02d2 A762     		str	r7, [r4, #40]
 1436 02d4 E762     		str	r7, [r4, #44]
 1437 02d6 3D46     		mov	r5, r7
 1438 02d8 A5E6     		b	.L133
 1439              	.L115:
 1440              		.loc 1 143 0
 1441 02da 0422     		movs	r2, #4
 1442 02dc 2270     		strb	r2, [r4, #0]
 1443 02de BBE7     		b	.L116
 1444              	.LVL149:
 1445              	.L170:
 1446              		.loc 1 156 0
 1447 02e0 FFF7FEFF 		bl	usb_lld_get_status_in
 1448              	.LVL150:
 1449 02e4 0128     		cmp	r0, #1
 1450 02e6 CDD1     		bne	.L161
 1451              	.L121:
 1452              		.loc 1 170 0
 1453 02e8 134B     		ldr	r3, .L172+8
 1454 02ea A662     		str	r6, [r4, #40]
 1455 02ec 6362     		str	r3, [r4, #36]
 1456 02ee E762     		str	r7, [r4, #44]
 1457 02f0 94F83030 		ldrb	r3, [r4, #48]	@ zero_extendqisi2
 1458 02f4 3546     		mov	r5, r6
 1459 02f6 96E6     		b	.L133
 1460              	.L169:
 1461              	.LVL151:
 1462              	.LBB22:
 1463              	.LBB23:
 1464              		.loc 1 64 0
 1465 02f8 94F83230 		ldrb	r3, [r4, #50]	@ zero_extendqisi2
 1466              		.loc 1 65 0
 1467 02fc 2046     		mov	r0, r4
 1468              		.loc 1 64 0
 1469 02fe 84F83A30 		strb	r3, [r4, #58]
ARM GAS  /tmp/ccxnTNoi.s 			page 27


 1470              		.loc 1 65 0
 1471 0302 FFF7FEFF 		bl	usb_lld_set_address
 1472              	.LVL152:
 1473              		.loc 1 66 0
 1474 0306 6368     		ldr	r3, [r4, #4]
 1475 0308 1B68     		ldr	r3, [r3, #0]
 1476 030a 13B1     		cbz	r3, .L114
 1477 030c 2046     		mov	r0, r4
 1478 030e 0121     		movs	r1, #1
 1479 0310 9847     		blx	r3
 1480              	.LVL153:
 1481              	.L114:
 1482              		.loc 1 67 0
 1483 0312 0322     		movs	r2, #3
 1484 0314 94F83030 		ldrb	r3, [r4, #48]	@ zero_extendqisi2
 1485 0318 2270     		strb	r2, [r4, #0]
 1486 031a 56E7     		b	.L125
 1487              	.LVL154:
 1488              	.L168:
 1489              	.LBE23:
 1490              	.LBE22:
 1491              		.loc 1 186 0
 1492 031c FFF7FEFF 		bl	usb_lld_clear_in
 1493              	.LVL155:
 1494 0320 94F83030 		ldrb	r3, [r4, #48]	@ zero_extendqisi2
 1495 0324 51E7     		b	.L125
 1496              	.LVL156:
 1497              	.L171:
 1498              		.loc 1 199 0
 1499 0326 FFF7FEFF 		bl	usb_lld_stall_in
 1500              	.LVL157:
 1501 032a 94F83030 		ldrb	r3, [r4, #48]	@ zero_extendqisi2
 1502 032e 4CE7     		b	.L125
 1503              	.L173:
 1504              		.align	2
 1505              	.L172:
 1506 0330 00000000 		.word	.LANCHOR0
 1507 0334 00000000 		.word	.LANCHOR2
 1508 0338 00000000 		.word	.LANCHOR1
 1509              	.LBE24:
 1510              	.LBE31:
 1511              		.cfi_endproc
 1512              	.LFE135:
 1513              		.size	_usb_ep0setup, .-_usb_ep0setup
 1514 033c AFF30080 		.section	.text._usb_ep0in,"ax",%progbits
 1515              		.align	2
 1516              		.p2align 4,,15
 1517              		.global	_usb_ep0in
 1518              		.thumb
 1519              		.thumb_func
 1520              		.type	_usb_ep0in, %function
 1521              	_usb_ep0in:
 1522              	.LFB136:
 1523              		.loc 1 685 0
 1524              		.cfi_startproc
 1525              		@ args = 0, pretend = 0, frame = 0
 1526              		@ frame_needed = 0, uses_anonymous_args = 0
ARM GAS  /tmp/ccxnTNoi.s 			page 28


 1527              	.LVL158:
 1528 0000 38B5     		push	{r3, r4, r5, lr}
 1529              	.LCFI14:
 1530              		.cfi_def_cfa_offset 16
 1531              		.cfi_offset 3, -16
 1532              		.cfi_offset 4, -12
 1533              		.cfi_offset 5, -8
 1534              		.cfi_offset 14, -4
 1535              		.loc 1 689 0
 1536 0002 90F82030 		ldrb	r3, [r0, #32]	@ zero_extendqisi2
 1537 0006 012B     		cmp	r3, #1
 1538              		.loc 1 685 0
 1539 0008 0446     		mov	r4, r0
 1540              		.loc 1 689 0
 1541 000a 19D0     		beq	.L176
 1542 000c 042B     		cmp	r3, #4
 1543 000e 10D0     		beq	.L189
 1544              		.loc 1 723 0
 1545 0010 0021     		movs	r1, #0
 1546              	.LVL159:
 1547 0012 FFF7FEFF 		bl	usb_lld_stall_in
 1548              	.LVL160:
 1549              		.loc 1 724 0
 1550 0016 2046     		mov	r0, r4
 1551 0018 0021     		movs	r1, #0
 1552 001a FFF7FEFF 		bl	usb_lld_stall_out
 1553              	.LVL161:
 1554              		.loc 1 725 0
 1555 001e 6368     		ldr	r3, [r4, #4]
 1556 0020 1B68     		ldr	r3, [r3, #0]
 1557 0022 13B1     		cbz	r3, .L181
 1558              		.loc 1 725 0 is_stmt 0 discriminator 1
 1559 0024 2046     		mov	r0, r4
 1560 0026 0521     		movs	r1, #5
 1561 0028 9847     		blx	r3
 1562              	.LVL162:
 1563              	.L181:
 1564              		.loc 1 726 0 is_stmt 1
 1565 002a 0523     		movs	r3, #5
 1566 002c 84F82030 		strb	r3, [r4, #32]
 1567 0030 38BD     		pop	{r3, r4, r5, pc}
 1568              	.LVL163:
 1569              	.L189:
 1570              		.loc 1 713 0
 1571 0032 C36A     		ldr	r3, [r0, #44]
 1572 0034 03B1     		cbz	r3, .L180
 1573              		.loc 1 714 0
 1574 0036 9847     		blx	r3
 1575              	.LVL164:
 1576              	.L180:
 1577              		.loc 1 715 0
 1578 0038 0023     		movs	r3, #0
 1579 003a 84F82030 		strb	r3, [r4, #32]
 1580              		.loc 1 716 0
 1581 003e 38BD     		pop	{r3, r4, r5, pc}
 1582              	.LVL165:
 1583              	.L176:
ARM GAS  /tmp/ccxnTNoi.s 			page 29


 1584              		.loc 1 691 0
 1585 0040 90F83720 		ldrb	r2, [r0, #55]	@ zero_extendqisi2
 1586 0044 90F83630 		ldrb	r3, [r0, #54]	@ zero_extendqisi2
 1587              		.loc 1 695 0
 1588 0048 856A     		ldr	r5, [r0, #40]
 1589              		.loc 1 691 0
 1590 004a 43EA0223 		orr	r3, r3, r2, lsl #8
 1591              	.LVL166:
 1592              		.loc 1 695 0
 1593 004e AB42     		cmp	r3, r5
 1594 0050 06D9     		bls	.L178
 1595              		.loc 1 696 0 discriminator 1
 1596 0052 0369     		ldr	r3, [r0, #16]
 1597              	.LVL167:
 1598 0054 1B8A     		ldrh	r3, [r3, #16]
 1599 0056 B5FBF3F2 		udiv	r2, r5, r3
 1600 005a 03FB1255 		mls	r5, r3, r2, r5
 1601              		.loc 1 695 0 discriminator 1
 1602 005e BDB1     		cbz	r5, .L190
 1603              	.L178:
 1604              		.loc 1 706 0
 1605 0060 0021     		movs	r1, #0
 1606              	.LVL168:
 1607              		.loc 1 705 0
 1608 0062 0222     		movs	r2, #2
 1609              		.loc 1 706 0
 1610 0064 0B46     		mov	r3, r1
 1611              		.loc 1 705 0
 1612 0066 84F82020 		strb	r2, [r4, #32]
 1613              		.loc 1 706 0
 1614 006a 2046     		mov	r0, r4
 1615              	.LVL169:
 1616 006c 0A46     		mov	r2, r1
 1617 006e FFF7FEFF 		bl	usbPrepareReceive
 1618              	.LVL170:
 1619              	.LBB32:
 1620              		.loc 1 707 0
 1621 0072 2023     		movs	r3, #32
 1622              	.LVL171:
 1623              	@ 707 "../../ChibiOS/os/hal/src/usb.c" 1
 1624 0074 83F31188 		msr     BASEPRI, r3
 1625              	@ 0 "" 2
 1626              	.LVL172:
 1627              		.thumb
 1628              	.LBE32:
 1629 0078 FFF7FEFF 		bl	dbg_check_lock_from_isr
 1630              	.LVL173:
 1631              		.loc 1 708 0
 1632 007c 0021     		movs	r1, #0
 1633 007e 2046     		mov	r0, r4
 1634 0080 FFF7FEFF 		bl	usbStartReceiveI
 1635              	.LVL174:
 1636              		.loc 1 709 0
 1637 0084 FFF7FEFF 		bl	dbg_check_unlock_from_isr
 1638              	.LVL175:
 1639              	.LBB33:
 1640 0088 0023     		movs	r3, #0
ARM GAS  /tmp/ccxnTNoi.s 			page 30


 1641              	.LVL176:
 1642              	@ 709 "../../ChibiOS/os/hal/src/usb.c" 1
 1643 008a 83F31188 		msr     BASEPRI, r3
 1644              	@ 0 "" 2
 1645              	.LVL177:
 1646              		.thumb
 1647              	.LBE33:
 1648              		.loc 1 710 0
 1649 008e 38BD     		pop	{r3, r4, r5, pc}
 1650              	.LVL178:
 1651              	.L190:
 1652              		.loc 1 697 0
 1653 0090 2B46     		mov	r3, r5
 1654 0092 2946     		mov	r1, r5
 1655              	.LVL179:
 1656 0094 2A46     		mov	r2, r5
 1657 0096 FFF7FEFF 		bl	usbPrepareTransmit
 1658              	.LVL180:
 1659              	.LBB34:
 1660              		.loc 1 698 0
 1661 009a 2023     		movs	r3, #32
 1662              	.LVL181:
 1663              	@ 698 "../../ChibiOS/os/hal/src/usb.c" 1
 1664 009c 83F31188 		msr     BASEPRI, r3
 1665              	@ 0 "" 2
 1666              	.LVL182:
 1667              		.thumb
 1668              	.LBE34:
 1669 00a0 FFF7FEFF 		bl	dbg_check_lock_from_isr
 1670              	.LVL183:
 1671              		.loc 1 699 0
 1672 00a4 2946     		mov	r1, r5
 1673 00a6 2046     		mov	r0, r4
 1674 00a8 FFF7FEFF 		bl	usbStartTransmitI
 1675              	.LVL184:
 1676              		.loc 1 700 0
 1677 00ac FFF7FEFF 		bl	dbg_check_unlock_from_isr
 1678              	.LVL185:
 1679              	.LBB35:
 1680 00b0 2B46     		mov	r3, r5
 1681              	.LVL186:
 1682              	@ 700 "../../ChibiOS/os/hal/src/usb.c" 1
 1683 00b2 83F31188 		msr     BASEPRI, r3
 1684              	@ 0 "" 2
 1685              	.LVL187:
 1686              		.thumb
 1687              	.LBE35:
 1688              		.loc 1 701 0
 1689 00b6 38BD     		pop	{r3, r4, r5, pc}
 1690              		.cfi_endproc
 1691              	.LFE136:
 1692              		.size	_usb_ep0in, .-_usb_ep0in
 1693 00b8 AFF30080 		.section	.text._usb_ep0out,"ax",%progbits
 1693      AFF30080 
 1694              		.align	2
 1695              		.p2align 4,,15
 1696              		.global	_usb_ep0out
ARM GAS  /tmp/ccxnTNoi.s 			page 31


 1697              		.thumb
 1698              		.thumb_func
 1699              		.type	_usb_ep0out, %function
 1700              	_usb_ep0out:
 1701              	.LFB137:
 1702              		.loc 1 739 0
 1703              		.cfi_startproc
 1704              		@ args = 0, pretend = 0, frame = 0
 1705              		@ frame_needed = 0, uses_anonymous_args = 0
 1706              	.LVL188:
 1707              		.loc 1 742 0
 1708 0000 90F82030 		ldrb	r3, [r0, #32]	@ zero_extendqisi2
 1709 0004 022B     		cmp	r3, #2
 1710              		.loc 1 739 0
 1711 0006 10B5     		push	{r4, lr}
 1712              	.LCFI15:
 1713              		.cfi_def_cfa_offset 8
 1714              		.cfi_offset 4, -8
 1715              		.cfi_offset 14, -4
 1716              		.loc 1 739 0
 1717 0008 0446     		mov	r4, r0
 1718              		.loc 1 742 0
 1719 000a 2AD0     		beq	.L193
 1720 000c 032B     		cmp	r3, #3
 1721 000e 11D0     		beq	.L204
 1722              	.L192:
 1723              		.loc 1 766 0
 1724 0010 0021     		movs	r1, #0
 1725              	.LVL189:
 1726 0012 2046     		mov	r0, r4
 1727              	.LVL190:
 1728 0014 FFF7FEFF 		bl	usb_lld_stall_in
 1729              	.LVL191:
 1730              		.loc 1 767 0
 1731 0018 2046     		mov	r0, r4
 1732 001a 0021     		movs	r1, #0
 1733 001c FFF7FEFF 		bl	usb_lld_stall_out
 1734              	.LVL192:
 1735              		.loc 1 768 0
 1736 0020 6368     		ldr	r3, [r4, #4]
 1737 0022 1B68     		ldr	r3, [r3, #0]
 1738 0024 13B1     		cbz	r3, .L197
 1739              		.loc 1 768 0 is_stmt 0 discriminator 1
 1740 0026 2046     		mov	r0, r4
 1741 0028 0521     		movs	r1, #5
 1742 002a 9847     		blx	r3
 1743              	.LVL193:
 1744              	.L197:
 1745              		.loc 1 769 0 is_stmt 1
 1746 002c 0523     		movs	r3, #5
 1747 002e 84F82030 		strb	r3, [r4, #32]
 1748 0032 10BD     		pop	{r4, pc}
 1749              	.LVL194:
 1750              	.L204:
 1751              		.loc 1 746 0
 1752 0034 0021     		movs	r1, #0
 1753              	.LVL195:
ARM GAS  /tmp/ccxnTNoi.s 			page 32


 1754              		.loc 1 745 0
 1755 0036 0422     		movs	r2, #4
 1756              		.loc 1 746 0
 1757 0038 0B46     		mov	r3, r1
 1758              		.loc 1 745 0
 1759 003a 80F82020 		strb	r2, [r0, #32]
 1760              		.loc 1 746 0
 1761 003e 0A46     		mov	r2, r1
 1762 0040 FFF7FEFF 		bl	usbPrepareTransmit
 1763              	.LVL196:
 1764              	.LBB36:
 1765              		.loc 1 747 0
 1766 0044 2023     		movs	r3, #32
 1767              	.LVL197:
 1768              	@ 747 "../../ChibiOS/os/hal/src/usb.c" 1
 1769 0046 83F31188 		msr     BASEPRI, r3
 1770              	@ 0 "" 2
 1771              	.LVL198:
 1772              		.thumb
 1773              	.LBE36:
 1774 004a FFF7FEFF 		bl	dbg_check_lock_from_isr
 1775              	.LVL199:
 1776              		.loc 1 748 0
 1777 004e 0021     		movs	r1, #0
 1778 0050 2046     		mov	r0, r4
 1779 0052 FFF7FEFF 		bl	usbStartTransmitI
 1780              	.LVL200:
 1781              		.loc 1 749 0
 1782 0056 FFF7FEFF 		bl	dbg_check_unlock_from_isr
 1783              	.LVL201:
 1784              	.LBB37:
 1785 005a 0023     		movs	r3, #0
 1786              	.LVL202:
 1787              	@ 749 "../../ChibiOS/os/hal/src/usb.c" 1
 1788 005c 83F31188 		msr     BASEPRI, r3
 1789              	@ 0 "" 2
 1790              	.LVL203:
 1791              		.thumb
 1792              	.LBE37:
 1793              		.loc 1 750 0
 1794 0060 10BD     		pop	{r4, pc}
 1795              	.LVL204:
 1796              	.L193:
 1797              		.loc 1 754 0
 1798 0062 0369     		ldr	r3, [r0, #16]
 1799 0064 9B69     		ldr	r3, [r3, #24]
 1800 0066 9B68     		ldr	r3, [r3, #8]
 1801 0068 002B     		cmp	r3, #0
 1802 006a D1D1     		bne	.L192
 1803              		.loc 1 756 0
 1804 006c C36A     		ldr	r3, [r0, #44]
 1805 006e 03B1     		cbz	r3, .L196
 1806              		.loc 1 757 0
 1807 0070 9847     		blx	r3
 1808              	.LVL205:
 1809              	.L196:
 1810              		.loc 1 758 0
ARM GAS  /tmp/ccxnTNoi.s 			page 33


 1811 0072 0023     		movs	r3, #0
 1812 0074 84F82030 		strb	r3, [r4, #32]
 1813              		.loc 1 759 0
 1814 0078 10BD     		pop	{r4, pc}
 1815              		.cfi_endproc
 1816              	.LFE137:
 1817              		.size	_usb_ep0out, .-_usb_ep0out
 1818 007a 00BFAFF3 		.section	.rodata.zero_status,"a",%progbits
 1818      0080
 1819              		.align	2
 1820              		.set	.LANCHOR0,. + 0
 1821              		.type	zero_status, %object
 1822              		.size	zero_status, 2
 1823              	zero_status:
 1824 0000 0000     		.space	2
 1825 0002 0000     		.section	.rodata.active_status,"a",%progbits
 1826              		.align	2
 1827              		.set	.LANCHOR2,. + 0
 1828              		.type	active_status, %object
 1829              		.size	active_status, 2
 1830              	active_status:
 1831 0000 0000     		.space	2
 1832 0002 0000     		.section	.rodata.str1.4,"aMS",%progbits,1
 1833              		.align	2
 1834              	.LC0:
 1835 0000 22757362 		.ascii	"\"usbStart\"()\000"
 1835      53746172 
 1835      74222829 
 1835      00
 1836 000d 000000   		.space	3
 1837              	.LC1:
 1838 0010 75736253 		.ascii	"usbStart(), #1\000"
 1838      74617274 
 1838      28292C20 
 1838      233100
 1839 001f 00       		.space	1
 1840              	.LC2:
 1841 0020 22757362 		.ascii	"\"usbStop\"()\000"
 1841      53746F70 
 1841      22282900 
 1842              	.LC3:
 1843 002c 75736253 		.ascii	"usbStop(), #1\000"
 1843      746F7028 
 1843      292C2023 
 1843      3100
 1844 003a 0000     		.space	2
 1845              	.LC4:
 1846 003c 22757362 		.ascii	"\"usbInitEndpointI\"()\000"
 1846      496E6974 
 1846      456E6470 
 1846      6F696E74 
 1846      49222829 
 1847 0051 000000   		.space	3
 1848              	.LC5:
 1849 0054 75736245 		.ascii	"usbEnableEndpointI(), #1\000"
 1849      6E61626C 
 1849      65456E64 
ARM GAS  /tmp/ccxnTNoi.s 			page 34


 1849      706F696E 
 1849      74492829 
 1850 006d 000000   		.space	3
 1851              	.LC6:
 1852 0070 75736245 		.ascii	"usbEnableEndpointI(), #2\000"
 1852      6E61626C 
 1852      65456E64 
 1852      706F696E 
 1852      74492829 
 1853 0089 000000   		.space	3
 1854              	.LC7:
 1855 008c 22757362 		.ascii	"\"usbDisableEndpointsI\"()\000"
 1855      44697361 
 1855      626C6545 
 1855      6E64706F 
 1855      696E7473 
 1856 00a5 000000   		.space	3
 1857              	.LC8:
 1858 00a8 75736244 		.ascii	"usbDisableEndpointsI(), #1\000"
 1858      69736162 
 1858      6C65456E 
 1858      64706F69 
 1858      6E747349 
 1859 00c3 00       		.space	1
 1860              	.LC9:
 1861 00c4 22757362 		.ascii	"\"usbStartReceiveI\"()\000"
 1861      53746172 
 1861      74526563 
 1861      65697665 
 1861      49222829 
 1862 00d9 000000   		.space	3
 1863              	.LC10:
 1864 00dc 22757362 		.ascii	"\"usbStartTransmitI\"()\000"
 1864      53746172 
 1864      74547261 
 1864      6E736D69 
 1864      74492228 
 1865 00f2 0000     		.space	2
 1866              	.LC11:
 1867 00f4 22757362 		.ascii	"\"usbStallReceiveI\"()\000"
 1867      5374616C 
 1867      6C526563 
 1867      65697665 
 1867      49222829 
 1868 0109 000000   		.space	3
 1869              	.LC12:
 1870 010c 22757362 		.ascii	"\"usbStallTransmitI\"()\000"
 1870      5374616C 
 1870      6C547261 
 1870      6E736D69 
 1870      74492228 
 1871 0122 0000     		.section	.rodata.halted_status,"a",%progbits
 1872              		.align	2
 1873              		.set	.LANCHOR1,. + 0
 1874              		.type	halted_status, %object
 1875              		.size	halted_status, 2
 1876              	halted_status:
ARM GAS  /tmp/ccxnTNoi.s 			page 35


 1877 0000 01       		.byte	1
 1878 0001 00       		.byte	0
 1879 0002 0000     		.text
 1880              	.Letext0:
 1881              		.file 2 "/home/david/toolchains/psas/x-tools/stm32f407/arm-psas-eabi/bin/../lib/gcc/arm-psas-eabi/
 1882              		.file 3 "/home/david/toolchains/psas/x-tools/stm32f407/arm-psas-eabi/bin/../lib/gcc/arm-psas-eabi/
 1883              		.file 4 "../../ChibiOS/os/ports/GCC/ARMCMx/chtypes.h"
 1884              		.file 5 "../../ChibiOS/os/kernel/include/chlists.h"
 1885              		.file 6 "../../ChibiOS/os/kernel/include/chthreads.h"
 1886              		.file 7 "../../ChibiOS/os/ports/GCC/ARMCMx/chcore_v7m.h"
 1887              		.file 8 "../../ChibiOS/os/kernel/include/chmtx.h"
 1888              		.file 9 "../../ChibiOS/os/kernel/include/chqueues.h"
 1889              		.file 10 "../../ChibiOS/os/hal/include/usb.h"
 1890              		.file 11 "../../ChibiOS/os/hal/platforms/STM32/OTGv1/usb_lld.h"
 1891              		.file 12 "../../ChibiOS/os/hal/platforms/STM32/OTGv1/stm32_otg.h"
 1892              		.file 13 "../../ChibiOS/os/kernel/include/chdebug.h"
 1893              		.file 14 "../../ChibiOS/os/ports/common/ARMCMx/CMSIS/include/core_cm4.h"