ARM GAS  /tmp/cc2MRpHc.s 			page 1


   1              		.syntax unified
   2              		.cpu cortex-m4
   3              		.eabi_attribute 27, 3
   4              		.eabi_attribute 28, 1
   5              		.fpu fpv4-sp-d16
   6              		.eabi_attribute 20, 1
   7              		.eabi_attribute 21, 1
   8              		.eabi_attribute 23, 3
   9              		.eabi_attribute 24, 1
  10              		.eabi_attribute 25, 1
  11              		.eabi_attribute 26, 1
  12              		.eabi_attribute 30, 2
  13              		.eabi_attribute 34, 1
  14              		.eabi_attribute 18, 4
  15              		.thumb
  16              		.file	"usb_lld.c"
  17              		.text
  18              	.Ltext0:
  19              		.cfi_sections	.debug_frame
  20              		.section	.text.otg_disable_ep,"ax",%progbits
  21              		.align	2
  22              		.p2align 4,,15
  23              		.thumb
  24              		.thumb_func
  25              		.type	otg_disable_ep, %function
  26              	otg_disable_ep:
  27              	.LFB120:
  28              		.file 1 "../../ChibiOS/os/hal/platforms/STM32/OTGv1/usb_lld.c"
  29              		.loc 1 145 0
  30              		.cfi_startproc
  31              		@ args = 0, pretend = 0, frame = 0
  32              		@ frame_needed = 0, uses_anonymous_args = 0
  33              		@ link register save eliminated.
  34              	.LVL0:
  35 0000 016C     		ldr	r1, [r0, #64]
  36              		.loc 1 146 0
  37 0002 C36B     		ldr	r3, [r0, #60]
  38              	.LVL1:
  39              		.loc 1 149 0
  40 0004 0022     		movs	r2, #0
  41              		.loc 1 145 0
  42 0006 2DE9F001 		push	{r4, r5, r6, r7, r8}
  43              	.LCFI0:
  44              		.cfi_def_cfa_offset 20
  45              		.cfi_offset 4, -20
  46              		.cfi_offset 5, -16
  47              		.cfi_offset 6, -12
  48              		.cfi_offset 7, -8
  49              		.cfi_offset 8, -4
  50              		.loc 1 160 0
  51 000a 1046     		mov	r0, r2
  52              	.LVL2:
  53 000c 8F68     		ldr	r7, [r1, #8]
  54              		.loc 1 154 0
  55 000e 4FF0804C 		mov	ip, #1073741824
  56              		.loc 1 162 0
  57 0012 4FF0FF36 		mov	r6, #-1
ARM GAS  /tmp/cc2MRpHc.s 			page 2


  58 0016 18E0     		b	.L8
  59              	.LVL3:
  60              	.L2:
  61              		.loc 1 160 0
  62 0018 5850     		str	r0, [r3, r1]
  63 001a 5501     		lsls	r5, r2, #5
  64              	.L4:
  65              		.loc 1 161 0
  66 001c 5C19     		adds	r4, r3, r5
  67              		.loc 1 168 0
  68 001e 02F15801 		add	r1, r2, #88
  69 0022 4901     		lsls	r1, r1, #5
  70              		.loc 1 161 0
  71 0024 C4F81009 		str	r0, [r4, #2320]
  72              		.loc 1 162 0
  73 0028 C4F80869 		str	r6, [r4, #2312]
  74              		.loc 1 168 0
  75 002c 53F80180 		ldr	r8, [r3, r1]
  76 0030 B8F1000F 		cmp	r8, #0
  77              		.loc 1 175 0
  78 0034 A8BF     		it	ge
  79 0036 5850     		strge	r0, [r3, r1]
  80              		.loc 1 168 0
  81 0038 16DB     		blt	.L19
  82              	.L7:
  83              		.loc 1 176 0
  84 003a 5D19     		adds	r5, r3, r5
  85              		.loc 1 149 0
  86 003c 0132     		adds	r2, r2, #1
  87              	.LVL4:
  88 003e BA42     		cmp	r2, r7
  89              		.loc 1 176 0
  90 0040 C5F8100B 		str	r0, [r5, #2832]
  91              		.loc 1 177 0
  92 0044 C5F8086B 		str	r6, [r5, #2824]
  93              		.loc 1 149 0
  94 0048 15D8     		bhi	.L20
  95              	.LVL5:
  96              	.L8:
  97              		.loc 1 153 0
  98 004a 02F14801 		add	r1, r2, #72
  99 004e 4901     		lsls	r1, r1, #5
 100 0050 5C58     		ldr	r4, [r3, r1]
 101 0052 002C     		cmp	r4, #0
 102 0054 E0DA     		bge	.L2
 103 0056 5501     		lsls	r5, r2, #5
 104              		.loc 1 154 0
 105 0058 43F801C0 		str	ip, [r3, r1]
 106              		.loc 1 156 0
 107 005c 5C19     		adds	r4, r3, r5
 108              	.L3:
 109              		.loc 1 156 0 is_stmt 0 discriminator 1
 110 005e D4F80819 		ldr	r1, [r4, #2312]
 111 0062 8907     		lsls	r1, r1, #30
 112 0064 FBD5     		bpl	.L3
 113 0066 D9E7     		b	.L4
 114              	.L19:
ARM GAS  /tmp/cc2MRpHc.s 			page 3


 115              		.loc 1 169 0 is_stmt 1
 116 0068 43F801C0 		str	ip, [r3, r1]
 117              	.L6:
 118              		.loc 1 171 0 discriminator 1
 119 006c D4F8081B 		ldr	r1, [r4, #2824]
 120 0070 C906     		lsls	r1, r1, #27
 121 0072 FBD5     		bpl	.L6
 122 0074 E1E7     		b	.L7
 123              	.LVL6:
 124              	.L20:
 125              		.loc 1 179 0
 126 0076 4FF00112 		mov	r2, #65537
 127              	.LVL7:
 128 007a C3F81C28 		str	r2, [r3, #2076]
 129              		.loc 1 180 0
 130 007e BDE8F001 		pop	{r4, r5, r6, r7, r8}
 131 0082 7047     		bx	lr
 132              		.cfi_endproc
 133              	.LFE120:
 134              		.size	otg_disable_ep, .-otg_disable_ep
 135 0084 AFF30080 		.section	.text.otg_epout_handler,"ax",%progbits
 135      AFF30080 
 135      AFF30080 
 136              		.align	2
 137              		.p2align 4,,15
 138              		.thumb
 139              		.thumb_func
 140              		.type	otg_epout_handler, %function
 141              	otg_epout_handler:
 142              	.LFB134:
 143              		.loc 1 580 0
 144              		.cfi_startproc
 145              		@ args = 0, pretend = 0, frame = 0
 146              		@ frame_needed = 0, uses_anonymous_args = 0
 147              	.LVL8:
 148 0000 F8B5     		push	{r3, r4, r5, r6, r7, lr}
 149              	.LCFI1:
 150              		.cfi_def_cfa_offset 24
 151              		.cfi_offset 3, -24
 152              		.cfi_offset 4, -20
 153              		.cfi_offset 5, -16
 154              		.cfi_offset 6, -12
 155              		.cfi_offset 7, -8
 156              		.cfi_offset 14, -4
 157              		.loc 1 581 0
 158 0002 C46B     		ldr	r4, [r0, #60]
 159              	.LVL9:
 160              		.loc 1 582 0
 161 0004 04EB4113 		add	r3, r4, r1, lsl #5
 162              		.loc 1 585 0
 163 0008 4FF0FF32 		mov	r2, #-1
 164              		.loc 1 582 0
 165 000c D3F8086B 		ldr	r6, [r3, #2824]
 166              	.LVL10:
 167              		.loc 1 585 0
 168 0010 C3F8082B 		str	r2, [r3, #2824]
 169              		.loc 1 587 0
ARM GAS  /tmp/cc2MRpHc.s 			page 4


 170 0014 3307     		lsls	r3, r6, #28
 171              		.loc 1 580 0
 172 0016 0546     		mov	r5, r0
 173 0018 0F46     		mov	r7, r1
 174              		.loc 1 587 0
 175 001a 03D5     		bpl	.L22
 176              		.loc 1 587 0 is_stmt 0 discriminator 1
 177 001c D4F81438 		ldr	r3, [r4, #2068]
 178 0020 1A07     		lsls	r2, r3, #28
 179 0022 15D4     		bmi	.L36
 180              	.LVL11:
 181              	.L22:
 182              		.loc 1 593 0 is_stmt 1
 183 0024 F307     		lsls	r3, r6, #31
 184 0026 03D5     		bpl	.L21
 185              		.loc 1 593 0 is_stmt 0 discriminator 1
 186 0028 D4F81438 		ldr	r3, [r4, #2068]
 187 002c D807     		lsls	r0, r3, #31
 188 002e 00D4     		bmi	.L37
 189              	.L21:
 190 0030 F8BD     		pop	{r3, r4, r5, r6, r7, pc}
 191              	.L37:
 192              		.loc 1 595 0 is_stmt 1
 193 0032 3B1D     		adds	r3, r7, #4
 194 0034 E989     		ldrh	r1, [r5, #14]
 195 0036 55F82330 		ldr	r3, [r5, r3, lsl #2]
 196 003a 0122     		movs	r2, #1
 197 003c 02FA07F2 		lsl	r2, r2, r7
 198 0040 21EA0202 		bic	r2, r1, r2
 199 0044 EA81     		strh	r2, [r5, #14]	@ movhi
 200 0046 DB68     		ldr	r3, [r3, #12]
 201 0048 2846     		mov	r0, r5
 202 004a 3946     		mov	r1, r7
 203 004c 9847     		blx	r3
 204              	.LVL12:
 205 004e F8BD     		pop	{r3, r4, r5, r6, r7, pc}
 206              	.LVL13:
 207              	.L36:
 208              		.loc 1 590 0
 209 0050 0B1D     		adds	r3, r1, #4
 210 0052 50F82330 		ldr	r3, [r0, r3, lsl #2]
 211 0056 5B68     		ldr	r3, [r3, #4]
 212 0058 9847     		blx	r3
 213              	.LVL14:
 214 005a E3E7     		b	.L22
 215              		.cfi_endproc
 216              	.LFE134:
 217              		.size	otg_epout_handler, .-otg_epout_handler
 218 005c AFF30080 		.section	.text.otg_txfifo_flush,"ax",%progbits
 219              		.align	2
 220              		.p2align 4,,15
 221              		.thumb
 222              		.thumb_func
 223              		.type	otg_txfifo_flush, %function
 224              	otg_txfifo_flush:
 225              	.LFB122:
 226              		.loc 1 192 0
ARM GAS  /tmp/cc2MRpHc.s 			page 5


 227              		.cfi_startproc
 228              		@ args = 0, pretend = 0, frame = 0
 229              		@ frame_needed = 0, uses_anonymous_args = 0
 230              		@ link register save eliminated.
 231              	.LVL15:
 232              		.loc 1 193 0
 233 0000 C26B     		ldr	r2, [r0, #60]
 234              	.LVL16:
 235              		.loc 1 195 0
 236 0002 8901     		lsls	r1, r1, #6
 237              	.LVL17:
 238 0004 41F02003 		orr	r3, r1, #32
 239 0008 1361     		str	r3, [r2, #16]
 240              	.L39:
 241              		.loc 1 196 0 discriminator 1
 242 000a 1369     		ldr	r3, [r2, #16]
 243 000c 9906     		lsls	r1, r3, #26
 244 000e FCD4     		bmi	.L39
 245              		.loc 1 199 0
 246 0010 0C20     		movs	r0, #12
 247              	.LVL18:
 248              		.loc 1 200 0
 249              		.loc 1 199 0
 250 0012 FFF7FEBF 		b	halPolledDelay
 251              	.LVL19:
 252              		.cfi_endproc
 253              	.LFE122:
 254              		.size	otg_txfifo_flush, .-otg_txfifo_flush
 255 0016 00BFAFF3 		.section	.text.usb_lld_pump,"ax",%progbits
 255      0080AFF3 
 255      0080
 256              		.align	2
 257              		.p2align 4,,15
 258              		.thumb
 259              		.thumb_func
 260              		.type	usb_lld_pump, %function
 261              	usb_lld_pump:
 262              	.LFB136:
 263              		.loc 1 679 0
 264              		.cfi_startproc
 265              		@ args = 0, pretend = 0, frame = 24
 266              		@ frame_needed = 0, uses_anonymous_args = 0
 267              	.LVL20:
 268 0000 2DE9F04F 		push	{r4, r5, r6, r7, r8, r9, sl, fp, lr}
 269              	.LCFI2:
 270              		.cfi_def_cfa_offset 36
 271              		.cfi_offset 4, -36
 272              		.cfi_offset 5, -32
 273              		.cfi_offset 6, -28
 274              		.cfi_offset 7, -24
 275              		.cfi_offset 8, -20
 276              		.cfi_offset 9, -16
 277              		.cfi_offset 10, -12
 278              		.cfi_offset 11, -8
 279              		.cfi_offset 14, -4
 280              		.loc 1 683 0
 281 0004 40F20001 		movw	r1, #:lower16:rlist
ARM GAS  /tmp/cc2MRpHc.s 			page 6


 282 0008 C0F20001 		movt	r1, #:upper16:rlist
 283              		.loc 1 679 0
 284 000c 87B0     		sub	sp, sp, #28
 285              	.LCFI3:
 286              		.cfi_def_cfa_offset 64
 287              		.loc 1 683 0
 288 000e 8A69     		ldr	r2, [r1, #24]
 289              		.loc 1 681 0
 290 0010 C16B     		ldr	r1, [r0, #60]
 291 0012 0191     		str	r1, [sp, #4]
 292              		.loc 1 683 0
 293 0014 AE49     		ldr	r1, .L163
 294              		.loc 1 679 0
 295 0016 8046     		mov	r8, r0
 296              	.LVL21:
 297              		.loc 1 683 0
 298 0018 9161     		str	r1, [r2, #24]
 299              	.LBB81:
 300              		.loc 1 684 0
 301 001a 2023     		movs	r3, #32
 302              	.LVL22:
 303              	@ 684 "../../ChibiOS/os/hal/platforms/STM32/OTGv1/usb_lld.c" 1
 304 001c 83F31188 		msr     BASEPRI, r3
 305              	@ 0 "" 2
 306              	.LVL23:
 307              		.thumb
 308              	.LBE81:
 309 0020 FFF7FEFF 		bl	dbg_check_lock
 310              	.LVL24:
 311              	.LBB82:
 312              	.LBB83:
 313              		.loc 1 696 0
 314 0024 4FF00009 		mov	r9, #0
 315              	.LVL25:
 316              	.L98:
 317              	.LBE83:
 318              		.loc 1 690 0
 319 0028 98F80030 		ldrb	r3, [r8, #0]	@ zero_extendqisi2
 320 002c 012B     		cmp	r3, #1
 321 002e 06D0     		beq	.L42
 322              		.loc 1 690 0 is_stmt 0 discriminator 1
 323 0030 D8F84830 		ldr	r3, [r8, #72]
 324 0034 9BB9     		cbnz	r3, .L43
 325              		.loc 1 691 0 is_stmt 1
 326 0036 019A     		ldr	r2, [sp, #4]
 327 0038 5369     		ldr	r3, [r2, #20]
 328 003a D806     		lsls	r0, r3, #27
 329 003c 0FD4     		bmi	.L43
 330              	.L42:
 331              		.loc 1 692 0
 332 003e 0199     		ldr	r1, [sp, #4]
 333 0040 8A69     		ldr	r2, [r1, #24]
 334              		.loc 1 693 0
 335 0042 40F20001 		movw	r1, #:lower16:rlist
 336 0046 C0F20001 		movt	r1, #:upper16:rlist
 337              		.loc 1 692 0
 338 004a 42F01002 		orr	r2, r2, #16
ARM GAS  /tmp/cc2MRpHc.s 			page 7


 339              		.loc 1 693 0
 340 004e 8B69     		ldr	r3, [r1, #24]
 341              		.loc 1 692 0
 342 0050 0199     		ldr	r1, [sp, #4]
 343              		.loc 1 694 0
 344 0052 0220     		movs	r0, #2
 345              		.loc 1 692 0
 346 0054 8A61     		str	r2, [r1, #24]
 347              		.loc 1 693 0
 348 0056 C8F85030 		str	r3, [r8, #80]
 349              		.loc 1 694 0
 350 005a FFF7FEFF 		bl	chSchGoSleepS
 351              	.LVL26:
 352              	.L43:
 353              		.loc 1 696 0
 354 005e FFF7FEFF 		bl	dbg_check_unlock
 355              	.LVL27:
 356              	.LBB84:
 357 0062 0023     		movs	r3, #0
 358              	.LVL28:
 359              	@ 696 "../../ChibiOS/os/hal/platforms/STM32/OTGv1/usb_lld.c" 1
 360 0064 83F31188 		msr     BASEPRI, r3
 361              	@ 0 "" 2
 362              	.LVL29:
 363              		.loc 1 699 0
 364              		.thumb
 365 0068 1C46     		mov	r4, r3
 366              	.LVL30:
 367              	.L146:
 368              	.LBE84:
 369              		.loc 1 702 0 discriminator 1
 370 006a 019A     		ldr	r2, [sp, #4]
 371 006c 5369     		ldr	r3, [r2, #20]
 372 006e 13F01005 		ands	r5, r3, #16
 373 0072 25D0     		beq	.L157
 374              	.L67:
 375              	.LVL31:
 376              	.LBB85:
 377              	.LBB86:
 378              		.loc 1 452 0
 379 0074 D8F83C10 		ldr	r1, [r8, #60]
 380 0078 0E6A     		ldr	r6, [r1, #32]
 381              	.LVL32:
 382              		.loc 1 453 0
 383 007a 06F4F013 		and	r3, r6, #1966080
 384 007e B3F5802F 		cmp	r3, #262144
 385 0082 34D0     		beq	.L46
 386 0084 B3F5402F 		cmp	r3, #786432
 387 0088 EFD1     		bne	.L146
 388              	.LVL33:
 389              		.loc 1 458 0
 390 008a 06F00F02 		and	r2, r6, #15
 391              	.LVL34:
 392              		.loc 1 459 0
 393 008e 0432     		adds	r2, r2, #4
 394              	.LVL35:
 395              		.loc 1 457 0
ARM GAS  /tmp/cc2MRpHc.s 			page 8


 396 0090 C6F30A13 		ubfx	r3, r6, #4, #11
 397              		.loc 1 459 0
 398 0094 58F82220 		ldr	r2, [r8, r2, lsl #2]
 399              	.LVL36:
 400              	.LBB87:
 401              	.LBB88:
 402              		.loc 1 370 0
 403 0098 0333     		adds	r3, r3, #3
 404              		.loc 1 372 0
 405 009a 9B08     		lsrs	r3, r3, #2
 406              	.LBE88:
 407              	.LBE87:
 408              		.loc 1 459 0
 409 009c 106A     		ldr	r0, [r2, #32]
 410              	.LVL37:
 411              	.LBB91:
 412              	.LBB90:
 413              		.loc 1 372 0
 414 009e E4D0     		beq	.L146
 415 00a0 0222     		movs	r2, #2
 416 00a2 01F5805E 		add	lr, r1, #4096
 417              	.LVL38:
 418              	.L48:
 419              	.LBB89:
 420              		.loc 1 373 0
 421 00a6 DEF80010 		ldr	r1, [lr, #0]
 422              	.LVL39:
 423              		.loc 1 374 0
 424 00aa 12B1     		cbz	r2, .L50
 425              		.loc 1 377 0
 426 00ac 40F8041B 		str	r1, [r0], #4
 427              	.LVL40:
 428              		.loc 1 379 0
 429 00b0 013A     		subs	r2, r2, #1
 430              	.LVL41:
 431              	.L50:
 432              	.LBE89:
 433              		.loc 1 372 0
 434 00b2 013B     		subs	r3, r3, #1
 435              	.LVL42:
 436 00b4 F7D1     		bne	.L48
 437              	.LBE90:
 438              	.LBE91:
 439              	.LBE86:
 440              	.LBE85:
 441              		.loc 1 702 0
 442 00b6 019A     		ldr	r2, [sp, #4]
 443              	.LVL43:
 444 00b8 5369     		ldr	r3, [r2, #20]
 445              	.LVL44:
 446 00ba 13F01005 		ands	r5, r3, #16
 447 00be D9D1     		bne	.L67
 448              	.LVL45:
 449              	.L157:
 450              		.loc 1 706 0
 451 00c0 0121     		movs	r1, #1
 452              		.loc 1 707 0
ARM GAS  /tmp/cc2MRpHc.s 			page 9


 453 00c2 D8F84830 		ldr	r3, [r8, #72]
 454              		.loc 1 706 0
 455 00c6 A140     		lsls	r1, r1, r4
 456              		.loc 1 707 0
 457 00c8 1942     		tst	r1, r3
 458              		.loc 1 706 0
 459 00ca 0391     		str	r1, [sp, #12]
 460              	.LVL46:
 461              		.loc 1 707 0
 462 00cc 40F08580 		bne	.L148
 463 00d0 0134     		adds	r4, r4, #1
 464 00d2 0494     		str	r4, [sp, #16]
 465              	.LVL47:
 466              	.L68:
 467              		.loc 1 699 0
 468 00d4 D8F84030 		ldr	r3, [r8, #64]
 469              	.LVL48:
 470 00d8 049A     		ldr	r2, [sp, #16]
 471 00da 9B68     		ldr	r3, [r3, #8]
 472 00dc D4B2     		uxtb	r4, r2
 473              	.LVL49:
 474 00de 9C42     		cmp	r4, r3
 475 00e0 C3D9     		bls	.L146
 476              	.LBB107:
 477              		.loc 1 731 0
 478 00e2 2023     		movs	r3, #32
 479              	.LVL50:
 480              	@ 731 "../../ChibiOS/os/hal/platforms/STM32/OTGv1/usb_lld.c" 1
 481 00e4 83F31188 		msr     BASEPRI, r3
 482              	@ 0 "" 2
 483              	.LVL51:
 484              		.thumb
 485              	.LBE107:
 486 00e8 FFF7FEFF 		bl	dbg_check_lock
 487              	.LVL52:
 488              	.LBE82:
 489              		.loc 1 732 0
 490 00ec 9CE7     		b	.L98
 491              	.LVL53:
 492              	.L46:
 493              	.LBB143:
 494              	.LBB108:
 495              	.LBB106:
 496              		.loc 1 464 0
 497 00ee 06F00F07 		and	r7, r6, #15
 498              		.loc 1 465 0
 499 00f2 0437     		adds	r7, r7, #4
 500              		.loc 1 463 0
 501 00f4 C6F30A16 		ubfx	r6, r6, #4, #11
 502              	.LVL54:
 503              		.loc 1 465 0
 504 00f8 58F82730 		ldr	r3, [r8, r7, lsl #2]
 505 00fc 9869     		ldr	r0, [r3, #24]
 506 00fe 0368     		ldr	r3, [r0, #0]
 507 0100 DBB9     		cbnz	r3, .L158
 508              		.loc 1 472 0
 509 0102 021D     		adds	r2, r0, #4
ARM GAS  /tmp/cc2MRpHc.s 			page 10


 510 0104 2CCA     		ldmia	r2, {r2, r3, r5}
 511              	.LVL55:
 512 0106 0332     		adds	r2, r2, #3
 513              	.LVL56:
 514              	.LBB92:
 515              	.LBB93:
 516              		.loc 1 371 0
 517 0108 D21A     		subs	r2, r2, r3
 518              		.loc 1 370 0
 519 010a F31C     		adds	r3, r6, #3
 520              	.LVL57:
 521              		.loc 1 371 0
 522 010c 9208     		lsrs	r2, r2, #2
 523              	.LVL58:
 524              		.loc 1 372 0
 525 010e 9B08     		lsrs	r3, r3, #2
 526              	.LVL59:
 527 0110 0AD0     		beq	.L64
 528 0112 01F5805E 		add	lr, r1, #4096
 529              	.LVL60:
 530              	.L66:
 531              	.LBB94:
 532              		.loc 1 373 0
 533 0116 DEF80010 		ldr	r1, [lr, #0]
 534              	.LVL61:
 535              		.loc 1 374 0
 536 011a 12B1     		cbz	r2, .L65
 537              		.loc 1 377 0
 538 011c 45F8041B 		str	r1, [r5], #4
 539              	.LVL62:
 540              		.loc 1 379 0
 541 0120 013A     		subs	r2, r2, #1
 542              	.LVL63:
 543              	.L65:
 544              	.LBE94:
 545              		.loc 1 372 0
 546 0122 013B     		subs	r3, r3, #1
 547              	.LVL64:
 548 0124 F7D1     		bne	.L66
 549 0126 C568     		ldr	r5, [r0, #12]
 550              	.LVL65:
 551              	.L64:
 552              	.LBE93:
 553              	.LBE92:
 554              		.loc 1 477 0
 555 0128 AD19     		adds	r5, r5, r6
 556 012a C560     		str	r5, [r0, #12]
 557              	.LVL66:
 558              	.L62:
 559              		.loc 1 479 0
 560 012c 58F82730 		ldr	r3, [r8, r7, lsl #2]
 561              	.LVL67:
 562 0130 9B69     		ldr	r3, [r3, #24]
 563 0132 9A68     		ldr	r2, [r3, #8]
 564 0134 9219     		adds	r2, r2, r6
 565 0136 9A60     		str	r2, [r3, #8]
 566 0138 97E7     		b	.L146
ARM GAS  /tmp/cc2MRpHc.s 			page 11


 567              	.L158:
 568              		.loc 1 467 0
 569 013a 01F5805E 		add	lr, r1, #4096
 570 013e C568     		ldr	r5, [r0, #12]
 571              	.LVL68:
 572              	.LBB95:
 573              	.LBB96:
 574              		.loc 1 400 0
 575 0140 5EB3     		cbz	r6, .L53
 576 0142 3046     		mov	r0, r6
 577              	.LVL69:
 578              	.L145:
 579              	.LBB97:
 580              		.loc 1 404 0
 581 0144 0328     		cmp	r0, #3
 582 0146 07D9     		bls	.L57
 583              	.LVL70:
 584              	.L159:
 585              	.LBB98:
 586              		.loc 1 410 0
 587 0148 6B69     		ldr	r3, [r5, #20]
 588 014a 2A69     		ldr	r2, [r5, #16]
 589 014c 9342     		cmp	r3, r2
 590 014e 41D3     		bcc	.L58
 591              		.loc 1 411 0
 592 0150 EB68     		ldr	r3, [r5, #12]
 593              	.LBE98:
 594              		.loc 1 404 0
 595 0152 0328     		cmp	r0, #3
 596              	.LBB99:
 597              		.loc 1 411 0
 598 0154 6B61     		str	r3, [r5, #20]
 599              	.LVL71:
 600              	.LBE99:
 601              		.loc 1 404 0
 602 0156 F7D8     		bhi	.L159
 603              	.LVL72:
 604              	.L57:
 605              		.loc 1 422 0
 606 0158 DEF800C0 		ldr	ip, [lr, #0]
 607              	.LVL73:
 608              		.loc 1 424 0
 609 015c E8B1     		cbz	r0, .L53
 610 015e 6B69     		ldr	r3, [r5, #20]
 611              	.L99:
 612              	.LBE97:
 613              		.loc 1 400 0
 614 0160 0022     		movs	r2, #0
 615 0162 00E0     		b	.L61
 616              	.LVL74:
 617              	.L160:
 618 0164 6B69     		ldr	r3, [r5, #20]
 619              	.LVL75:
 620              	.L61:
 621              	.LBB100:
 622              		.loc 1 679 0
 623 0166 D100     		lsls	r1, r2, #3
ARM GAS  /tmp/cc2MRpHc.s 			page 12


 624              		.loc 1 425 0
 625 0168 2CFA01F1 		lsr	r1, ip, r1
 626 016c 03F8011B 		strb	r1, [r3], #1
 627              		.loc 1 426 0
 628 0170 2969     		ldr	r1, [r5, #16]
 629              		.loc 1 425 0
 630 0172 6B61     		str	r3, [r5, #20]
 631              		.loc 1 426 0
 632 0174 8B42     		cmp	r3, r1
 633              		.loc 1 427 0
 634 0176 24BF     		itt	cs
 635 0178 EB68     		ldrcs	r3, [r5, #12]
 636 017a 6B61     		strcs	r3, [r5, #20]
 637              		.loc 1 424 0
 638 017c 0138     		subs	r0, r0, #1
 639              	.LVL76:
 640              		.loc 1 429 0
 641 017e 02F10102 		add	r2, r2, #1
 642              	.LVL77:
 643              		.loc 1 424 0
 644 0182 0CBF     		ite	eq
 645 0184 0023     		moveq	r3, #0
 646 0186 0123     		movne	r3, #1
 647 0188 032A     		cmp	r2, #3
 648 018a 8CBF     		ite	hi
 649 018c 0023     		movhi	r3, #0
 650 018e 03F00103 		andls	r3, r3, #1
 651 0192 002B     		cmp	r3, #0
 652 0194 E6D1     		bne	.L160
 653              	.LVL78:
 654              	.LBE100:
 655              		.loc 1 400 0
 656 0196 0028     		cmp	r0, #0
 657 0198 D4D1     		bne	.L145
 658              	.LVL79:
 659              	.L53:
 660              	.LBB101:
 661              		.loc 1 434 0
 662 019a 2023     		movs	r3, #32
 663              	.LVL80:
 664              	@ 434 "../../ChibiOS/os/hal/platforms/STM32/OTGv1/usb_lld.c" 1
 665 019c 83F31188 		msr     BASEPRI, r3
 666              	@ 0 "" 2
 667              	.LVL81:
 668              		.thumb
 669              	.LBE101:
 670 01a0 FFF7FEFF 		bl	dbg_check_lock
 671              	.LVL82:
 672              		.loc 1 435 0
 673 01a4 AB68     		ldr	r3, [r5, #8]
 674              		.loc 1 436 0
 675 01a6 2868     		ldr	r0, [r5, #0]
 676              		.loc 1 435 0
 677 01a8 9B19     		adds	r3, r3, r6
 678              		.loc 1 436 0
 679 01aa A842     		cmp	r0, r5
 680              		.loc 1 435 0
ARM GAS  /tmp/cc2MRpHc.s 			page 13


 681 01ac AB60     		str	r3, [r5, #8]
 682              		.loc 1 436 0
 683 01ae 09D0     		beq	.L56
 684              	.L125:
 685              	.LVL83:
 686              	.LBB102:
 687              	.LBB103:
 688              		.file 2 "../../ChibiOS/os/kernel/include/chinline.h"
 689              		.loc 2 55 0
 690 01b0 0368     		ldr	r3, [r0, #0]
 691 01b2 2B60     		str	r3, [r5, #0]
 692 01b4 5D60     		str	r5, [r3, #4]
 693              	.LBE103:
 694              	.LBE102:
 695              		.loc 1 437 0
 696 01b6 FFF7FEFF 		bl	chSchReadyI
 697              	.LVL84:
 698 01ba C0F82890 		str	r9, [r0, #40]
 699              		.loc 1 436 0
 700 01be 2868     		ldr	r0, [r5, #0]
 701 01c0 A842     		cmp	r0, r5
 702 01c2 F5D1     		bne	.L125
 703              	.LVL85:
 704              	.L56:
 705              		.loc 1 438 0
 706 01c4 FFF7FEFF 		bl	chSchRescheduleS
 707              	.LVL86:
 708              		.loc 1 439 0
 709 01c8 FFF7FEFF 		bl	dbg_check_unlock
 710              	.LVL87:
 711              	.LBB104:
 712 01cc 0023     		movs	r3, #0
 713              	@ 439 "../../ChibiOS/os/hal/platforms/STM32/OTGv1/usb_lld.c" 1
 714 01ce 83F31188 		msr     BASEPRI, r3
 715              	@ 0 "" 2
 716              	.LVL88:
 717              		.thumb
 718 01d2 ABE7     		b	.L62
 719              	.LVL89:
 720              	.L58:
 721              	.LBE104:
 722              	.LBB105:
 723              		.loc 1 422 0
 724 01d4 DEF800C0 		ldr	ip, [lr, #0]
 725              	.LVL90:
 726 01d8 C2E7     		b	.L99
 727              	.LVL91:
 728              	.L148:
 729              	.LBE105:
 730              	.LBE96:
 731              	.LBE95:
 732              	.LBE106:
 733              	.LBE108:
 734              	.LBB109:
 735              	.LBB110:
 736              		.loc 1 710 0
 737 01da 2023     		movs	r3, #32
ARM GAS  /tmp/cc2MRpHc.s 			page 14


 738              	.LVL92:
 739              	@ 710 "../../ChibiOS/os/hal/platforms/STM32/OTGv1/usb_lld.c" 1
 740 01dc 83F31188 		msr     BASEPRI, r3
 741              	@ 0 "" 2
 742              	.LVL93:
 743              		.thumb
 744              	.LBE110:
 745 01e0 FFF7FEFF 		bl	dbg_check_lock
 746              	.LVL94:
 747              		.loc 1 718 0
 748 01e4 0199     		ldr	r1, [sp, #4]
 749              		.loc 1 719 0
 750 01e6 D8F84830 		ldr	r3, [r8, #72]
 751              		.loc 1 718 0
 752 01ea 8A68     		ldr	r2, [r1, #8]
 753              		.loc 1 719 0
 754 01ec 0399     		ldr	r1, [sp, #12]
 755 01ee 23EA0103 		bic	r3, r3, r1
 756              		.loc 1 718 0
 757 01f2 0199     		ldr	r1, [sp, #4]
 758 01f4 22F00102 		bic	r2, r2, #1
 759 01f8 8A60     		str	r2, [r1, #8]
 760              		.loc 1 719 0
 761 01fa C8F84830 		str	r3, [r8, #72]
 762              		.loc 1 720 0
 763 01fe FFF7FEFF 		bl	dbg_check_unlock
 764              	.LVL95:
 765              	.LBB111:
 766 0202 2B46     		mov	r3, r5
 767              	.LVL96:
 768              	@ 720 "../../ChibiOS/os/hal/platforms/STM32/OTGv1/usb_lld.c" 1
 769 0204 83F31188 		msr     BASEPRI, r3
 770              	@ 0 "" 2
 771              	.LVL97:
 772              		.thumb
 773              	.LBE111:
 774              	.LBB112:
 775              	.LBB113:
 776              		.loc 1 503 0
 777 0208 261D     		adds	r6, r4, #4
 778 020a 58F82650 		ldr	r5, [r8, r6, lsl #2]
 779 020e 6869     		ldr	r0, [r5, #20]
 780 0210 8368     		ldr	r3, [r0, #8]
 781              	.LVL98:
 782 0212 4168     		ldr	r1, [r0, #4]
 783 0214 9942     		cmp	r1, r3
 784 0216 40F2CD80 		bls	.L161
 785              		.loc 1 513 0
 786 021a D8F83C20 		ldr	r2, [r8, #60]
 787              		.loc 1 508 0
 788 021e 2D8A     		ldrh	r5, [r5, #16]
 789              		.loc 1 513 0
 790 0220 6701     		lsls	r7, r4, #5
 791 0222 02EB070E 		add	lr, r2, r7
 792              		.loc 1 507 0
 793 0226 C91A     		subs	r1, r1, r3
 794              	.LVL99:
ARM GAS  /tmp/cc2MRpHc.s 			page 15


 795              		.loc 1 513 0
 796 0228 DEF81839 		ldr	r3, [lr, #2328]
 797 022c A942     		cmp	r1, r5
 798 022e 38BF     		it	cc
 799 0230 0D46     		movcc	r5, r1
 800              	.LVL100:
 801 0232 9BB2     		uxth	r3, r3
 802 0234 0134     		adds	r4, r4, #1
 803              	.LVL101:
 804 0236 B5EB830F 		cmp	r5, r3, lsl #2
 805 023a 0494     		str	r4, [sp, #16]
 806 023c 2FD8     		bhi	.L72
 807              		.loc 1 528 0
 808 023e 2103     		lsls	r1, r4, #12
 809 0240 0291     		str	r1, [sp, #8]
 810              	.LVL102:
 811              	.L73:
 812              		.loc 1 520 0
 813 0242 0368     		ldr	r3, [r0, #0]
 814 0244 002B     		cmp	r3, #0
 815 0246 45D1     		bne	.L162
 816              	.LBB114:
 817              	.LBB115:
 818              		.loc 1 269 0
 819 0248 EB1C     		adds	r3, r5, #3
 820              	.LBE115:
 821              	.LBE114:
 822              		.loc 1 528 0
 823 024a 0299     		ldr	r1, [sp, #8]
 824              	.LBB122:
 825              	.LBB120:
 826              	.LBB116:
 827              	.LBB117:
 828              		.loc 1 246 0
 829 024c 9B08     		lsrs	r3, r3, #2
 830              	.LBE117:
 831              	.LBE116:
 832              	.LBE120:
 833              	.LBE122:
 834              		.loc 1 528 0
 835 024e 02EB010C 		add	ip, r2, r1
 836 0252 C268     		ldr	r2, [r0, #12]
 837              	.LVL103:
 838              	.LBB123:
 839              	.LBB121:
 840              	.LBB119:
 841              	.LBB118:
 842              		.loc 1 246 0
 843 0254 08D0     		beq	.L91
 844              		.loc 1 679 0
 845 0256 0432     		adds	r2, r2, #4
 846              	.LVL104:
 847              	.L92:
 848              		.loc 1 249 0
 849 0258 52F8041C 		ldr	r1, [r2, #-4]
 850 025c 0432     		adds	r2, r2, #4
 851              		.loc 1 246 0
ARM GAS  /tmp/cc2MRpHc.s 			page 16


 852 025e 013B     		subs	r3, r3, #1
 853              		.loc 1 249 0
 854 0260 CCF80010 		str	r1, [ip, #0]
 855              		.loc 1 246 0
 856 0264 F8D1     		bne	.L92
 857 0266 C268     		ldr	r2, [r0, #12]
 858              	.L91:
 859              	.LBE118:
 860              	.LBE119:
 861              	.LBE121:
 862              	.LBE123:
 863              		.loc 1 531 0
 864 0268 5219     		adds	r2, r2, r5
 865 026a C260     		str	r2, [r0, #12]
 866              	.LVL105:
 867              	.L89:
 868              		.loc 1 533 0
 869 026c 58F82640 		ldr	r4, [r8, r6, lsl #2]
 870 0270 6069     		ldr	r0, [r4, #20]
 871 0272 8368     		ldr	r3, [r0, #8]
 872              	.LVL106:
 873              		.loc 1 503 0
 874 0274 4168     		ldr	r1, [r0, #4]
 875              		.loc 1 533 0
 876 0276 EB18     		adds	r3, r5, r3
 877              		.loc 1 503 0
 878 0278 9942     		cmp	r1, r3
 879              		.loc 1 533 0
 880 027a 8360     		str	r3, [r0, #8]
 881              		.loc 1 503 0
 882 027c 40F29C80 		bls	.L93
 883              		.loc 1 513 0
 884 0280 D8F83C20 		ldr	r2, [r8, #60]
 885              		.loc 1 508 0
 886 0284 248A     		ldrh	r4, [r4, #16]
 887              		.loc 1 513 0
 888 0286 02EB070E 		add	lr, r2, r7
 889              		.loc 1 507 0
 890 028a CD1A     		subs	r5, r1, r3
 891              	.LVL107:
 892              		.loc 1 513 0
 893 028c DEF81839 		ldr	r3, [lr, #2328]
 894 0290 A542     		cmp	r5, r4
 895 0292 28BF     		it	cs
 896 0294 2546     		movcs	r5, r4
 897              	.LVL108:
 898 0296 9BB2     		uxth	r3, r3
 899 0298 B5EB830F 		cmp	r5, r3, lsl #2
 900 029c D1D9     		bls	.L73
 901              	.L72:
 902              	.LBB124:
 903              	.LBB125:
 904              	.LBB126:
 905              		.loc 1 514 0
 906 029e 0024     		movs	r4, #0
 907              	.LVL109:
 908              	.L70:
ARM GAS  /tmp/cc2MRpHc.s 			page 17


 909              	.LBE126:
 910              	.LBE125:
 911              	.LBE124:
 912              	.LBE113:
 913              	.LBE112:
 914              	.LBB140:
 915              		.loc 1 724 0
 916 02a0 2023     		movs	r3, #32
 917              	.LVL110:
 918              	@ 724 "../../ChibiOS/os/hal/platforms/STM32/OTGv1/usb_lld.c" 1
 919 02a2 83F31188 		msr     BASEPRI, r3
 920              	@ 0 "" 2
 921              	.LVL111:
 922              		.thumb
 923              	.LBE140:
 924 02a6 FFF7FEFF 		bl	dbg_check_lock
 925              	.LVL112:
 926              		.loc 1 725 0
 927 02aa 019A     		ldr	r2, [sp, #4]
 928 02ac 9368     		ldr	r3, [r2, #8]
 929 02ae 43F00103 		orr	r3, r3, #1
 930 02b2 9360     		str	r3, [r2, #8]
 931              		.loc 1 726 0
 932 02b4 2CB9     		cbnz	r4, .L95
 933              		.loc 1 727 0
 934 02b6 D2F83438 		ldr	r3, [r2, #2100]
 935 02ba 0399     		ldr	r1, [sp, #12]
 936 02bc 0B43     		orrs	r3, r3, r1
 937 02be C2F83438 		str	r3, [r2, #2100]
 938              	.L95:
 939              		.loc 1 728 0
 940 02c2 FFF7FEFF 		bl	dbg_check_unlock
 941              	.LVL113:
 942              	.LBB141:
 943 02c6 0023     		movs	r3, #0
 944              	@ 728 "../../ChibiOS/os/hal/platforms/STM32/OTGv1/usb_lld.c" 1
 945 02c8 83F31188 		msr     BASEPRI, r3
 946              	@ 0 "" 2
 947              	.LVL114:
 948              		.thumb
 949 02cc 02E7     		b	.L68
 950              	.L164:
 951 02ce 00BF     		.align	2
 952              	.L163:
 953 02d0 00000000 		.word	.LC0
 954              	.LVL115:
 955              	.L162:
 956              	.LBE141:
 957              	.LBB142:
 958              	.LBB139:
 959              		.loc 1 522 0
 960 02d4 0299     		ldr	r1, [sp, #8]
 961 02d6 C468     		ldr	r4, [r0, #12]
 962 02d8 02EB010C 		add	ip, r2, r1
 963              	.LVL116:
 964              	.LBB138:
 965              	.LBB137:
ARM GAS  /tmp/cc2MRpHc.s 			page 18


 966              		.loc 1 287 0
 967 02dc 3DB3     		cbz	r5, .L83
 968 02de 2946     		mov	r1, r5
 969 02e0 AE46     		mov	lr, r5
 970 02e2 0596     		str	r6, [sp, #20]
 971              	.LVL117:
 972              	.L88:
 973              	.LBB130:
 974              		.loc 1 291 0
 975 02e4 8808     		lsrs	r0, r1, #2
 976              	.LVL118:
 977 02e6 3FD0     		beq	.L78
 978              	.LBB127:
 979              		.loc 1 293 0
 980 02e8 2569     		ldr	r5, [r4, #16]
 981 02ea A669     		ldr	r6, [r4, #24]
 982              	.LVL119:
 983 02ec AA1B     		subs	r2, r5, r6
 984 02ee D31C     		adds	r3, r2, #3
 985 02f0 32EA2202 		bics	r2, r2, r2, asr #32
 986 02f4 28BF     		it	cs
 987 02f6 1A46     		movcs	r2, r3
 988 02f8 9310     		asrs	r3, r2, #2
 989              		.loc 1 295 0
 990 02fa 9842     		cmp	r0, r3
 991 02fc 38BF     		it	cc
 992 02fe 0346     		movcc	r3, r0
 993              	.LVL120:
 994 0300 4FEA830B 		lsl	fp, r3, #2
 995 0304 CBEB0101 		rsb	r1, fp, r1
 996              	.LVL121:
 997              	.LBB128:
 998              	.LBB129:
 999              		.loc 1 246 0
 1000 0308 43B1     		cbz	r3, .L79
 1001              		.loc 1 679 0
 1002 030a 321D     		adds	r2, r6, #4
 1003              	.LVL122:
 1004              	.L80:
 1005              		.loc 1 249 0
 1006 030c 52F8040C 		ldr	r0, [r2, #-4]
 1007 0310 0432     		adds	r2, r2, #4
 1008              		.loc 1 246 0
 1009 0312 013B     		subs	r3, r3, #1
 1010              		.loc 1 249 0
 1011 0314 CCF80000 		str	r0, [ip, #0]
 1012              		.loc 1 246 0
 1013 0318 F8D1     		bne	.L80
 1014 031a 5E44     		add	r6, r6, fp
 1015              	.LVL123:
 1016              	.L79:
 1017              	.LBE129:
 1018              	.LBE128:
 1019              		.loc 1 297 0
 1020 031c B542     		cmp	r5, r6
 1021              		.loc 1 296 0
 1022 031e A661     		str	r6, [r4, #24]
ARM GAS  /tmp/cc2MRpHc.s 			page 19


 1023              		.loc 1 297 0
 1024 0320 45D8     		bhi	.L81
 1025              		.loc 1 298 0
 1026 0322 E368     		ldr	r3, [r4, #12]
 1027 0324 A361     		str	r3, [r4, #24]
 1028              	.LBE127:
 1029              	.LBE130:
 1030              		.loc 1 287 0
 1031 0326 0029     		cmp	r1, #0
 1032 0328 DCD1     		bne	.L88
 1033              	.LVL124:
 1034              	.L156:
 1035 032a 059E     		ldr	r6, [sp, #20]
 1036 032c 7546     		mov	r5, lr
 1037              	.LVL125:
 1038              	.L83:
 1039              	.LBB131:
 1040              		.loc 1 322 0
 1041 032e 2023     		movs	r3, #32
 1042              	.LVL126:
 1043              	@ 322 "../../ChibiOS/os/hal/platforms/STM32/OTGv1/usb_lld.c" 1
 1044 0330 83F31188 		msr     BASEPRI, r3
 1045              	@ 0 "" 2
 1046              	.LVL127:
 1047              		.thumb
 1048              	.LBE131:
 1049 0334 FFF7FEFF 		bl	dbg_check_lock
 1050              	.LVL128:
 1051              		.loc 1 323 0
 1052 0338 A368     		ldr	r3, [r4, #8]
 1053              		.loc 1 324 0
 1054 033a 2068     		ldr	r0, [r4, #0]
 1055              		.loc 1 323 0
 1056 033c 5B19     		adds	r3, r3, r5
 1057              		.loc 1 324 0
 1058 033e A042     		cmp	r0, r4
 1059              		.loc 1 323 0
 1060 0340 A360     		str	r3, [r4, #8]
 1061              		.loc 1 324 0
 1062 0342 09D0     		beq	.L77
 1063              	.L126:
 1064              	.LVL129:
 1065              	.LBB132:
 1066              	.LBB133:
 1067              		.loc 2 55 0
 1068 0344 0368     		ldr	r3, [r0, #0]
 1069 0346 2360     		str	r3, [r4, #0]
 1070 0348 5C60     		str	r4, [r3, #4]
 1071              	.LBE133:
 1072              	.LBE132:
 1073              		.loc 1 325 0
 1074 034a FFF7FEFF 		bl	chSchReadyI
 1075              	.LVL130:
 1076 034e C0F82890 		str	r9, [r0, #40]
 1077              		.loc 1 324 0
 1078 0352 2068     		ldr	r0, [r4, #0]
 1079 0354 A042     		cmp	r0, r4
ARM GAS  /tmp/cc2MRpHc.s 			page 20


 1080 0356 F5D1     		bne	.L126
 1081              	.LVL131:
 1082              	.L77:
 1083              		.loc 1 326 0
 1084 0358 FFF7FEFF 		bl	chSchRescheduleS
 1085              	.LVL132:
 1086              		.loc 1 327 0
 1087 035c FFF7FEFF 		bl	dbg_check_unlock
 1088              	.LVL133:
 1089              	.LBB134:
 1090 0360 0023     		movs	r3, #0
 1091              	@ 327 "../../ChibiOS/os/hal/platforms/STM32/OTGv1/usb_lld.c" 1
 1092 0362 83F31188 		msr     BASEPRI, r3
 1093              	@ 0 "" 2
 1094              	.LVL134:
 1095              		.thumb
 1096 0366 81E7     		b	.L89
 1097              	.LVL135:
 1098              	.L78:
 1099              	.LBE134:
 1100              	.LBB135:
 1101              		.loc 1 311 0
 1102 0368 0846     		mov	r0, r1
 1103              	.LVL136:
 1104 036a D9B1     		cbz	r1, .L86
 1105              	.LVL137:
 1106 036c 2569     		ldr	r5, [r4, #16]
 1107              	.LVL138:
 1108              	.L85:
 1109              		.loc 1 313 0
 1110 036e 0020     		movs	r0, #0
 1111 0370 0246     		mov	r2, r0
 1112              	.LVL139:
 1113              	.L84:
 1114              		.loc 1 312 0
 1115 0372 A369     		ldr	r3, [r4, #24]
 1116 0374 13F801AB 		ldrb	sl, [r3], #1	@ zero_extendqisi2
 1117              		.loc 1 679 0
 1118 0378 D600     		lsls	r6, r2, #3
 1119              		.loc 1 313 0
 1120 037a AB42     		cmp	r3, r5
 1121              		.loc 1 312 0
 1122 037c A361     		str	r3, [r4, #24]
 1123              		.loc 1 314 0
 1124 037e 24BF     		itt	cs
 1125 0380 E368     		ldrcs	r3, [r4, #12]
 1126 0382 A361     		strcs	r3, [r4, #24]
 1127              		.loc 1 311 0
 1128 0384 0139     		subs	r1, r1, #1
 1129              	.LVL140:
 1130              		.loc 1 316 0
 1131 0386 02F10102 		add	r2, r2, #1
 1132              		.loc 1 311 0
 1133 038a 0CBF     		ite	eq
 1134 038c 0023     		moveq	r3, #0
 1135 038e 0123     		movne	r3, #1
 1136              		.loc 1 312 0
ARM GAS  /tmp/cc2MRpHc.s 			page 21


 1137 0390 0AFA06F6 		lsl	r6, sl, r6
 1138              		.loc 1 311 0
 1139 0394 032A     		cmp	r2, #3
 1140 0396 8CBF     		ite	hi
 1141 0398 0023     		movhi	r3, #0
 1142 039a 03F00103 		andls	r3, r3, #1
 1143              		.loc 1 312 0
 1144 039e 3043     		orrs	r0, r0, r6
 1145              	.LVL141:
 1146              		.loc 1 311 0
 1147 03a0 002B     		cmp	r3, #0
 1148 03a2 E6D1     		bne	.L84
 1149              	.LVL142:
 1150              	.L86:
 1151              		.loc 1 318 0
 1152 03a4 CCF80000 		str	r0, [ip, #0]
 1153              	.LVL143:
 1154              	.LBE135:
 1155              		.loc 1 287 0
 1156 03a8 0029     		cmp	r1, #0
 1157 03aa 9BD1     		bne	.L88
 1158 03ac BDE7     		b	.L156
 1159              	.LVL144:
 1160              	.L81:
 1161              	.LBB136:
 1162              		.loc 1 305 0
 1163 03ae 0029     		cmp	r1, #0
 1164 03b0 DDD1     		bne	.L85
 1165 03b2 BAE7     		b	.L156
 1166              	.LVL145:
 1167              	.L161:
 1168 03b4 0134     		adds	r4, r4, #1
 1169              	.LVL146:
 1170 03b6 0494     		str	r4, [sp, #16]
 1171              	.LVL147:
 1172              	.L93:
 1173              		.loc 1 504 0
 1174 03b8 0124     		movs	r4, #1
 1175 03ba 71E7     		b	.L70
 1176              	.LBE136:
 1177              	.LBE137:
 1178              	.LBE138:
 1179              	.LBE139:
 1180              	.LBE142:
 1181              	.LBE109:
 1182              	.LBE143:
 1183              		.cfi_endproc
 1184              	.LFE136:
 1185              		.size	usb_lld_pump, .-usb_lld_pump
 1186 03bc AFF30080 		.section	.text.otg_epin_handler,"ax",%progbits
 1187              		.align	2
 1188              		.p2align 4,,15
 1189              		.thumb
 1190              		.thumb_func
 1191              		.type	otg_epin_handler, %function
 1192              	otg_epin_handler:
 1193              	.LFB133:
ARM GAS  /tmp/cc2MRpHc.s 			page 22


 1194              		.loc 1 548 0
 1195              		.cfi_startproc
 1196              		@ args = 0, pretend = 0, frame = 0
 1197              		@ frame_needed = 0, uses_anonymous_args = 0
 1198              	.LVL148:
 1199 0000 F8B5     		push	{r3, r4, r5, r6, r7, lr}
 1200              	.LCFI4:
 1201              		.cfi_def_cfa_offset 24
 1202              		.cfi_offset 3, -24
 1203              		.cfi_offset 4, -20
 1204              		.cfi_offset 5, -16
 1205              		.cfi_offset 6, -12
 1206              		.cfi_offset 7, -8
 1207              		.cfi_offset 14, -4
 1208              		.loc 1 549 0
 1209 0002 C46B     		ldr	r4, [r0, #60]
 1210              	.LVL149:
 1211              		.loc 1 550 0
 1212 0004 04EB4113 		add	r3, r4, r1, lsl #5
 1213              		.loc 1 552 0
 1214 0008 4FF0FF32 		mov	r2, #-1
 1215              		.loc 1 550 0
 1216 000c D3F80869 		ldr	r6, [r3, #2312]
 1217              	.LVL150:
 1218              		.loc 1 552 0
 1219 0010 C3F80829 		str	r2, [r3, #2312]
 1220              		.loc 1 557 0
 1221 0014 F307     		lsls	r3, r6, #31
 1222              		.loc 1 548 0
 1223 0016 0546     		mov	r5, r0
 1224 0018 0F46     		mov	r7, r1
 1225              		.loc 1 557 0
 1226 001a 03D5     		bpl	.L166
 1227              		.loc 1 557 0 is_stmt 0 discriminator 1
 1228 001c D4F81038 		ldr	r3, [r4, #2064]
 1229 0020 DA07     		lsls	r2, r3, #31
 1230 0022 23D4     		bmi	.L184
 1231              	.LVL151:
 1232              	.L166:
 1233              		.loc 1 561 0 is_stmt 1
 1234 0024 3306     		lsls	r3, r6, #24
 1235 0026 06D5     		bpl	.L165
 1236              		.loc 1 562 0 discriminator 1
 1237 0028 0122     		movs	r2, #1
 1238 002a D4F83438 		ldr	r3, [r4, #2100]
 1239 002e 02FA07F7 		lsl	r7, r2, r7
 1240              		.loc 1 561 0 discriminator 1
 1241 0032 1F42     		tst	r7, r3
 1242 0034 00D1     		bne	.L185
 1243              	.L165:
 1244 0036 F8BD     		pop	{r3, r4, r5, r6, r7, pc}
 1245              	.L185:
 1246              	.LBB148:
 1247              		.loc 1 564 0
 1248 0038 2023     		movs	r3, #32
 1249              	.LVL152:
 1250              	@ 564 "../../ChibiOS/os/hal/platforms/STM32/OTGv1/usb_lld.c" 1
ARM GAS  /tmp/cc2MRpHc.s 			page 23


 1251 003a 83F31188 		msr     BASEPRI, r3
 1252              	@ 0 "" 2
 1253              	.LVL153:
 1254              		.thumb
 1255              	.LBE148:
 1256 003e FFF7FEFF 		bl	dbg_check_lock_from_isr
 1257              	.LVL154:
 1258              		.loc 1 565 0
 1259 0042 AB6C     		ldr	r3, [r5, #72]
 1260              		.loc 1 566 0
 1261 0044 D4F83428 		ldr	r2, [r4, #2100]
 1262              	.LBB149:
 1263              	.LBB150:
 1264              		.loc 1 126 0
 1265 0048 286D     		ldr	r0, [r5, #80]
 1266              	.LBE150:
 1267              	.LBE149:
 1268              		.loc 1 565 0
 1269 004a 3B43     		orrs	r3, r3, r7
 1270              		.loc 1 566 0
 1271 004c 22EA0707 		bic	r7, r2, r7
 1272              		.loc 1 565 0
 1273 0050 AB64     		str	r3, [r5, #72]
 1274              		.loc 1 566 0
 1275 0052 C4F83478 		str	r7, [r4, #2100]
 1276              	.LVL155:
 1277              	.LBB152:
 1278              	.LBB151:
 1279              		.loc 1 126 0
 1280 0056 18B1     		cbz	r0, .L168
 1281              		.loc 1 127 0
 1282 0058 FFF7FEFF 		bl	chSchReadyI
 1283              	.LVL156:
 1284              		.loc 1 128 0
 1285 005c 0023     		movs	r3, #0
 1286 005e 2B65     		str	r3, [r5, #80]
 1287              	.L168:
 1288              	.LBE151:
 1289              	.LBE152:
 1290              		.loc 1 568 0
 1291 0060 FFF7FEFF 		bl	dbg_check_unlock_from_isr
 1292              	.LVL157:
 1293              	.LBB153:
 1294 0064 0023     		movs	r3, #0
 1295              	.LVL158:
 1296              	@ 568 "../../ChibiOS/os/hal/platforms/STM32/OTGv1/usb_lld.c" 1
 1297 0066 83F31188 		msr     BASEPRI, r3
 1298              	@ 0 "" 2
 1299              	.LVL159:
 1300              		.thumb
 1301 006a F8BD     		pop	{r3, r4, r5, r6, r7, pc}
 1302              	.LVL160:
 1303              	.L184:
 1304              	.LBE153:
 1305              		.loc 1 559 0
 1306 006c 0B1D     		adds	r3, r1, #4
 1307 006e B0F80CE0 		ldrh	lr, [r0, #12]
ARM GAS  /tmp/cc2MRpHc.s 			page 24


 1308 0072 50F82330 		ldr	r3, [r0, r3, lsl #2]
 1309 0076 0122     		movs	r2, #1
 1310 0078 02FA01F2 		lsl	r2, r2, r1
 1311 007c 2EEA0202 		bic	r2, lr, r2
 1312 0080 8281     		strh	r2, [r0, #12]	@ movhi
 1313 0082 9B68     		ldr	r3, [r3, #8]
 1314 0084 9847     		blx	r3
 1315              	.LVL161:
 1316 0086 CDE7     		b	.L166
 1317              		.cfi_endproc
 1318              	.LFE133:
 1319              		.size	otg_epin_handler, .-otg_epin_handler
 1320 0088 AFF30080 		.section	.text.Vector14C,"ax",%progbits
 1320      AFF30080 
 1321              		.align	2
 1322              		.p2align 4,,15
 1323              		.global	Vector14C
 1324              		.thumb
 1325              		.thumb_func
 1326              		.type	Vector14C, %function
 1327              	Vector14C:
 1328              	.LFB137:
 1329              		.loc 1 746 0
 1330              		.cfi_startproc
 1331              		@ args = 0, pretend = 0, frame = 0
 1332              		@ frame_needed = 0, uses_anonymous_args = 0
 1333 0000 70B5     		push	{r4, r5, r6, lr}
 1334              	.LCFI5:
 1335              		.cfi_def_cfa_offset 16
 1336              		.cfi_offset 4, -16
 1337              		.cfi_offset 5, -12
 1338              		.cfi_offset 6, -8
 1339              		.cfi_offset 14, -4
 1340              	.LBB160:
 1341              	.LBB161:
 1342              		.loc 1 607 0
 1343 0002 424E     		ldr	r6, .L258
 1344              	.LBE161:
 1345              	.LBE160:
 1346              		.loc 1 748 0
 1347 0004 FFF7FEFF 		bl	dbg_check_enter_isr
 1348              	.LVL162:
 1349              	.LBB170:
 1350              	.LBB168:
 1351              		.loc 1 607 0
 1352 0008 F56B     		ldr	r5, [r6, #60]
 1353              	.LVL163:
 1354              		.loc 1 610 0
 1355 000a 6B69     		ldr	r3, [r5, #20]
 1356 000c AC69     		ldr	r4, [r5, #24]
 1357 000e 1C40     		ands	r4, r4, r3
 1358              	.LVL164:
 1359              		.loc 1 614 0
 1360 0010 E104     		lsls	r1, r4, #19
 1361              		.loc 1 611 0
 1362 0012 6C61     		str	r4, [r5, #20]
 1363              		.loc 1 614 0
ARM GAS  /tmp/cc2MRpHc.s 			page 25


 1364 0014 2DD4     		bmi	.L248
 1365              	.L188:
 1366              		.loc 1 620 0
 1367 0016 A204     		lsls	r2, r4, #18
 1368              		.loc 1 621 0
 1369 0018 48BF     		it	mi
 1370 001a D5F80838 		ldrmi	r3, [r5, #2056]
 1371              		.loc 1 625 0
 1372 001e 2307     		lsls	r3, r4, #28
 1373 0020 04D5     		bpl	.L191
 1374              		.loc 1 626 0
 1375 0022 7368     		ldr	r3, [r6, #4]
 1376 0024 DB68     		ldr	r3, [r3, #12]
 1377 0026 0BB1     		cbz	r3, .L191
 1378 0028 3848     		ldr	r0, .L258
 1379 002a 9847     		blx	r3
 1380              	.LVL165:
 1381              	.L191:
 1382              		.loc 1 630 0
 1383 002c E006     		lsls	r0, r4, #27
 1384 002e 2BD4     		bmi	.L249
 1385              	.LVL166:
 1386              	.L192:
 1387              		.loc 1 641 0
 1388 0030 6103     		lsls	r1, r4, #13
 1389              		.loc 1 640 0
 1390 0032 D5F81858 		ldr	r5, [r5, #2072]
 1391              	.LVL167:
 1392              		.loc 1 641 0
 1393 0036 07D5     		bpl	.L195
 1394              		.loc 1 642 0
 1395 0038 EA07     		lsls	r2, r5, #31
 1396 003a 4FD4     		bmi	.L250
 1397              		.loc 1 644 0
 1398 003c AB07     		lsls	r3, r5, #30
 1399              	.LVL168:
 1400 003e 53D4     		bmi	.L251
 1401              	.L197:
 1402              		.loc 1 646 0
 1403 0040 6807     		lsls	r0, r5, #29
 1404 0042 57D4     		bmi	.L252
 1405              	.L198:
 1406              		.loc 1 648 0
 1407 0044 2907     		lsls	r1, r5, #28
 1408 0046 5BD4     		bmi	.L253
 1409              	.LVL169:
 1410              	.L195:
 1411              		.loc 1 657 0
 1412 0048 2203     		lsls	r2, r4, #12
 1413 004a 07D5     		bpl	.L201
 1414              		.loc 1 658 0
 1415 004c EB03     		lsls	r3, r5, #15
 1416              	.LVL170:
 1417 004e 38D4     		bmi	.L254
 1418              		.loc 1 660 0
 1419 0050 A803     		lsls	r0, r5, #14
 1420 0052 3CD4     		bmi	.L255
ARM GAS  /tmp/cc2MRpHc.s 			page 26


 1421              	.L203:
 1422              		.loc 1 662 0
 1423 0054 6903     		lsls	r1, r5, #13
 1424 0056 2DD4     		bmi	.L256
 1425              	.L204:
 1426              		.loc 1 664 0
 1427 0058 2A03     		lsls	r2, r5, #12
 1428 005a 05D4     		bmi	.L257
 1429              	.LVL171:
 1430              	.L201:
 1431              	.LBE168:
 1432              	.LBE170:
 1433              		.loc 1 752 0
 1434 005c FFF7FEFF 		bl	dbg_check_leave_isr
 1435              	.LVL172:
 1436              		.loc 1 753 0
 1437 0060 BDE87040 		pop	{r4, r5, r6, lr}
 1438              		.loc 1 752 0
 1439 0064 FFF7FEBF 		b	_port_irq_epilogue
 1440              	.LVL173:
 1441              	.L257:
 1442              	.LBB171:
 1443              	.LBB169:
 1444              		.loc 1 665 0
 1445 0068 2848     		ldr	r0, .L258
 1446 006a 0321     		movs	r1, #3
 1447 006c FFF7FEFF 		bl	otg_epout_handler
 1448              	.LVL174:
 1449 0070 F4E7     		b	.L201
 1450              	.LVL175:
 1451              	.L248:
 1452              		.loc 1 615 0
 1453 0072 3046     		mov	r0, r6
 1454 0074 FFF7FEFF 		bl	_usb_reset
 1455              	.LVL176:
 1456              		.loc 1 616 0
 1457 0078 7368     		ldr	r3, [r6, #4]
 1458 007a 1B68     		ldr	r3, [r3, #0]
 1459 007c 002B     		cmp	r3, #0
 1460 007e CAD0     		beq	.L188
 1461 0080 3046     		mov	r0, r6
 1462 0082 0021     		movs	r1, #0
 1463 0084 9847     		blx	r3
 1464              	.LVL177:
 1465 0086 C6E7     		b	.L188
 1466              	.L249:
 1467              	.LBB162:
 1468              		.loc 1 633 0
 1469 0088 2023     		movs	r3, #32
 1470              	.LVL178:
 1471              	@ 633 "../../ChibiOS/os/hal/platforms/STM32/OTGv1/usb_lld.c" 1
 1472 008a 83F31188 		msr     BASEPRI, r3
 1473              	@ 0 "" 2
 1474              	.LVL179:
 1475              		.thumb
 1476              	.LBE162:
 1477 008e FFF7FEFF 		bl	dbg_check_lock_from_isr
ARM GAS  /tmp/cc2MRpHc.s 			page 27


 1478              	.LVL180:
 1479              		.loc 1 634 0
 1480 0092 AB69     		ldr	r3, [r5, #24]
 1481              	.LBB163:
 1482              	.LBB164:
 1483              		.loc 1 126 0
 1484 0094 306D     		ldr	r0, [r6, #80]
 1485              	.LBE164:
 1486              	.LBE163:
 1487              		.loc 1 634 0
 1488 0096 23F01003 		bic	r3, r3, #16
 1489 009a AB61     		str	r3, [r5, #24]
 1490              	.LVL181:
 1491              	.LBB166:
 1492              	.LBB165:
 1493              		.loc 1 126 0
 1494 009c 20B1     		cbz	r0, .L193
 1495              		.loc 1 127 0
 1496 009e FFF7FEFF 		bl	chSchReadyI
 1497              	.LVL182:
 1498              		.loc 1 128 0
 1499 00a2 1A4B     		ldr	r3, .L258
 1500 00a4 0022     		movs	r2, #0
 1501 00a6 1A65     		str	r2, [r3, #80]
 1502              	.L193:
 1503              	.LBE165:
 1504              	.LBE166:
 1505              		.loc 1 636 0
 1506 00a8 FFF7FEFF 		bl	dbg_check_unlock_from_isr
 1507              	.LVL183:
 1508              	.LBB167:
 1509 00ac 0023     		movs	r3, #0
 1510              	@ 636 "../../ChibiOS/os/hal/platforms/STM32/OTGv1/usb_lld.c" 1
 1511 00ae 83F31188 		msr     BASEPRI, r3
 1512              	@ 0 "" 2
 1513              	.LVL184:
 1514              		.thumb
 1515 00b2 BDE7     		b	.L192
 1516              	.LVL185:
 1517              	.L256:
 1518              	.LBE167:
 1519              		.loc 1 663 0
 1520 00b4 0221     		movs	r1, #2
 1521 00b6 1548     		ldr	r0, .L258
 1522 00b8 FFF7FEFF 		bl	otg_epout_handler
 1523              	.LVL186:
 1524              		.loc 1 664 0
 1525 00bc 2A03     		lsls	r2, r5, #12
 1526 00be CDD5     		bpl	.L201
 1527 00c0 D2E7     		b	.L257
 1528              	.L254:
 1529              		.loc 1 659 0
 1530 00c2 1248     		ldr	r0, .L258
 1531 00c4 0021     		movs	r1, #0
 1532 00c6 FFF7FEFF 		bl	otg_epout_handler
 1533              	.LVL187:
 1534              		.loc 1 660 0
ARM GAS  /tmp/cc2MRpHc.s 			page 28


 1535 00ca A803     		lsls	r0, r5, #14
 1536 00cc C2D5     		bpl	.L203
 1537              	.L255:
 1538              		.loc 1 661 0
 1539 00ce 0121     		movs	r1, #1
 1540 00d0 0E48     		ldr	r0, .L258
 1541 00d2 FFF7FEFF 		bl	otg_epout_handler
 1542              	.LVL188:
 1543              		.loc 1 662 0
 1544 00d6 6903     		lsls	r1, r5, #13
 1545 00d8 BED5     		bpl	.L204
 1546 00da EBE7     		b	.L256
 1547              	.LVL189:
 1548              	.L250:
 1549              		.loc 1 643 0
 1550 00dc 0021     		movs	r1, #0
 1551 00de 0B48     		ldr	r0, .L258
 1552 00e0 FFF7FEFF 		bl	otg_epin_handler
 1553              	.LVL190:
 1554              		.loc 1 644 0
 1555 00e4 AB07     		lsls	r3, r5, #30
 1556 00e6 ABD5     		bpl	.L197
 1557              	.L251:
 1558              		.loc 1 645 0
 1559 00e8 0848     		ldr	r0, .L258
 1560 00ea 0121     		movs	r1, #1
 1561 00ec FFF7FEFF 		bl	otg_epin_handler
 1562              	.LVL191:
 1563              		.loc 1 646 0
 1564 00f0 6807     		lsls	r0, r5, #29
 1565 00f2 A7D5     		bpl	.L198
 1566              	.L252:
 1567              		.loc 1 647 0
 1568 00f4 0221     		movs	r1, #2
 1569 00f6 0548     		ldr	r0, .L258
 1570 00f8 FFF7FEFF 		bl	otg_epin_handler
 1571              	.LVL192:
 1572              		.loc 1 648 0
 1573 00fc 2907     		lsls	r1, r5, #28
 1574 00fe A3D5     		bpl	.L195
 1575              	.L253:
 1576              		.loc 1 649 0
 1577 0100 0248     		ldr	r0, .L258
 1578 0102 0321     		movs	r1, #3
 1579 0104 FFF7FEFF 		bl	otg_epin_handler
 1580              	.LVL193:
 1581 0108 9EE7     		b	.L195
 1582              	.L259:
 1583 010a 00BF     		.align	2
 1584              	.L258:
 1585 010c 00000000 		.word	.LANCHOR0
 1586              	.LBE169:
 1587              	.LBE171:
 1588              		.cfi_endproc
 1589              	.LFE137:
 1590              		.size	Vector14C, .-Vector14C
 1591              		.section	.text.usb_lld_init,"ax",%progbits
ARM GAS  /tmp/cc2MRpHc.s 			page 29


 1592              		.align	2
 1593              		.p2align 4,,15
 1594              		.global	usb_lld_init
 1595              		.thumb
 1596              		.thumb_func
 1597              		.type	usb_lld_init, %function
 1598              	usb_lld_init:
 1599              	.LFB138:
 1600              		.loc 1 784 0
 1601              		.cfi_startproc
 1602              		@ args = 0, pretend = 0, frame = 0
 1603              		@ frame_needed = 0, uses_anonymous_args = 0
 1604 0000 38B5     		push	{r3, r4, r5, lr}
 1605              	.LCFI6:
 1606              		.cfi_def_cfa_offset 16
 1607              		.cfi_offset 3, -16
 1608              		.cfi_offset 4, -12
 1609              		.cfi_offset 5, -8
 1610              		.cfi_offset 14, -4
 1611              		.loc 1 788 0
 1612 0002 40F20004 		movw	r4, #:lower16:.LANCHOR0
 1613 0006 C0F20004 		movt	r4, #:upper16:.LANCHOR0
 1614 000a 2046     		mov	r0, r4
 1615 000c FFF7FEFF 		bl	usbObjectInit
 1616              	.LVL194:
 1617              		.loc 1 789 0
 1618 0010 0023     		movs	r3, #0
 1619 0012 E364     		str	r3, [r4, #76]
 1620              		.loc 1 790 0
 1621 0014 2365     		str	r3, [r4, #80]
 1622              		.loc 1 791 0
 1623 0016 4FF0A043 		mov	r3, #1342177280
 1624              	.LBB172:
 1625              		.loc 1 799 0
 1626 001a 04F1A405 		add	r5, r4, #164
 1627              	.LBE172:
 1628              		.loc 1 791 0
 1629 001e E363     		str	r3, [r4, #60]
 1630              		.loc 1 792 0
 1631 0020 40F20003 		movw	r3, #:lower16:.LANCHOR1
 1632              	.LBB173:
 1633              		.loc 1 799 0
 1634 0024 2946     		mov	r1, r5
 1635 0026 FF22     		movs	r2, #255
 1636 0028 04F15800 		add	r0, r4, #88
 1637              	.LBE173:
 1638              		.loc 1 792 0
 1639 002c C0F20003 		movt	r3, #:upper16:.LANCHOR1
 1640 0030 2364     		str	r3, [r4, #64]
 1641              	.LVL195:
 1642              	.LBB174:
 1643              		.loc 1 799 0
 1644 0032 FFF7FEFF 		bl	_thread_memfill
 1645              	.LVL196:
 1646              		.loc 1 802 0
 1647 0036 2846     		mov	r0, r5
 1648 0038 04F59E71 		add	r1, r4, #316
ARM GAS  /tmp/cc2MRpHc.s 			page 30


 1649 003c 5522     		movs	r2, #85
 1650              	.LBE174:
 1651              		.loc 1 830 0
 1652 003e BDE83840 		pop	{r3, r4, r5, lr}
 1653              	.LBB175:
 1654              		.loc 1 802 0
 1655 0042 FFF7FEBF 		b	_thread_memfill
 1656              	.LVL197:
 1657              	.LBE175:
 1658              		.cfi_endproc
 1659              	.LFE138:
 1660              		.size	usb_lld_init, .-usb_lld_init
 1661 0046 00BFAFF3 		.section	.text.usb_lld_start,"ax",%progbits
 1661      0080AFF3 
 1661      0080
 1662              		.align	2
 1663              		.p2align 4,,15
 1664              		.global	usb_lld_start
 1665              		.thumb
 1666              		.thumb_func
 1667              		.type	usb_lld_start, %function
 1668              	usb_lld_start:
 1669              	.LFB139:
 1670              		.loc 1 842 0
 1671              		.cfi_startproc
 1672              		@ args = 0, pretend = 0, frame = 0
 1673              		@ frame_needed = 0, uses_anonymous_args = 0
 1674              	.LVL198:
 1675 0000 70B5     		push	{r4, r5, r6, lr}
 1676              	.LCFI7:
 1677              		.cfi_def_cfa_offset 16
 1678              		.cfi_offset 4, -16
 1679              		.cfi_offset 5, -12
 1680              		.cfi_offset 6, -8
 1681              		.cfi_offset 14, -4
 1682              		.loc 1 845 0
 1683 0002 0378     		ldrb	r3, [r0, #0]	@ zero_extendqisi2
 1684              		.loc 1 843 0
 1685 0004 C56B     		ldr	r5, [r0, #60]
 1686              	.LVL199:
 1687              		.loc 1 845 0
 1688 0006 012B     		cmp	r3, #1
 1689              		.loc 1 842 0
 1690 0008 82B0     		sub	sp, sp, #8
 1691              	.LCFI8:
 1692              		.cfi_def_cfa_offset 24
 1693              		.loc 1 842 0
 1694 000a 0646     		mov	r6, r0
 1695              		.loc 1 845 0
 1696 000c 01D0     		beq	.L271
 1697              	.LVL200:
 1698              	.L261:
 1699              		.loc 1 919 0
 1700 000e 02B0     		add	sp, sp, #8
 1701 0010 70BD     		pop	{r4, r5, r6, pc}
 1702              	.LVL201:
 1703              	.L271:
ARM GAS  /tmp/cc2MRpHc.s 			page 31


 1704              		.loc 1 848 0
 1705 0012 304B     		ldr	r3, .L275
 1706 0014 9842     		cmp	r0, r3
 1707 0016 49D0     		beq	.L272
 1708              	.LVL202:
 1709              	.L263:
 1710              		.loc 1 873 0
 1711 0018 F36C     		ldr	r3, [r6, #76]
 1712              		.loc 1 872 0
 1713 001a 0022     		movs	r2, #0
 1714 001c B264     		str	r2, [r6, #72]
 1715              		.loc 1 873 0
 1716 001e 002B     		cmp	r3, #0
 1717 0020 38D0     		beq	.L273
 1718              	.L264:
 1719              		.loc 1 883 0
 1720 0022 4FF4A252 		mov	r2, #5184
 1721              		.loc 1 886 0
 1722 0026 0323     		movs	r3, #3
 1723 0028 C0F22023 		movt	r3, 544
 1724              		.loc 1 883 0
 1725 002c C4F20002 		movt	r2, 16384
 1726              	.LBB178:
 1727              	.LBB179:
 1728              		.loc 1 133 0
 1729 0030 F46B     		ldr	r4, [r6, #60]
 1730              	.LBE179:
 1731              	.LBE178:
 1732              		.loc 1 883 0
 1733 0032 EA60     		str	r2, [r5, #12]
 1734              		.loc 1 886 0
 1735 0034 C5F80038 		str	r3, [r5, #2048]
 1736              		.loc 1 889 0
 1737 0038 0023     		movs	r3, #0
 1738 003a C5F8003E 		str	r3, [r5, #3584]
 1739              		.loc 1 892 0
 1740 003e 4FF45023 		mov	r3, #851968
 1741 0042 AB63     		str	r3, [r5, #56]
 1742              	.LVL203:
 1743              	.LBB181:
 1744              	.LBB180:
 1745              		.loc 1 136 0
 1746 0044 0123     		movs	r3, #1
 1747 0046 2361     		str	r3, [r4, #16]
 1748              	.L265:
 1749              		.loc 1 137 0
 1750 0048 2369     		ldr	r3, [r4, #16]
 1751 004a D807     		lsls	r0, r3, #31
 1752 004c FCD4     		bmi	.L265
 1753              		.loc 1 139 0
 1754 004e 0C20     		movs	r0, #12
 1755 0050 FFF7FEFF 		bl	halPolledDelay
 1756              	.LVL204:
 1757              	.L266:
 1758              		.loc 1 141 0
 1759 0054 2369     		ldr	r3, [r4, #16]
 1760 0056 002B     		cmp	r3, #0
ARM GAS  /tmp/cc2MRpHc.s 			page 32


 1761 0058 FCDA     		bge	.L266
 1762              	.LBE180:
 1763              	.LBE181:
 1764              		.loc 1 898 0
 1765 005a 0024     		movs	r4, #0
 1766              	.LVL205:
 1767 005c AC60     		str	r4, [r5, #8]
 1768              		.loc 1 901 0
 1769 005e 3046     		mov	r0, r6
 1770 0060 FFF7FEFF 		bl	otg_disable_ep
 1771              	.LVL206:
 1772              		.loc 1 908 0
 1773 0064 7368     		ldr	r3, [r6, #4]
 1774              		.loc 1 905 0
 1775 0066 C5F81048 		str	r4, [r5, #2064]
 1776              		.loc 1 908 0
 1777 006a DB68     		ldr	r3, [r3, #12]
 1778              		.loc 1 906 0
 1779 006c C5F81448 		str	r4, [r5, #2068]
 1780              		.loc 1 907 0
 1781 0070 C5F81C48 		str	r4, [r5, #2076]
 1782              		.loc 1 908 0
 1783 0074 53B1     		cbz	r3, .L274
 1784              		.loc 1 912 0
 1785 0076 43F20803 		movw	r3, #12296
 1786 007a AB61     		str	r3, [r5, #24]
 1787              	.L268:
 1788              		.loc 1 914 0
 1789 007c 4FF0FF33 		mov	r3, #-1
 1790 0080 6B61     		str	r3, [r5, #20]
 1791              		.loc 1 917 0
 1792 0082 AB68     		ldr	r3, [r5, #8]
 1793 0084 43F00103 		orr	r3, r3, #1
 1794 0088 AB60     		str	r3, [r5, #8]
 1795 008a C0E7     		b	.L261
 1796              	.L274:
 1797              		.loc 1 909 0
 1798 008c 4FF44053 		mov	r3, #12288
 1799 0090 AB61     		str	r3, [r5, #24]
 1800 0092 F3E7     		b	.L268
 1801              	.LVL207:
 1802              	.L273:
 1803              		.loc 1 874 0
 1804 0094 0096     		str	r6, [sp, #0]
 1805 0096 06F15800 		add	r0, r6, #88
 1806 009a 4FF49871 		mov	r1, #304
 1807 009e 0222     		movs	r2, #2
 1808 00a0 0D4B     		ldr	r3, .L275+4
 1809 00a2 FFF7FEFF 		bl	chThdCreateI
 1810              	.LVL208:
 1811 00a6 3065     		str	r0, [r6, #80]
 1812 00a8 F064     		str	r0, [r6, #76]
 1813 00aa BAE7     		b	.L264
 1814              	.LVL209:
 1815              	.L272:
 1816              		.loc 1 850 0
 1817 00ac 4FF46053 		mov	r3, #14336
ARM GAS  /tmp/cc2MRpHc.s 			page 33


 1818 00b0 C4F20203 		movt	r3, 16386
 1819              		.loc 1 854 0
 1820 00b4 4320     		movs	r0, #67
 1821              	.LVL210:
 1822              		.loc 1 850 0
 1823 00b6 5A6B     		ldr	r2, [r3, #52]
 1824 00b8 42F08002 		orr	r2, r2, #128
 1825 00bc 5A63     		str	r2, [r3, #52]
 1826              		.loc 1 851 0
 1827 00be 5A69     		ldr	r2, [r3, #20]
 1828 00c0 42F08002 		orr	r2, r2, #128
 1829 00c4 5A61     		str	r2, [r3, #20]
 1830 00c6 0022     		movs	r2, #0
 1831 00c8 5A61     		str	r2, [r3, #20]
 1832              		.loc 1 854 0
 1833 00ca E021     		movs	r1, #224
 1834 00cc FFF7FEFF 		bl	nvicEnableVector
 1835              	.LVL211:
 1836 00d0 A2E7     		b	.L263
 1837              	.L276:
 1838 00d2 00BF     		.align	2
 1839              	.L275:
 1840 00d4 00000000 		.word	.LANCHOR0
 1841 00d8 00000000 		.word	usb_lld_pump
 1842              		.cfi_endproc
 1843              	.LFE139:
 1844              		.size	usb_lld_start, .-usb_lld_start
 1845 00dc AFF30080 		.section	.text.usb_lld_stop,"ax",%progbits
 1846              		.align	2
 1847              		.p2align 4,,15
 1848              		.global	usb_lld_stop
 1849              		.thumb
 1850              		.thumb_func
 1851              		.type	usb_lld_stop, %function
 1852              	usb_lld_stop:
 1853              	.LFB140:
 1854              		.loc 1 928 0
 1855              		.cfi_startproc
 1856              		@ args = 0, pretend = 0, frame = 0
 1857              		@ frame_needed = 0, uses_anonymous_args = 0
 1858              		@ link register save eliminated.
 1859              	.LVL212:
 1860              		.loc 1 932 0
 1861 0000 0378     		ldrb	r3, [r0, #0]	@ zero_extendqisi2
 1862              		.loc 1 929 0
 1863 0002 C26B     		ldr	r2, [r0, #60]
 1864              	.LVL213:
 1865              		.loc 1 932 0
 1866 0004 012B     		cmp	r3, #1
 1867 0006 05D0     		beq	.L277
 1868              		.loc 1 934 0
 1869 0008 0023     		movs	r3, #0
 1870 000a 8364     		str	r3, [r0, #72]
 1871              		.loc 1 936 0
 1872 000c C2F81C38 		str	r3, [r2, #2076]
 1873              		.loc 1 937 0
 1874 0010 9360     		str	r3, [r2, #8]
ARM GAS  /tmp/cc2MRpHc.s 			page 34


 1875              		.loc 1 938 0
 1876 0012 9363     		str	r3, [r2, #56]
 1877              	.L277:
 1878 0014 7047     		bx	lr
 1879              		.cfi_endproc
 1880              	.LFE140:
 1881              		.size	usb_lld_stop, .-usb_lld_stop
 1882 0016 00BFAFF3 		.section	.text.usb_lld_reset,"ax",%progbits
 1882      0080AFF3 
 1882      0080
 1883              		.align	2
 1884              		.p2align 4,,15
 1885              		.global	usb_lld_reset
 1886              		.thumb
 1887              		.thumb_func
 1888              		.type	usb_lld_reset, %function
 1889              	usb_lld_reset:
 1890              	.LFB141:
 1891              		.loc 1 963 0
 1892              		.cfi_startproc
 1893              		@ args = 0, pretend = 0, frame = 0
 1894              		@ frame_needed = 0, uses_anonymous_args = 0
 1895              	.LVL214:
 1896 0000 2DE9F041 		push	{r4, r5, r6, r7, r8, lr}
 1897              	.LCFI9:
 1898              		.cfi_def_cfa_offset 24
 1899              		.cfi_offset 4, -24
 1900              		.cfi_offset 5, -20
 1901              		.cfi_offset 6, -16
 1902              		.cfi_offset 7, -12
 1903              		.cfi_offset 8, -8
 1904              		.cfi_offset 14, -4
 1905              		.loc 1 963 0
 1906 0004 8046     		mov	r8, r0
 1907              		.loc 1 968 0
 1908 0006 0021     		movs	r1, #0
 1909              		.loc 1 965 0
 1910 0008 C46B     		ldr	r4, [r0, #60]
 1911              	.LVL215:
 1912              		.loc 1 968 0
 1913 000a FFF7FEFF 		bl	otg_txfifo_flush
 1914              	.LVL216:
 1915 000e D8F840E0 		ldr	lr, [r8, #64]
 1916 0012 DEF80800 		ldr	r0, [lr, #8]
 1917              		.loc 1 971 0
 1918 0016 0023     		movs	r3, #0
 1919              		.loc 1 972 0
 1920 0018 4FF00065 		mov	r5, #134217728
 1921              		.loc 1 974 0
 1922 001c FF21     		movs	r1, #255
 1923              	.LVL217:
 1924              	.L283:
 1925              		.loc 1 972 0 discriminator 2
 1926 001e 03F14807 		add	r7, r3, #72
 1927              		.loc 1 973 0 discriminator 2
 1928 0022 03F15806 		add	r6, r3, #88
 1929              		.loc 1 974 0 discriminator 2
ARM GAS  /tmp/cc2MRpHc.s 			page 35


 1930 0026 04EB4312 		add	r2, r4, r3, lsl #5
 1931              		.loc 1 972 0 discriminator 2
 1932 002a 7F01     		lsls	r7, r7, #5
 1933              		.loc 1 973 0 discriminator 2
 1934 002c 7601     		lsls	r6, r6, #5
 1935              		.loc 1 971 0 discriminator 2
 1936 002e 0133     		adds	r3, r3, #1
 1937              	.LVL218:
 1938 0030 8342     		cmp	r3, r0
 1939              		.loc 1 972 0 discriminator 2
 1940 0032 E551     		str	r5, [r4, r7]
 1941              		.loc 1 973 0 discriminator 2
 1942 0034 A551     		str	r5, [r4, r6]
 1943              		.loc 1 974 0 discriminator 2
 1944 0036 C2F80819 		str	r1, [r2, #2312]
 1945              		.loc 1 975 0 discriminator 2
 1946 003a C2F8081B 		str	r1, [r2, #2824]
 1947              		.loc 1 971 0 discriminator 2
 1948 003e EED9     		bls	.L283
 1949              	.LBB188:
 1950              	.LBB189:
 1951              		.loc 1 211 0
 1952 0040 DEF80030 		ldr	r3, [lr, #0]
 1953              	.LVL219:
 1954              	.LBE189:
 1955              	.LBE188:
 1956              	.LBB191:
 1957              	.LBB192:
 1958              		.loc 1 183 0
 1959 0044 D8F83C20 		ldr	r2, [r8, #60]
 1960              	.LBE192:
 1961              	.LBE191:
 1962              		.loc 1 979 0
 1963 0048 4FF0FF31 		mov	r1, #-1
 1964 004c C4F81818 		str	r1, [r4, #2072]
 1965              		.loc 1 980 0
 1966 0050 4FF00111 		mov	r1, #65537
 1967 0054 C4F81C18 		str	r1, [r4, #2076]
 1968              	.LVL220:
 1969              	.LBB194:
 1970              	.LBB190:
 1971              		.loc 1 211 0
 1972 0058 C8F84430 		str	r3, [r8, #68]
 1973              	.LBE190:
 1974              	.LBE194:
 1975              		.loc 1 986 0
 1976 005c 6362     		str	r3, [r4, #36]
 1977              	.LVL221:
 1978              	.LBB195:
 1979              	.LBB193:
 1980              		.loc 1 185 0
 1981 005e 1023     		movs	r3, #16
 1982 0060 1361     		str	r3, [r2, #16]
 1983              	.L284:
 1984              		.loc 1 186 0
 1985 0062 1369     		ldr	r3, [r2, #16]
 1986 0064 13F01005 		ands	r5, r3, #16
ARM GAS  /tmp/cc2MRpHc.s 			page 36


 1987 0068 FBD1     		bne	.L284
 1988              		.loc 1 189 0
 1989 006a 0C20     		movs	r0, #12
 1990 006c FFF7FEFF 		bl	halPolledDelay
 1991              	.LVL222:
 1992              	.LBE193:
 1993              	.LBE195:
 1994              		.loc 1 990 0
 1995 0070 D4F80028 		ldr	r2, [r4, #2048]
 1996              	.LBB196:
 1997              	.LBB197:
 1998              		.loc 1 227 0
 1999 0074 D8F84030 		ldr	r3, [r8, #64]
 2000              		.loc 1 225 0
 2001 0078 D8F84460 		ldr	r6, [r8, #68]
 2002              		.loc 1 227 0
 2003 007c 5868     		ldr	r0, [r3, #4]
 2004              	.LBE197:
 2005              	.LBE196:
 2006              		.loc 1 990 0
 2007 007e 22F4FE63 		bic	r3, r2, #2032
 2008 0082 C4F80038 		str	r3, [r4, #2048]
 2009              		.loc 1 993 0
 2010 0086 A769     		ldr	r7, [r4, #24]
 2011 0088 47F44027 		orr	r7, r7, #786432
 2012              		.loc 1 994 0
 2013 008c 0921     		movs	r1, #9
 2014              		.loc 1 993 0
 2015 008e 47F01007 		orr	r7, r7, #16
 2016 0092 A761     		str	r7, [r4, #24]
 2017              	.LBB201:
 2018              	.LBB198:
 2019              		.loc 1 226 0
 2020 0094 06F11002 		add	r2, r6, #16
 2021              	.LBE198:
 2022              	.LBE201:
 2023              		.loc 1 994 0
 2024 0098 C4F81018 		str	r1, [r4, #2064]
 2025              		.loc 1 1000 0
 2026 009c 48F24003 		movw	r3, #32832
 2027              		.loc 1 995 0
 2028 00a0 C4F81418 		str	r1, [r4, #2068]
 2029              		.loc 1 998 0
 2030 00a4 0C49     		ldr	r1, .L288
 2031              		.loc 1 1000 0
 2032 00a6 C1F20003 		movt	r3, 4096
 2033              	.LBB202:
 2034              	.LBB199:
 2035              		.loc 1 227 0
 2036 00aa 8242     		cmp	r2, r0
 2037              	.LBE199:
 2038              	.LBE202:
 2039              		.loc 1 998 0
 2040 00ac C8F81010 		str	r1, [r8, #16]
 2041              		.loc 1 999 0
 2042 00b0 C4F8105B 		str	r5, [r4, #2832]
 2043              		.loc 1 1000 0
ARM GAS  /tmp/cc2MRpHc.s 			page 37


 2044 00b4 C4F8003B 		str	r3, [r4, #2816]
 2045              		.loc 1 1002 0
 2046 00b8 C4F81059 		str	r5, [r4, #2320]
 2047              		.loc 1 1003 0
 2048 00bc C4F80039 		str	r3, [r4, #2304]
 2049              	.LVL223:
 2050              	.LBB203:
 2051              	.LBB200:
 2052              		.loc 1 226 0
 2053 00c0 C8F84420 		str	r2, [r8, #68]
 2054              		.loc 1 227 0
 2055 00c4 02D9     		bls	.L285
 2056 00c6 0548     		ldr	r0, .L288+4
 2057 00c8 FFF7FEFF 		bl	chDbgPanic
 2058              	.LVL224:
 2059              	.L285:
 2060              	.LBE200:
 2061              	.LBE203:
 2062              		.loc 1 1005 0
 2063 00cc 46F48016 		orr	r6, r6, #1048576
 2064              	.LVL225:
 2065 00d0 A662     		str	r6, [r4, #40]
 2066 00d2 BDE8F081 		pop	{r4, r5, r6, r7, r8, pc}
 2067              	.L289:
 2068 00d6 00BF     		.align	2
 2069              	.L288:
 2070 00d8 00000000 		.word	.LANCHOR2
 2071 00dc 10000000 		.word	.LC1
 2072              		.cfi_endproc
 2073              	.LFE141:
 2074              		.size	usb_lld_reset, .-usb_lld_reset
 2075              		.section	.text.usb_lld_set_address,"ax",%progbits
 2076              		.align	2
 2077              		.p2align 4,,15
 2078              		.global	usb_lld_set_address
 2079              		.thumb
 2080              		.thumb_func
 2081              		.type	usb_lld_set_address, %function
 2082              	usb_lld_set_address:
 2083              	.LFB142:
 2084              		.loc 1 1017 0
 2085              		.cfi_startproc
 2086              		@ args = 0, pretend = 0, frame = 0
 2087              		@ frame_needed = 0, uses_anonymous_args = 0
 2088              		@ link register save eliminated.
 2089              	.LVL226:
 2090              		.loc 1 1018 0
 2091 0000 C36B     		ldr	r3, [r0, #60]
 2092              	.LVL227:
 2093              		.loc 1 1020 0
 2094 0002 90F83A10 		ldrb	r1, [r0, #58]	@ zero_extendqisi2
 2095 0006 D3F80028 		ldr	r2, [r3, #2048]
 2096 000a 22F4FE62 		bic	r2, r2, #2032
 2097 000e 42EA0112 		orr	r2, r2, r1, lsl #4
 2098 0012 C3F80028 		str	r2, [r3, #2048]
 2099 0016 7047     		bx	lr
 2100              		.cfi_endproc
ARM GAS  /tmp/cc2MRpHc.s 			page 38


 2101              	.LFE142:
 2102              		.size	usb_lld_set_address, .-usb_lld_set_address
 2103 0018 AFF30080 		.section	.text.usb_lld_init_endpoint,"ax",%progbits
 2103      AFF30080 
 2104              		.align	2
 2105              		.p2align 4,,15
 2106              		.global	usb_lld_init_endpoint
 2107              		.thumb
 2108              		.thumb_func
 2109              		.type	usb_lld_init_endpoint, %function
 2110              	usb_lld_init_endpoint:
 2111              	.LFB143:
 2112              		.loc 1 1031 0
 2113              		.cfi_startproc
 2114              		@ args = 0, pretend = 0, frame = 0
 2115              		@ frame_needed = 0, uses_anonymous_args = 0
 2116              	.LVL228:
 2117 0000 2DE9F84F 		push	{r3, r4, r5, r6, r7, r8, r9, sl, fp, lr}
 2118              	.LCFI10:
 2119              		.cfi_def_cfa_offset 40
 2120              		.cfi_offset 3, -40
 2121              		.cfi_offset 4, -36
 2122              		.cfi_offset 5, -32
 2123              		.cfi_offset 6, -28
 2124              		.cfi_offset 7, -24
 2125              		.cfi_offset 8, -20
 2126              		.cfi_offset 9, -16
 2127              		.cfi_offset 10, -12
 2128              		.cfi_offset 11, -8
 2129              		.cfi_offset 14, -4
 2130              		.loc 1 1036 0
 2131 0004 0F1D     		adds	r7, r1, #4
 2132              		.loc 1 1044 0
 2133 0006 4FF40048 		mov	r8, #32768
 2134              		.loc 1 1036 0
 2135 000a 50F82730 		ldr	r3, [r0, r7, lsl #2]
 2136              		.loc 1 1033 0
 2137 000e C46B     		ldr	r4, [r0, #60]
 2138              	.LVL229:
 2139              		.loc 1 1036 0
 2140 0010 1A68     		ldr	r2, [r3, #0]
 2141 0012 02F00302 		and	r2, r2, #3
 2142 0016 022A     		cmp	r2, #2
 2143              		.loc 1 1031 0
 2144 0018 0D46     		mov	r5, r1
 2145 001a 0646     		mov	r6, r0
 2146              		.loc 1 1044 0
 2147 001c 08BF     		it	eq
 2148 001e C1F20808 		movteq	r8, 4104
 2149              		.loc 1 1036 0
 2150 0022 0CD0     		beq	.L293
 2151 0024 032A     		cmp	r2, #3
 2152              		.loc 1 1047 0
 2153 0026 08BF     		it	eq
 2154 0028 C1F20C08 		movteq	r8, 4108
 2155              		.loc 1 1036 0
 2156 002c 07D0     		beq	.L293
ARM GAS  /tmp/cc2MRpHc.s 			page 39


 2157              		.loc 1 1038 0
 2158 002e 4146     		mov	r1, r8
 2159              	.LVL230:
 2160 0030 C1F20001 		movt	r1, 4096
 2161 0034 C1F20408 		movt	r8, 4100
 2162 0038 012A     		cmp	r2, #1
 2163 003a 18BF     		it	ne
 2164 003c 8846     		movne	r8, r1
 2165              	.L293:
 2166              	.LVL231:
 2167              		.loc 1 1054 0
 2168 003e 6A01     		lsls	r2, r5, #5
 2169 0040 A018     		adds	r0, r4, r2
 2170              	.LVL232:
 2171 0042 0021     		movs	r1, #0
 2172 0044 C0F8101B 		str	r1, [r0, #2832]
 2173              		.loc 1 1055 0
 2174 0048 D968     		ldr	r1, [r3, #12]
 2175 004a 0029     		cmp	r1, #0
 2176 004c 50D0     		beq	.L296
 2177              		.loc 1 1056 0
 2178 004e 588A     		ldrh	r0, [r3, #18]
 2179 0050 05F15801 		add	r1, r5, #88
 2180 0054 4901     		lsls	r1, r1, #5
 2181 0056 48EA0000 		orr	r0, r8, r0
 2182 005a 6050     		str	r0, [r4, r1]
 2183              		.loc 1 1057 0
 2184 005c 4FF0010E 		mov	lr, #1
 2185 0060 D4F81C08 		ldr	r0, [r4, #2076]
 2186 0064 05F11001 		add	r1, r5, #16
 2187 0068 0EFA01F1 		lsl	r1, lr, r1
 2188 006c 0143     		orrs	r1, r1, r0
 2189 006e C4F81C18 		str	r1, [r4, #2076]
 2190              	.L297:
 2191              		.loc 1 1065 0
 2192 0072 A218     		adds	r2, r4, r2
 2193              		.loc 1 1066 0
 2194 0074 9968     		ldr	r1, [r3, #8]
 2195              		.loc 1 1065 0
 2196 0076 0020     		movs	r0, #0
 2197 0078 C2F81009 		str	r0, [r2, #2320]
 2198              		.loc 1 1066 0
 2199 007c 0029     		cmp	r1, #0
 2200 007e 4AD0     		beq	.L298
 2201              		.loc 1 1069 0
 2202 0080 9A8B     		ldrh	r2, [r3, #28]
 2203              		.loc 1 1068 0
 2204 0082 198A     		ldrh	r1, [r3, #16]
 2205              	.LBB206:
 2206              	.LBB207:
 2207              		.loc 1 225 0
 2208 0084 D6F84490 		ldr	r9, [r6, #68]
 2209              	.LBE207:
 2210              	.LBE206:
 2211              		.loc 1 1068 0
 2212 0088 8B08     		lsrs	r3, r1, #2
 2213              	.LVL233:
ARM GAS  /tmp/cc2MRpHc.s 			page 40


 2214              		.loc 1 1069 0
 2215 008a 012A     		cmp	r2, #1
 2216              		.loc 1 1070 0
 2217 008c 88BF     		it	hi
 2218 008e 5343     		mulhi	r3, r2, r3
 2219              	.LVL234:
 2220              	.LBB211:
 2221              	.LBB208:
 2222              		.loc 1 227 0
 2223 0090 326C     		ldr	r2, [r6, #64]
 2224 0092 5168     		ldr	r1, [r2, #4]
 2225              		.loc 1 226 0
 2226 0094 03EB0902 		add	r2, r3, r9
 2227              		.loc 1 227 0
 2228 0098 8A42     		cmp	r2, r1
 2229              		.loc 1 226 0
 2230 009a 7264     		str	r2, [r6, #68]
 2231              	.LBE208:
 2232              	.LBE211:
 2233              		.loc 1 1071 0
 2234 009c 05F1FF3B 		add	fp, r5, #-1
 2235 00a0 4FEA034A 		lsl	sl, r3, #16
 2236              	.LVL235:
 2237              	.LBB212:
 2238              	.LBB209:
 2239              		.loc 1 227 0
 2240 00a4 20D8     		bhi	.L303
 2241              	.LVL236:
 2242              	.L300:
 2243              	.LBE209:
 2244              	.LBE212:
 2245              		.loc 1 1071 0
 2246 00a6 0BF1400B 		add	fp, fp, #64
 2247 00aa 04EB8B0B 		add	fp, r4, fp, lsl #2
 2248 00ae 4AEA0903 		orr	r3, sl, r9
 2249 00b2 CBF80430 		str	r3, [fp, #4]
 2250              		.loc 1 1073 0
 2251 00b6 2946     		mov	r1, r5
 2252 00b8 3046     		mov	r0, r6
 2253 00ba FFF7FEFF 		bl	otg_txfifo_flush
 2254              	.LVL237:
 2255              		.loc 1 1077 0
 2256 00be 56F82730 		ldr	r3, [r6, r7, lsl #2]
 2257              		.loc 1 1076 0
 2258 00c2 1A8A     		ldrh	r2, [r3, #16]
 2259              		.loc 1 1075 0
 2260 00c4 05F14803 		add	r3, r5, #72
 2261 00c8 42EA8552 		orr	r2, r2, r5, lsl #22
 2262 00cc 5B01     		lsls	r3, r3, #5
 2263              		.loc 1 1076 0
 2264 00ce 42EA0802 		orr	r2, r2, r8
 2265              		.loc 1 1075 0
 2266 00d2 E250     		str	r2, [r4, r3]
 2267              		.loc 1 1078 0
 2268 00d4 0122     		movs	r2, #1
 2269 00d6 D4F81C38 		ldr	r3, [r4, #2076]
 2270 00da 02FA05F5 		lsl	r5, r2, r5
ARM GAS  /tmp/cc2MRpHc.s 			page 41


 2271 00de 1D43     		orrs	r5, r5, r3
 2272 00e0 C4F81C58 		str	r5, [r4, #2076]
 2273 00e4 BDE8F88F 		pop	{r3, r4, r5, r6, r7, r8, r9, sl, fp, pc}
 2274              	.LVL238:
 2275              	.L303:
 2276              	.LBB213:
 2277              	.LBB210:
 2278              		.loc 1 227 0
 2279 00e8 1A48     		ldr	r0, .L304
 2280 00ea FFF7FEFF 		bl	chDbgPanic
 2281              	.LVL239:
 2282 00ee DAE7     		b	.L300
 2283              	.LVL240:
 2284              	.L296:
 2285              	.LBE210:
 2286              	.LBE213:
 2287              		.loc 1 1060 0
 2288 00f0 05F15801 		add	r1, r5, #88
 2289 00f4 4901     		lsls	r1, r1, #5
 2290              		.loc 1 1061 0
 2291 00f6 05F1100E 		add	lr, r5, #16
 2292              		.loc 1 1060 0
 2293 00fa 6058     		ldr	r0, [r4, r1]
 2294 00fc 20F40040 		bic	r0, r0, #32768
 2295 0100 6050     		str	r0, [r4, r1]
 2296              		.loc 1 1061 0
 2297 0102 0121     		movs	r1, #1
 2298 0104 D4F81C08 		ldr	r0, [r4, #2076]
 2299 0108 01FA0EF1 		lsl	r1, r1, lr
 2300 010c 20EA0101 		bic	r1, r0, r1
 2301 0110 C4F81C18 		str	r1, [r4, #2076]
 2302 0114 ADE7     		b	.L297
 2303              	.L298:
 2304              		.loc 1 1081 0
 2305 0116 05F13F02 		add	r2, r5, #63
 2306 011a 04EB8202 		add	r2, r4, r2, lsl #2
 2307 011e 4FF48063 		mov	r3, #1024
 2308 0122 C0F20023 		movt	r3, 512
 2309 0126 5360     		str	r3, [r2, #4]
 2310              		.loc 1 1082 0
 2311 0128 2946     		mov	r1, r5
 2312 012a 3046     		mov	r0, r6
 2313 012c FFF7FEFF 		bl	otg_txfifo_flush
 2314              	.LVL241:
 2315              		.loc 1 1083 0
 2316 0130 05F14803 		add	r3, r5, #72
 2317 0134 5B01     		lsls	r3, r3, #5
 2318 0136 E258     		ldr	r2, [r4, r3]
 2319 0138 22F40042 		bic	r2, r2, #32768
 2320 013c E250     		str	r2, [r4, r3]
 2321              		.loc 1 1084 0
 2322 013e 0122     		movs	r2, #1
 2323 0140 D4F81C38 		ldr	r3, [r4, #2076]
 2324 0144 02FA05F5 		lsl	r5, r2, r5
 2325 0148 23EA0505 		bic	r5, r3, r5
 2326 014c C4F81C58 		str	r5, [r4, #2076]
 2327 0150 BDE8F88F 		pop	{r3, r4, r5, r6, r7, r8, r9, sl, fp, pc}
ARM GAS  /tmp/cc2MRpHc.s 			page 42


 2328              	.L305:
 2329              		.align	2
 2330              	.L304:
 2331 0154 10000000 		.word	.LC1
 2332              		.cfi_endproc
 2333              	.LFE143:
 2334              		.size	usb_lld_init_endpoint, .-usb_lld_init_endpoint
 2335 0158 AFF30080 		.section	.text.usb_lld_disable_endpoints,"ax",%progbits
 2335      AFF30080 
 2336              		.align	2
 2337              		.p2align 4,,15
 2338              		.global	usb_lld_disable_endpoints
 2339              		.thumb
 2340              		.thumb_func
 2341              		.type	usb_lld_disable_endpoints, %function
 2342              	usb_lld_disable_endpoints:
 2343              	.LFB144:
 2344              		.loc 1 1095 0
 2345              		.cfi_startproc
 2346              		@ args = 0, pretend = 0, frame = 0
 2347              		@ frame_needed = 0, uses_anonymous_args = 0
 2348              		@ link register save eliminated.
 2349              	.LVL242:
 2350              	.LBB214:
 2351              	.LBB215:
 2352              		.loc 1 211 0
 2353 0000 026C     		ldr	r2, [r0, #64]
 2354 0002 1268     		ldr	r2, [r2, #0]
 2355 0004 4264     		str	r2, [r0, #68]
 2356              	.LBE215:
 2357              	.LBE214:
 2358              		.loc 1 1102 0
 2359              		.loc 1 1101 0
 2360 0006 FFF7FEBF 		b	otg_disable_ep
 2361              	.LVL243:
 2362              		.cfi_endproc
 2363              	.LFE144:
 2364              		.size	usb_lld_disable_endpoints, .-usb_lld_disable_endpoints
 2365 000a 00BFAFF3 		.section	.text.usb_lld_get_status_out,"ax",%progbits
 2365      0080
 2366              		.align	2
 2367              		.p2align 4,,15
 2368              		.global	usb_lld_get_status_out
 2369              		.thumb
 2370              		.thumb_func
 2371              		.type	usb_lld_get_status_out, %function
 2372              	usb_lld_get_status_out:
 2373              	.LFB145:
 2374              		.loc 1 1116 0
 2375              		.cfi_startproc
 2376              		@ args = 0, pretend = 0, frame = 0
 2377              		@ frame_needed = 0, uses_anonymous_args = 0
 2378              		@ link register save eliminated.
 2379              	.LVL244:
 2380              		.loc 1 1121 0
 2381 0000 5831     		adds	r1, r1, #88
 2382              	.LVL245:
ARM GAS  /tmp/cc2MRpHc.s 			page 43


 2383 0002 C36B     		ldr	r3, [r0, #60]
 2384 0004 4901     		lsls	r1, r1, #5
 2385 0006 5B58     		ldr	r3, [r3, r1]
 2386              	.LVL246:
 2387              		.loc 1 1122 0
 2388 0008 13F40040 		ands	r0, r3, #32768
 2389              	.LVL247:
 2390 000c 04D0     		beq	.L308
 2391              		.loc 1 1124 0
 2392 000e 13F4001F 		tst	r3, #2097152
 2393              		.loc 1 1125 0
 2394 0012 0CBF     		ite	eq
 2395 0014 0220     		moveq	r0, #2
 2396 0016 0120     		movne	r0, #1
 2397              	.L308:
 2398              		.loc 1 1127 0
 2399 0018 7047     		bx	lr
 2400              		.cfi_endproc
 2401              	.LFE145:
 2402              		.size	usb_lld_get_status_out, .-usb_lld_get_status_out
 2403 001a 00BFAFF3 		.section	.text.usb_lld_get_status_in,"ax",%progbits
 2403      0080
 2404              		.align	2
 2405              		.p2align 4,,15
 2406              		.global	usb_lld_get_status_in
 2407              		.thumb
 2408              		.thumb_func
 2409              		.type	usb_lld_get_status_in, %function
 2410              	usb_lld_get_status_in:
 2411              	.LFB146:
 2412              		.loc 1 1141 0
 2413              		.cfi_startproc
 2414              		@ args = 0, pretend = 0, frame = 0
 2415              		@ frame_needed = 0, uses_anonymous_args = 0
 2416              		@ link register save eliminated.
 2417              	.LVL248:
 2418              		.loc 1 1146 0
 2419 0000 4831     		adds	r1, r1, #72
 2420              	.LVL249:
 2421 0002 C36B     		ldr	r3, [r0, #60]
 2422 0004 4901     		lsls	r1, r1, #5
 2423 0006 5B58     		ldr	r3, [r3, r1]
 2424              	.LVL250:
 2425              		.loc 1 1147 0
 2426 0008 13F40040 		ands	r0, r3, #32768
 2427              	.LVL251:
 2428 000c 04D0     		beq	.L312
 2429              		.loc 1 1149 0
 2430 000e 13F4001F 		tst	r3, #2097152
 2431              		.loc 1 1150 0
 2432 0012 0CBF     		ite	eq
 2433 0014 0220     		moveq	r0, #2
 2434 0016 0120     		movne	r0, #1
 2435              	.L312:
 2436              		.loc 1 1152 0
 2437 0018 7047     		bx	lr
 2438              		.cfi_endproc
ARM GAS  /tmp/cc2MRpHc.s 			page 44


 2439              	.LFE146:
 2440              		.size	usb_lld_get_status_in, .-usb_lld_get_status_in
 2441 001a 00BFAFF3 		.section	.text.usb_lld_read_setup,"ax",%progbits
 2441      0080
 2442              		.align	2
 2443              		.p2align 4,,15
 2444              		.global	usb_lld_read_setup
 2445              		.thumb
 2446              		.thumb_func
 2447              		.type	usb_lld_read_setup, %function
 2448              	usb_lld_read_setup:
 2449              	.LFB147:
 2450              		.loc 1 1168 0
 2451              		.cfi_startproc
 2452              		@ args = 0, pretend = 0, frame = 0
 2453              		@ frame_needed = 0, uses_anonymous_args = 0
 2454              		@ link register save eliminated.
 2455              	.LVL252:
 2456              		.loc 1 1170 0
 2457 0000 0431     		adds	r1, r1, #4
 2458              	.LVL253:
 2459 0002 50F82130 		ldr	r3, [r0, r1, lsl #2]
 2460 0006 1B6A     		ldr	r3, [r3, #32]
 2461 0008 1968     		ldr	r1, [r3, #0]	@ unaligned
 2462 000a 5B68     		ldr	r3, [r3, #4]	@ unaligned
 2463 000c 1160     		str	r1, [r2, #0]	@ unaligned
 2464 000e 5360     		str	r3, [r2, #4]	@ unaligned
 2465 0010 7047     		bx	lr
 2466              		.cfi_endproc
 2467              	.LFE147:
 2468              		.size	usb_lld_read_setup, .-usb_lld_read_setup
 2469 0012 00BFAFF3 		.section	.text.usb_lld_prepare_receive,"ax",%progbits
 2469      0080AFF3 
 2469      0080AFF3 
 2469      0080
 2470              		.align	2
 2471              		.p2align 4,,15
 2472              		.global	usb_lld_prepare_receive
 2473              		.thumb
 2474              		.thumb_func
 2475              		.type	usb_lld_prepare_receive, %function
 2476              	usb_lld_prepare_receive:
 2477              	.LFB148:
 2478              		.loc 1 1181 0
 2479              		.cfi_startproc
 2480              		@ args = 0, pretend = 0, frame = 0
 2481              		@ frame_needed = 0, uses_anonymous_args = 0
 2482              		@ link register save eliminated.
 2483              	.LVL254:
 2484              		.loc 1 1183 0
 2485 0000 0B1D     		adds	r3, r1, #4
 2486              		.loc 1 1181 0
 2487 0002 10B4     		push	{r4}
 2488              	.LCFI11:
 2489              		.cfi_def_cfa_offset 4
 2490              		.cfi_offset 4, -4
 2491              		.loc 1 1183 0
ARM GAS  /tmp/cc2MRpHc.s 			page 45


 2492 0004 50F82330 		ldr	r3, [r0, r3, lsl #2]
 2493              	.LVL255:
 2494              		.loc 1 1188 0
 2495 0008 C46B     		ldr	r4, [r0, #60]
 2496              		.loc 1 1186 0
 2497 000a 9A69     		ldr	r2, [r3, #24]
 2498 000c 5B8A     		ldrh	r3, [r3, #18]
 2499              	.LVL256:
 2500 000e 5068     		ldr	r0, [r2, #4]
 2501              	.LVL257:
 2502 0010 0138     		subs	r0, r0, #1
 2503 0012 C018     		adds	r0, r0, r3
 2504              		.loc 1 1188 0
 2505 0014 43F0C042 		orr	r2, r3, #1610612736
 2506              	.LVL258:
 2507 0018 04EB4111 		add	r1, r4, r1, lsl #5
 2508              	.LVL259:
 2509              		.loc 1 1186 0
 2510 001c B0FBF3F3 		udiv	r3, r0, r3
 2511              		.loc 1 1188 0
 2512 0020 42EAC343 		orr	r3, r2, r3, lsl #19
 2513 0024 C1F8103B 		str	r3, [r1, #2832]
 2514              		.loc 1 1191 0
 2515 0028 10BC     		pop	{r4}
 2516 002a 7047     		bx	lr
 2517              		.cfi_endproc
 2518              	.LFE148:
 2519              		.size	usb_lld_prepare_receive, .-usb_lld_prepare_receive
 2520 002c AFF30080 		.section	.text.usb_lld_prepare_transmit,"ax",%progbits
 2521              		.align	2
 2522              		.p2align 4,,15
 2523              		.global	usb_lld_prepare_transmit
 2524              		.thumb
 2525              		.thumb_func
 2526              		.type	usb_lld_prepare_transmit, %function
 2527              	usb_lld_prepare_transmit:
 2528              	.LFB149:
 2529              		.loc 1 1201 0
 2530              		.cfi_startproc
 2531              		@ args = 0, pretend = 0, frame = 0
 2532              		@ frame_needed = 0, uses_anonymous_args = 0
 2533              		@ link register save eliminated.
 2534              	.LVL260:
 2535              		.loc 1 1202 0
 2536 0000 0B1D     		adds	r3, r1, #4
 2537              		.loc 1 1201 0
 2538 0002 10B4     		push	{r4}
 2539              	.LCFI12:
 2540              		.cfi_def_cfa_offset 4
 2541              		.cfi_offset 4, -4
 2542              		.loc 1 1202 0
 2543 0004 50F82320 		ldr	r2, [r0, r3, lsl #2]
 2544              	.LVL261:
 2545              		.loc 1 1205 0
 2546 0008 5369     		ldr	r3, [r2, #20]
 2547 000a 5B68     		ldr	r3, [r3, #4]
 2548 000c 6BB1     		cbz	r3, .L320
ARM GAS  /tmp/cc2MRpHc.s 			page 46


 2549              	.LBB216:
 2550              		.loc 1 1211 0
 2551 000e 128A     		ldrh	r2, [r2, #16]
 2552              	.LVL262:
 2553              		.loc 1 1213 0
 2554 0010 C06B     		ldr	r0, [r0, #60]
 2555              	.LVL263:
 2556              		.loc 1 1211 0
 2557 0012 5C1E     		subs	r4, r3, #1
 2558 0014 A418     		adds	r4, r4, r2
 2559 0016 B4FBF2F2 		udiv	r2, r4, r2
 2560              	.LVL264:
 2561              		.loc 1 1213 0
 2562 001a 00EB4111 		add	r1, r0, r1, lsl #5
 2563              	.LVL265:
 2564 001e 43EAC243 		orr	r3, r3, r2, lsl #19
 2565 0022 C1F81039 		str	r3, [r1, #2320]
 2566              	.L317:
 2567              	.LBE216:
 2568              		.loc 1 1217 0
 2569 0026 10BC     		pop	{r4}
 2570 0028 7047     		bx	lr
 2571              	.LVL266:
 2572              	.L320:
 2573              		.loc 1 1207 0
 2574 002a C36B     		ldr	r3, [r0, #60]
 2575 002c 03EB4111 		add	r1, r3, r1, lsl #5
 2576              	.LVL267:
 2577 0030 4FF40023 		mov	r3, #524288
 2578 0034 C1F81039 		str	r3, [r1, #2320]
 2579 0038 F5E7     		b	.L317
 2580              		.cfi_endproc
 2581              	.LFE149:
 2582              		.size	usb_lld_prepare_transmit, .-usb_lld_prepare_transmit
 2583 003a 00BFAFF3 		.section	.text.usb_lld_start_out,"ax",%progbits
 2583      0080
 2584              		.align	2
 2585              		.p2align 4,,15
 2586              		.global	usb_lld_start_out
 2587              		.thumb
 2588              		.thumb_func
 2589              		.type	usb_lld_start_out, %function
 2590              	usb_lld_start_out:
 2591              	.LFB150:
 2592              		.loc 1 1227 0
 2593              		.cfi_startproc
 2594              		@ args = 0, pretend = 0, frame = 0
 2595              		@ frame_needed = 0, uses_anonymous_args = 0
 2596              		@ link register save eliminated.
 2597              	.LVL268:
 2598              		.loc 1 1229 0
 2599 0000 5831     		adds	r1, r1, #88
 2600              	.LVL269:
 2601 0002 C36B     		ldr	r3, [r0, #60]
 2602 0004 4901     		lsls	r1, r1, #5
 2603 0006 5A58     		ldr	r2, [r3, r1]
 2604 0008 42F08062 		orr	r2, r2, #67108864
ARM GAS  /tmp/cc2MRpHc.s 			page 47


 2605 000c 5A50     		str	r2, [r3, r1]
 2606 000e 7047     		bx	lr
 2607              		.cfi_endproc
 2608              	.LFE150:
 2609              		.size	usb_lld_start_out, .-usb_lld_start_out
 2610              		.section	.text.usb_lld_start_in,"ax",%progbits
 2611              		.align	2
 2612              		.p2align 4,,15
 2613              		.global	usb_lld_start_in
 2614              		.thumb
 2615              		.thumb_func
 2616              		.type	usb_lld_start_in, %function
 2617              	usb_lld_start_in:
 2618              	.LFB151:
 2619              		.loc 1 1240 0
 2620              		.cfi_startproc
 2621              		@ args = 0, pretend = 0, frame = 0
 2622              		@ frame_needed = 0, uses_anonymous_args = 0
 2623              		@ link register save eliminated.
 2624              	.LVL270:
 2625              		.loc 1 1242 0
 2626 0000 01F14802 		add	r2, r1, #72
 2627 0004 C36B     		ldr	r3, [r0, #60]
 2628 0006 5201     		lsls	r2, r2, #5
 2629 0008 9858     		ldr	r0, [r3, r2]
 2630              	.LVL271:
 2631 000a 40F00440 		orr	r0, r0, #-2080374784
 2632 000e 9850     		str	r0, [r3, r2]
 2633              		.loc 1 1243 0
 2634 0010 0120     		movs	r0, #1
 2635 0012 D3F83428 		ldr	r2, [r3, #2100]
 2636 0016 00FA01F1 		lsl	r1, r0, r1
 2637              	.LVL272:
 2638 001a 1143     		orrs	r1, r1, r2
 2639 001c C3F83418 		str	r1, [r3, #2100]
 2640 0020 7047     		bx	lr
 2641              		.cfi_endproc
 2642              	.LFE151:
 2643              		.size	usb_lld_start_in, .-usb_lld_start_in
 2644 0022 00BFAFF3 		.section	.text.usb_lld_stall_out,"ax",%progbits
 2644      0080AFF3 
 2644      0080AFF3 
 2644      0080
 2645              		.align	2
 2646              		.p2align 4,,15
 2647              		.global	usb_lld_stall_out
 2648              		.thumb
 2649              		.thumb_func
 2650              		.type	usb_lld_stall_out, %function
 2651              	usb_lld_stall_out:
 2652              	.LFB152:
 2653              		.loc 1 1254 0
 2654              		.cfi_startproc
 2655              		@ args = 0, pretend = 0, frame = 0
 2656              		@ frame_needed = 0, uses_anonymous_args = 0
 2657              		@ link register save eliminated.
 2658              	.LVL273:
ARM GAS  /tmp/cc2MRpHc.s 			page 48


 2659              		.loc 1 1256 0
 2660 0000 5831     		adds	r1, r1, #88
 2661              	.LVL274:
 2662 0002 C36B     		ldr	r3, [r0, #60]
 2663 0004 4901     		lsls	r1, r1, #5
 2664 0006 5A58     		ldr	r2, [r3, r1]
 2665 0008 42F40012 		orr	r2, r2, #2097152
 2666 000c 5A50     		str	r2, [r3, r1]
 2667 000e 7047     		bx	lr
 2668              		.cfi_endproc
 2669              	.LFE152:
 2670              		.size	usb_lld_stall_out, .-usb_lld_stall_out
 2671              		.section	.text.usb_lld_stall_in,"ax",%progbits
 2672              		.align	2
 2673              		.p2align 4,,15
 2674              		.global	usb_lld_stall_in
 2675              		.thumb
 2676              		.thumb_func
 2677              		.type	usb_lld_stall_in, %function
 2678              	usb_lld_stall_in:
 2679              	.LFB153:
 2680              		.loc 1 1267 0
 2681              		.cfi_startproc
 2682              		@ args = 0, pretend = 0, frame = 0
 2683              		@ frame_needed = 0, uses_anonymous_args = 0
 2684              		@ link register save eliminated.
 2685              	.LVL275:
 2686              		.loc 1 1269 0
 2687 0000 4831     		adds	r1, r1, #72
 2688              	.LVL276:
 2689 0002 C36B     		ldr	r3, [r0, #60]
 2690 0004 4901     		lsls	r1, r1, #5
 2691 0006 5A58     		ldr	r2, [r3, r1]
 2692 0008 42F40012 		orr	r2, r2, #2097152
 2693 000c 5A50     		str	r2, [r3, r1]
 2694 000e 7047     		bx	lr
 2695              		.cfi_endproc
 2696              	.LFE153:
 2697              		.size	usb_lld_stall_in, .-usb_lld_stall_in
 2698              		.section	.text.usb_lld_clear_out,"ax",%progbits
 2699              		.align	2
 2700              		.p2align 4,,15
 2701              		.global	usb_lld_clear_out
 2702              		.thumb
 2703              		.thumb_func
 2704              		.type	usb_lld_clear_out, %function
 2705              	usb_lld_clear_out:
 2706              	.LFB154:
 2707              		.loc 1 1280 0
 2708              		.cfi_startproc
 2709              		@ args = 0, pretend = 0, frame = 0
 2710              		@ frame_needed = 0, uses_anonymous_args = 0
 2711              		@ link register save eliminated.
 2712              	.LVL277:
 2713              		.loc 1 1282 0
 2714 0000 5831     		adds	r1, r1, #88
 2715              	.LVL278:
ARM GAS  /tmp/cc2MRpHc.s 			page 49


 2716 0002 C36B     		ldr	r3, [r0, #60]
 2717 0004 4901     		lsls	r1, r1, #5
 2718 0006 5A58     		ldr	r2, [r3, r1]
 2719 0008 22F40012 		bic	r2, r2, #2097152
 2720 000c 5A50     		str	r2, [r3, r1]
 2721 000e 7047     		bx	lr
 2722              		.cfi_endproc
 2723              	.LFE154:
 2724              		.size	usb_lld_clear_out, .-usb_lld_clear_out
 2725              		.section	.text.usb_lld_clear_in,"ax",%progbits
 2726              		.align	2
 2727              		.p2align 4,,15
 2728              		.global	usb_lld_clear_in
 2729              		.thumb
 2730              		.thumb_func
 2731              		.type	usb_lld_clear_in, %function
 2732              	usb_lld_clear_in:
 2733              	.LFB155:
 2734              		.loc 1 1293 0
 2735              		.cfi_startproc
 2736              		@ args = 0, pretend = 0, frame = 0
 2737              		@ frame_needed = 0, uses_anonymous_args = 0
 2738              		@ link register save eliminated.
 2739              	.LVL279:
 2740              		.loc 1 1295 0
 2741 0000 4831     		adds	r1, r1, #72
 2742              	.LVL280:
 2743 0002 C36B     		ldr	r3, [r0, #60]
 2744 0004 4901     		lsls	r1, r1, #5
 2745 0006 5A58     		ldr	r2, [r3, r1]
 2746 0008 22F40012 		bic	r2, r2, #2097152
 2747 000c 5A50     		str	r2, [r3, r1]
 2748 000e 7047     		bx	lr
 2749              		.cfi_endproc
 2750              	.LFE155:
 2751              		.size	usb_lld_clear_in, .-usb_lld_clear_in
 2752              		.global	USBD1
 2753              		.section	.rodata.fsparams,"a",%progbits
 2754              		.align	2
 2755              		.set	.LANCHOR1,. + 0
 2756              		.type	fsparams, %object
 2757              		.size	fsparams, 12
 2758              	fsparams:
 2759 0000 80000000 		.word	128
 2760 0004 80010000 		.word	384
 2761 0008 03000000 		.word	3
 2762              		.section	.bss.USBD1,"aw",%nobits
 2763              		.align	3
 2764              		.set	.LANCHOR0,. + 0
 2765              		.type	USBD1, %object
 2766              		.size	USBD1, 392
 2767              	USBD1:
 2768 0000 00000000 		.space	392
 2768      00000000 
 2768      00000000 
 2768      00000000 
 2768      00000000 
ARM GAS  /tmp/cc2MRpHc.s 			page 50


 2769              		.section	.rodata.str1.4,"aMS",%progbits,1
 2770              		.align	2
 2771              	.LC0:
 2772 0000 7573625F 		.ascii	"usb_lld_pump\000"
 2772      6C6C645F 
 2772      70756D70 
 2772      00
 2773 000d 000000   		.space	3
 2774              	.LC1:
 2775 0010 6F74675F 		.ascii	"otg_fifo_alloc(), #1\000"
 2775      6669666F 
 2775      5F616C6C 
 2775      6F632829 
 2775      2C202331 
 2776 0025 000000   		.section	.rodata.ep0config,"a",%progbits
 2777              		.align	2
 2778              		.set	.LANCHOR2,. + 0
 2779              		.type	ep0config, %object
 2780              		.size	ep0config, 36
 2781              	ep0config:
 2782 0000 00000000 		.word	0
 2783 0004 00000000 		.word	_usb_ep0setup
 2784 0008 00000000 		.word	_usb_ep0in
 2785 000c 00000000 		.word	_usb_ep0out
 2786 0010 4000     		.short	64
 2787 0012 4000     		.short	64
 2788 0014 00000000 		.word	ep0_state
 2789 0018 00000000 		.word	ep0_state
 2790 001c 0100     		.short	1
 2791 001e 0000     		.space	2
 2792 0020 00000000 		.word	ep0setup_buffer
 2793              		.section	.bss.ep0_state,"aw",%nobits
 2794              		.align	2
 2795              		.type	ep0_state, %object
 2796              		.size	ep0_state, 16
 2797              	ep0_state:
 2798 0000 00000000 		.space	16
 2798      00000000 
 2798      00000000 
 2798      00000000 
 2799              		.section	.bss.ep0setup_buffer,"aw",%nobits
 2800              		.align	2
 2801              		.type	ep0setup_buffer, %object
 2802              		.size	ep0setup_buffer, 8
 2803              	ep0setup_buffer:
 2804 0000 00000000 		.space	8
 2804      00000000 
 2805              		.text
 2806              	.Letext0:
 2807              		.file 3 "/home/david/toolchains/psas/x-tools/stm32f407/arm-psas-eabi/bin/../lib/gcc/arm-psas-eabi/
 2808              		.file 4 "/home/david/toolchains/psas/x-tools/stm32f407/arm-psas-eabi/bin/../lib/gcc/arm-psas-eabi/
 2809              		.file 5 "../../ChibiOS/os/ports/GCC/ARMCMx/chtypes.h"
 2810              		.file 6 "../../ChibiOS/os/kernel/include/chlists.h"
 2811              		.file 7 "../../ChibiOS/os/kernel/include/chthreads.h"
 2812              		.file 8 "../../ChibiOS/os/ports/GCC/ARMCMx/chcore_v7m.h"
 2813              		.file 9 "../../ChibiOS/os/kernel/include/chschd.h"
 2814              		.file 10 "../../ChibiOS/os/kernel/include/chmtx.h"
ARM GAS  /tmp/cc2MRpHc.s 			page 51


 2815              		.file 11 "../../ChibiOS/os/kernel/include/chqueues.h"
 2816              		.file 12 "../../ChibiOS/os/hal/platforms/STM32F4xx/stm32f4xx.h"
 2817              		.file 13 "../../ChibiOS/os/hal/platforms/STM32F4xx/hal_lld.h"
 2818              		.file 14 "../../ChibiOS/os/hal/include/usb.h"
 2819              		.file 15 "../../ChibiOS/os/hal/platforms/STM32/OTGv1/usb_lld.h"
 2820              		.file 16 "../../ChibiOS/os/hal/platforms/STM32/OTGv1/stm32_otg.h"
 2821              		.file 17 "../../ChibiOS/os/ports/common/ARMCMx/CMSIS/include/core_cm4.h"
 2822              		.file 18 "../../ChibiOS/os/kernel/include/chdebug.h"
 2823              		.file 19 "../../ChibiOS/os/hal/include/hal.h"
 2824              		.file 20 "../../ChibiOS/os/ports/common/ARMCMx/nvic.h"