ARM GAS  /tmp/ccHDufAi.s 			page 1


   1              		.syntax unified
   2              		.cpu cortex-m4
   3              		.eabi_attribute 27, 3
   4              		.eabi_attribute 28, 1
   5              		.fpu fpv4-sp-d16
   6              		.eabi_attribute 20, 1
   7              		.eabi_attribute 21, 1
   8              		.eabi_attribute 23, 3
   9              		.eabi_attribute 24, 1
  10              		.eabi_attribute 25, 1
  11              		.eabi_attribute 26, 1
  12              		.eabi_attribute 30, 2
  13              		.eabi_attribute 34, 1
  14              		.eabi_attribute 18, 4
  15              		.thumb
  16              		.file	"usbdetail.c"
  17              		.text
  18              	.Ltext0:
  19              		.cfi_sections	.debug_frame
  20              		.section	.text.get_descriptor,"ax",%progbits
  21              		.align	2
  22              		.p2align 4,,15
  23              		.global	get_descriptor
  24              		.thumb
  25              		.thumb_func
  26              		.type	get_descriptor, %function
  27              	get_descriptor:
  28              	.LFB118:
  29              		.file 1 "usbdetail.c"
  30              		.loc 1 199 0
  31              		.cfi_startproc
  32              		@ args = 0, pretend = 0, frame = 0
  33              		@ frame_needed = 0, uses_anonymous_args = 0
  34              		@ link register save eliminated.
  35              	.LVL0:
  36              		.loc 1 203 0
  37 0000 0229     		cmp	r1, #2
  38 0002 06D0     		beq	.L6
  39 0004 0329     		cmp	r1, #3
  40 0006 06D0     		beq	.L5
  41              		.loc 1 216 0
  42 0008 0748     		ldr	r0, .L9
  43              	.LVL1:
  44 000a 0129     		cmp	r1, #1
  45 000c 18BF     		it	ne
  46 000e 0020     		movne	r0, #0
  47 0010 7047     		bx	lr
  48              	.LVL2:
  49              	.L6:
  50              		.loc 1 208 0
  51 0012 0648     		ldr	r0, .L9+4
  52              	.LVL3:
  53 0014 7047     		bx	lr
  54              	.LVL4:
  55              	.L5:
  56              		.loc 1 211 0
  57 0016 032A     		cmp	r2, #3
ARM GAS  /tmp/ccHDufAi.s 			page 2


  58 0018 03D8     		bhi	.L7
  59              		.loc 1 212 0
  60 001a 0548     		ldr	r0, .L9+8
  61              	.LVL5:
  62 001c 00EBC200 		add	r0, r0, r2, lsl #3
  63 0020 7047     		bx	lr
  64              	.LVL6:
  65              	.L7:
  66              		.loc 1 216 0
  67 0022 0020     		movs	r0, #0
  68              	.LVL7:
  69              		.loc 1 217 0
  70 0024 7047     		bx	lr
  71              	.L10:
  72 0026 00BF     		.align	2
  73              	.L9:
  74 0028 00000000 		.word	.LANCHOR0
  75 002c 00000000 		.word	.LANCHOR1
  76 0030 00000000 		.word	.LANCHOR2
  77              		.cfi_endproc
  78              	.LFE118:
  79              		.size	get_descriptor, .-get_descriptor
  80 0034 AFF30080 		.section	.text.usb_event,"ax",%progbits
  80      AFF30080 
  80      AFF30080 
  81              		.align	2
  82              		.p2align 4,,15
  83              		.global	usb_event
  84              		.thumb
  85              		.thumb_func
  86              		.type	usb_event, %function
  87              	usb_event:
  88              	.LFB119:
  89              		.loc 1 287 0
  90              		.cfi_startproc
  91              		@ args = 0, pretend = 0, frame = 0
  92              		@ frame_needed = 0, uses_anonymous_args = 0
  93              	.LVL8:
  94              		.loc 1 289 0
  95 0000 0229     		cmp	r1, #2
  96              		.loc 1 287 0
  97 0002 38B5     		push	{r3, r4, r5, lr}
  98              	.LCFI0:
  99              		.cfi_def_cfa_offset 16
 100              		.cfi_offset 3, -16
 101              		.cfi_offset 4, -12
 102              		.cfi_offset 5, -8
 103              		.cfi_offset 14, -4
 104              		.loc 1 287 0
 105 0004 0C46     		mov	r4, r1
 106 0006 0546     		mov	r5, r0
 107              		.loc 1 289 0
 108 0008 16D1     		bne	.L11
 109              	.LVL9:
 110              	.LBB8:
 111              	.LBB9:
 112              	.LBB10:
ARM GAS  /tmp/ccHDufAi.s 			page 3


 113              		.loc 1 295 0
 114 000a 2023     		movs	r3, #32
 115              	.LVL10:
 116              	@ 295 "usbdetail.c" 1
 117 000c 83F31188 		msr     BASEPRI, r3
 118              	@ 0 "" 2
 119              	.LVL11:
 120              		.thumb
 121              	.LBE10:
 122 0010 FFF7FEFF 		bl	dbg_check_lock_from_isr
 123              	.LVL12:
 124              		.loc 1 300 0
 125 0014 2846     		mov	r0, r5
 126 0016 0121     		movs	r1, #1
 127 0018 084A     		ldr	r2, .L14
 128 001a FFF7FEFF 		bl	usbInitEndpointI
 129              	.LVL13:
 130              		.loc 1 301 0
 131 001e 2146     		mov	r1, r4
 132 0020 074A     		ldr	r2, .L14+4
 133 0022 2846     		mov	r0, r5
 134 0024 FFF7FEFF 		bl	usbInitEndpointI
 135              	.LVL14:
 136              		.loc 1 304 0
 137 0028 2846     		mov	r0, r5
 138 002a FFF7FEFF 		bl	sduConfigureHookI
 139              	.LVL15:
 140              		.loc 1 306 0
 141 002e FFF7FEFF 		bl	dbg_check_unlock_from_isr
 142              	.LVL16:
 143              	.LBB11:
 144 0032 0023     		movs	r3, #0
 145              	.LVL17:
 146              	@ 306 "usbdetail.c" 1
 147 0034 83F31188 		msr     BASEPRI, r3
 148              	@ 0 "" 2
 149              	.LVL18:
 150              		.thumb
 151              	.L11:
 152 0038 38BD     		pop	{r3, r4, r5, pc}
 153              	.L15:
 154 003a 00BF     		.align	2
 155              	.L14:
 156 003c 00000000 		.word	.LANCHOR3
 157 0040 00000000 		.word	.LANCHOR4
 158              	.LBE11:
 159              	.LBE9:
 160              	.LBE8:
 161              		.cfi_endproc
 162              	.LFE119:
 163              		.size	usb_event, .-usb_event
 164              		.global	serusbcfg
 165              		.global	usbcfg
 166              		.global	SDU1
 167 0044 AFF30080 		.section	.rodata.ep1config,"a",%progbits
 167      AFF30080 
 167      AFF30080 
ARM GAS  /tmp/ccHDufAi.s 			page 4


 168              		.align	2
 169              		.set	.LANCHOR3,. + 0
 170              		.type	ep1config, %object
 171              		.size	ep1config, 36
 172              	ep1config:
 173 0000 02000000 		.word	2
 174 0004 00000000 		.word	0
 175 0008 00000000 		.word	sduDataTransmitted
 176 000c 00000000 		.word	sduDataReceived
 177 0010 4000     		.short	64
 178 0012 4000     		.short	64
 179 0014 00000000 		.word	ep1instate
 180 0018 00000000 		.word	ep1outstate
 181 001c 0200     		.short	2
 182 001e 0000     		.space	2
 183 0020 00000000 		.word	0
 184              		.section	.rodata.vcom_configuration_descriptor_data,"a",%progbits
 185              		.align	2
 186              		.type	vcom_configuration_descriptor_data, %object
 187              		.size	vcom_configuration_descriptor_data, 67
 188              	vcom_configuration_descriptor_data:
 189 0000 09       		.byte	9
 190 0001 02       		.byte	2
 191 0002 43       		.byte	67
 192 0003 00       		.byte	0
 193 0004 02       		.byte	2
 194 0005 01       		.byte	1
 195 0006 00       		.byte	0
 196 0007 C0       		.byte	-64
 197 0008 32       		.byte	50
 198 0009 09       		.byte	9
 199 000a 04       		.byte	4
 200 000b 00       		.byte	0
 201 000c 00       		.byte	0
 202 000d 01       		.byte	1
 203 000e 02       		.byte	2
 204 000f 02       		.byte	2
 205 0010 01       		.byte	1
 206 0011 00       		.byte	0
 207 0012 05       		.byte	5
 208 0013 24       		.byte	36
 209 0014 00       		.byte	0
 210 0015 10       		.byte	16
 211 0016 01       		.byte	1
 212 0017 05       		.byte	5
 213 0018 24       		.byte	36
 214 0019 01       		.byte	1
 215 001a 00       		.byte	0
 216 001b 01       		.byte	1
 217 001c 04       		.byte	4
 218 001d 24       		.byte	36
 219 001e 02       		.byte	2
 220 001f 02       		.byte	2
 221 0020 05       		.byte	5
 222 0021 24       		.byte	36
 223 0022 06       		.byte	6
 224 0023 00       		.byte	0
ARM GAS  /tmp/ccHDufAi.s 			page 5


 225 0024 01       		.byte	1
 226 0025 07       		.byte	7
 227 0026 05       		.byte	5
 228 0027 82       		.byte	-126
 229 0028 03       		.byte	3
 230 0029 08       		.byte	8
 231 002a 00       		.byte	0
 232 002b FF       		.byte	-1
 233 002c 09       		.byte	9
 234 002d 04       		.byte	4
 235 002e 01       		.byte	1
 236 002f 00       		.byte	0
 237 0030 02       		.byte	2
 238 0031 0A       		.byte	10
 239 0032 00       		.byte	0
 240 0033 00       		.byte	0
 241 0034 00       		.byte	0
 242 0035 07       		.byte	7
 243 0036 05       		.byte	5
 244 0037 01       		.byte	1
 245 0038 02       		.byte	2
 246 0039 40       		.byte	64
 247 003a 00       		.byte	0
 248 003b 00       		.byte	0
 249 003c 07       		.byte	7
 250 003d 05       		.byte	5
 251 003e 81       		.byte	-127
 252 003f 02       		.byte	2
 253 0040 40       		.byte	64
 254 0041 00       		.byte	0
 255 0042 00       		.byte	0
 256 0043 00       		.section	.bss.SDU1,"aw",%nobits
 257              		.align	2
 258              		.type	SDU1, %object
 259              		.size	SDU1, 600
 260              	SDU1:
 261 0000 00000000 		.space	600
 261      00000000 
 261      00000000 
 261      00000000 
 261      00000000 
 262              		.section	.bss.ep1instate,"aw",%nobits
 263              		.align	2
 264              		.type	ep1instate, %object
 265              		.size	ep1instate, 16
 266              	ep1instate:
 267 0000 00000000 		.space	16
 267      00000000 
 267      00000000 
 267      00000000 
 268              		.section	.rodata.vcom_configuration_descriptor,"a",%progbits
 269              		.align	2
 270              		.set	.LANCHOR1,. + 0
 271              		.type	vcom_configuration_descriptor, %object
 272              		.size	vcom_configuration_descriptor, 8
 273              	vcom_configuration_descriptor:
 274 0000 43000000 		.word	67
ARM GAS  /tmp/ccHDufAi.s 			page 6


 275 0004 00000000 		.word	vcom_configuration_descriptor_data
 276              		.section	.rodata.ep2config,"a",%progbits
 277              		.align	2
 278              		.set	.LANCHOR4,. + 0
 279              		.type	ep2config, %object
 280              		.size	ep2config, 36
 281              	ep2config:
 282 0000 03000000 		.word	3
 283 0004 00000000 		.word	0
 284 0008 00000000 		.word	sduInterruptTransmitted
 285 000c 00000000 		.word	0
 286 0010 1000     		.short	16
 287 0012 0000     		.short	0
 288 0014 00000000 		.word	ep2instate
 289 0018 00000000 		.word	0
 290 001c 0100     		.short	1
 291 001e 0000     		.space	2
 292 0020 00000000 		.word	0
 293              		.section	.bss.ep2instate,"aw",%nobits
 294              		.align	2
 295              		.type	ep2instate, %object
 296              		.size	ep2instate, 16
 297              	ep2instate:
 298 0000 00000000 		.space	16
 298      00000000 
 298      00000000 
 298      00000000 
 299              		.section	.rodata.usbcfg,"a",%progbits
 300              		.align	2
 301              		.type	usbcfg, %object
 302              		.size	usbcfg, 16
 303              	usbcfg:
 304 0000 00000000 		.word	usb_event
 305 0004 00000000 		.word	get_descriptor
 306 0008 00000000 		.word	sduRequestsHook
 307 000c 00000000 		.word	0
 308              		.section	.rodata.vcom_device_descriptor_data,"a",%progbits
 309              		.align	2
 310              		.type	vcom_device_descriptor_data, %object
 311              		.size	vcom_device_descriptor_data, 18
 312              	vcom_device_descriptor_data:
 313 0000 12       		.byte	18
 314 0001 01       		.byte	1
 315 0002 10       		.byte	16
 316 0003 01       		.byte	1
 317 0004 02       		.byte	2
 318 0005 00       		.byte	0
 319 0006 00       		.byte	0
 320 0007 40       		.byte	64
 321 0008 83       		.byte	-125
 322 0009 04       		.byte	4
 323 000a 40       		.byte	64
 324 000b 57       		.byte	87
 325 000c 00       		.byte	0
 326 000d 02       		.byte	2
 327 000e 01       		.byte	1
 328 000f 02       		.byte	2
ARM GAS  /tmp/ccHDufAi.s 			page 7


 329 0010 03       		.byte	3
 330 0011 01       		.byte	1
 331 0012 0000     		.section	.bss.ep1outstate,"aw",%nobits
 332              		.align	2
 333              		.type	ep1outstate, %object
 334              		.size	ep1outstate, 16
 335              	ep1outstate:
 336 0000 00000000 		.space	16
 336      00000000 
 336      00000000 
 336      00000000 
 337              		.section	.rodata.vcom_string0,"a",%progbits
 338              		.align	2
 339              		.type	vcom_string0, %object
 340              		.size	vcom_string0, 4
 341              	vcom_string0:
 342 0000 04       		.byte	4
 343 0001 03       		.byte	3
 344 0002 09       		.byte	9
 345 0003 04       		.byte	4
 346              		.section	.rodata.vcom_string1,"a",%progbits
 347              		.align	2
 348              		.type	vcom_string1, %object
 349              		.size	vcom_string1, 38
 350              	vcom_string1:
 351 0000 26       		.byte	38
 352 0001 03       		.byte	3
 353 0002 53       		.byte	83
 354 0003 00       		.byte	0
 355 0004 54       		.byte	84
 356 0005 00       		.byte	0
 357 0006 4D       		.byte	77
 358 0007 00       		.byte	0
 359 0008 69       		.byte	105
 360 0009 00       		.byte	0
 361 000a 63       		.byte	99
 362 000b 00       		.byte	0
 363 000c 72       		.byte	114
 364 000d 00       		.byte	0
 365 000e 6F       		.byte	111
 366 000f 00       		.byte	0
 367 0010 65       		.byte	101
 368 0011 00       		.byte	0
 369 0012 6C       		.byte	108
 370 0013 00       		.byte	0
 371 0014 65       		.byte	101
 372 0015 00       		.byte	0
 373 0016 63       		.byte	99
 374 0017 00       		.byte	0
 375 0018 74       		.byte	116
 376 0019 00       		.byte	0
 377 001a 72       		.byte	114
 378 001b 00       		.byte	0
 379 001c 6F       		.byte	111
 380 001d 00       		.byte	0
 381 001e 6E       		.byte	110
 382 001f 00       		.byte	0
ARM GAS  /tmp/ccHDufAi.s 			page 8


 383 0020 69       		.byte	105
 384 0021 00       		.byte	0
 385 0022 63       		.byte	99
 386 0023 00       		.byte	0
 387 0024 73       		.byte	115
 388 0025 00       		.byte	0
 389 0026 0000     		.section	.rodata.vcom_string2,"a",%progbits
 390              		.align	2
 391              		.type	vcom_string2, %object
 392              		.size	vcom_string2, 56
 393              	vcom_string2:
 394 0000 38       		.byte	56
 395 0001 03       		.byte	3
 396 0002 43       		.byte	67
 397 0003 00       		.byte	0
 398 0004 68       		.byte	104
 399 0005 00       		.byte	0
 400 0006 69       		.byte	105
 401 0007 00       		.byte	0
 402 0008 62       		.byte	98
 403 0009 00       		.byte	0
 404 000a 69       		.byte	105
 405 000b 00       		.byte	0
 406 000c 4F       		.byte	79
 407 000d 00       		.byte	0
 408 000e 53       		.byte	83
 409 000f 00       		.byte	0
 410 0010 2F       		.byte	47
 411 0011 00       		.byte	0
 412 0012 52       		.byte	82
 413 0013 00       		.byte	0
 414 0014 54       		.byte	84
 415 0015 00       		.byte	0
 416 0016 20       		.byte	32
 417 0017 00       		.byte	0
 418 0018 56       		.byte	86
 419 0019 00       		.byte	0
 420 001a 69       		.byte	105
 421 001b 00       		.byte	0
 422 001c 72       		.byte	114
 423 001d 00       		.byte	0
 424 001e 74       		.byte	116
 425 001f 00       		.byte	0
 426 0020 75       		.byte	117
 427 0021 00       		.byte	0
 428 0022 61       		.byte	97
 429 0023 00       		.byte	0
 430 0024 6C       		.byte	108
 431 0025 00       		.byte	0
 432 0026 20       		.byte	32
 433 0027 00       		.byte	0
 434 0028 43       		.byte	67
 435 0029 00       		.byte	0
 436 002a 4F       		.byte	79
 437 002b 00       		.byte	0
 438 002c 4D       		.byte	77
 439 002d 00       		.byte	0
ARM GAS  /tmp/ccHDufAi.s 			page 9


 440 002e 20       		.byte	32
 441 002f 00       		.byte	0
 442 0030 50       		.byte	80
 443 0031 00       		.byte	0
 444 0032 6F       		.byte	111
 445 0033 00       		.byte	0
 446 0034 72       		.byte	114
 447 0035 00       		.byte	0
 448 0036 74       		.byte	116
 449 0037 00       		.byte	0
 450              		.section	.rodata.vcom_string3,"a",%progbits
 451              		.align	2
 452              		.type	vcom_string3, %object
 453              		.size	vcom_string3, 18
 454              	vcom_string3:
 455 0000 12       		.byte	18
 456 0001 03       		.byte	3
 457 0002 50       		.byte	80
 458 0003 00       		.byte	0
 459 0004 53       		.byte	83
 460 0005 00       		.byte	0
 461 0006 41       		.byte	65
 462 0007 00       		.byte	0
 463 0008 53       		.byte	83
 464 0009 00       		.byte	0
 465 000a 2D       		.byte	45
 466 000b 00       		.byte	0
 467 000c 32       		.byte	50
 468 000d 00       		.byte	0
 469 000e 35       		.byte	53
 470 000f 00       		.byte	0
 471 0010 32       		.byte	50
 472 0011 00       		.byte	0
 473 0012 0000     		.section	.rodata.vcom_strings,"a",%progbits
 474              		.align	2
 475              		.set	.LANCHOR2,. + 0
 476              		.type	vcom_strings, %object
 477              		.size	vcom_strings, 32
 478              	vcom_strings:
 479 0000 04000000 		.word	4
 480 0004 00000000 		.word	vcom_string0
 481 0008 26000000 		.word	38
 482 000c 00000000 		.word	vcom_string1
 483 0010 38000000 		.word	56
 484 0014 00000000 		.word	vcom_string2
 485 0018 12000000 		.word	18
 486 001c 00000000 		.word	vcom_string3
 487              		.section	.rodata.serusbcfg,"a",%progbits
 488              		.align	2
 489              		.type	serusbcfg, %object
 490              		.size	serusbcfg, 4
 491              	serusbcfg:
 492 0000 00000000 		.word	USBD1
 493              		.section	.rodata.vcom_device_descriptor,"a",%progbits
 494              		.align	2
 495              		.set	.LANCHOR0,. + 0
 496              		.type	vcom_device_descriptor, %object
ARM GAS  /tmp/ccHDufAi.s 			page 10


 497              		.size	vcom_device_descriptor, 8
 498              	vcom_device_descriptor:
 499 0000 12000000 		.word	18
 500 0004 00000000 		.word	vcom_device_descriptor_data
 501              		.text
 502              	.Letext0:
 503              		.file 2 "/home/david/toolchains/psas/x-tools/stm32f407/arm-psas-eabi/bin/../lib/gcc/arm-psas-eabi/
 504              		.file 3 "/home/david/toolchains/psas/x-tools/stm32f407/arm-psas-eabi/bin/../lib/gcc/arm-psas-eabi/
 505              		.file 4 "../../ChibiOS/os/ports/GCC/ARMCMx/chtypes.h"
 506              		.file 5 "../../ChibiOS/os/kernel/include/chlists.h"
 507              		.file 6 "../../ChibiOS/os/kernel/include/chthreads.h"
 508              		.file 7 "../../ChibiOS/os/ports/GCC/ARMCMx/chcore_v7m.h"
 509              		.file 8 "../../ChibiOS/os/kernel/include/chmtx.h"
 510              		.file 9 "../../ChibiOS/os/kernel/include/chevents.h"
 511              		.file 10 "../../ChibiOS/os/kernel/include/chqueues.h"
 512              		.file 11 "../../ChibiOS/os/hal/include/usb.h"
 513              		.file 12 "../../ChibiOS/os/hal/platforms/STM32/OTGv1/usb_lld.h"
 514              		.file 13 "../../ChibiOS/os/hal/platforms/STM32/OTGv1/stm32_otg.h"
 515              		.file 14 "../../ChibiOS/os/hal/include/serial_usb.h"
 516              		.file 15 "../../ChibiOS/os/ports/common/ARMCMx/CMSIS/include/core_cm4.h"
 517              		.file 16 "../../ChibiOS/os/kernel/include/chdebug.h"