ARM GAS  /tmp/ccHDufAi.s 			page 1


   1              		.syntax unified
   2              		.cpu cortex-m4
   3              		.eabi_attribute 27, 3
   4              		.eabi_attribute 28, 1
   5              		.fpu fpv4-sp-d16
   6              		.eabi_attribute 20, 1
   7              		.eabi_attribute 21, 1
   8              		.eabi_attribute 23, 3
   9              		.eabi_attribute 24, 1
  10              		.eabi_attribute 25, 1
  11              		.eabi_attribute 26, 1
  12              		.eabi_attribute 30, 2
  13              		.eabi_attribute 34, 1
  14              		.eabi_attribute 18, 4
  15              		.thumb
  16              		.file	"usbdetail.c"
  17              		.text
  18              	.Ltext0:
  19              		.cfi_sections	.debug_frame
  20              		.section	.text.get_descriptor,"ax",%progbits
  21              		.align	2
  22              		.p2align 4,,15
  23              		.global	get_descriptor
  24              		.thumb
  25              		.thumb_func
  26              		.type	get_descriptor, %function
  27              	get_descriptor:
  28              	.LFB118:
  29              		.file 1 "usbdetail.c"
  30              		.loc 1 199 0
  31              		.cfi_startproc
  32              		@ args = 0, pretend = 0, frame = 0
  33              		@ frame_needed = 0, uses_anonymous_args = 0
  34              		@ link register save eliminated.
  35              	.LVL0:
  36              		.loc 1 203 0
  37 0000 0229     		cmp	r1, #2
  38 0002 06D0     		beq	.L6
  39 0004 0329     		cmp	r1, #3
  40 0006 06D0     		beq	.L5
  41              		.loc 1 216 0
  42 0008 0748     		ldr	r0, .L9
  43              	.LVL1:
  44 000a 0129     		cmp	r1, #1
  45 000c 18BF     		it	ne
  46 000e 0020     		movne	r0, #0
  47 0010 7047     		bx	lr
  48              	.LVL2:
  49              	.L6:
  50              		.loc 1 208 0
  51 0012 0648     		ldr	r0, .L9+4
  52              	.LVL3:
  53 0014 7047     		bx	lr
  54              	.LVL4:
  55              	.L5:
  56              		.loc 1 211 0
  57 0016 032A     		cmp	r2, #3
ARM GAS  /tmp/ccHDufAi.s 			page 2


  58 0018 03D8     		bhi	.L7
  59              		.loc 1 212 0
  60 001a 0548     		ldr	r0, .L9+8
  61              	.LVL5:
  62 001c 00EBC200 		add	r0, r0, r2, lsl #3
  63 0020 7047     		bx	lr
  64              	.LVL6:
  65              	.L7:
  66              		.loc 1 216 0
  67 0022 0020     		movs	r0, #0
  68              	.LVL7:
  69              		.loc 1 217 0
  70 0024 7047     		bx	lr
  71              	.L10:
  72 0026 00BF     		.align	2
  73              	.L9:
  74 0028 00000000 		.word	.LANCHOR0
  75 002c 00000000 		.word	.LANCHOR1
  76 0030 00000000 		.word	.LANCHOR2
  77              		.cfi_endproc
  78              	.LFE118:
  79              		.size	get_descriptor, .-get_descriptor
  80 0034 AFF30080 		.section	.text.usb_event,"ax",%progbits
  80      AFF30080 
  80      AFF30080 
  81              		.align	2
  82              		.p2align 4,,15
  83              		.global	usb_event
  84              		.thumb
  85              		.thumb_func
  86              		.type	usb_event, %function
  87              	usb_event:
  88              	.LFB119:
  89              		.loc 1 287 0
  90              		.cfi_startproc
  91              		@ args = 0, pretend = 0, frame = 0
  92              		@ frame_needed = 0, uses_anonymous_args = 0
  93              	.LVL8:
  94              		.loc 1 289 0
  95 0000 0229     		cmp	r1, #2
  96              		.loc 1 287 0
  97 0002 38B5     		push	{r3, r4, r5, lr}
  98              	.LCFI0:
  99              		.cfi_def_cfa_offset 16
 100              		.cfi_offset 3, -16
 101              		.cfi_offset 4, -12
 102              		.cfi_offset 5, -8
 103              		.cfi_offset 14, -4
 104              		.loc 1 287 0
 105 0004 0C46     		mov	r4, r1
 106 0006 0546     		mov	r5, r0
 107              		.loc 1 289 0
 108 0008 16D1     		bne	.L11
 109              	.LVL9:
 110              	.LBB8:
 111              	.LBB9:
 112              	.LBB10:
ARM GAS  /tmp/ccHDufAi.s 			page 3


 113              		.loc 1 295 0
 114 000a 2023     		movs	r3, #32
 115              	.LVL10:
 116              	@ 295 "usbdetail.c" 1
 117 000c 83F31188 		msr     BASEPRI, r3
 118              	@ 0 "" 2
 119              	.LVL11:
 120              		.thumb
 121              	.LBE10:
 122 0010 FFF7FEFF 		bl	dbg_check_lock_from_isr
 123              	.LVL12:
 124              		.loc 1 300 0
 125 0014 2846     		mov	r0, r5
 126 0016 0121     		movs	r1, #1
 127 0018 084A     		ldr	r2, .L14
 128 001a FFF7FEFF 		bl	usbInitEndpointI
 129              	.LVL13:
 130              		.loc 1 301 0
 131 001e 2146     		mov	r1, r4
 132 0020 074A     		ldr	r2, .L14+4
 133 0022 2846     		mov	r0, r5
 134 0024 FFF7FEFF 		bl	usbInitEndpointI
 135              	.LVL14:
 136              		.loc 1 304 0
 137 0028 2846     		mov	r0, r5
 138 002a FFF7FEFF 		bl	sduConfigureHookI
 139              	.LVL15:
 140              		.loc 1 306 0
 141 002e FFF7FEFF 		bl	dbg_check_unlock_from_isr
 142              	.LVL16:
 143              	.LBB11:
 144 0032 0023     		movs	r3, #0
 145              	.LVL17:
 146              	@ 306 "usbdetail.c" 1
 147 0034 83F31188 		msr     BASEPRI, r3
 148              	@ 0 "" 2
 149              	.LVL18:
 150              		.thumb
 151              	.L11:
 152 0038 38BD     		pop	{r3, r4, r5, pc}
 153              	.L15:
 154 003a 00BF     		.align	2
 155              	.L14:
 156 003c 00000000 		.word	.LANCHOR3
 157 0040 00000000 		.word	.LANCHOR4
 158              	.LBE11:
 159              	.LBE9:
 160              	.LBE8:
 161              		.cfi_endproc
 162              	.LFE119:
 163              		.size	usb_event, .-usb_event
 164              		.global	serusbcfg
 165              		.global	usbcfg
 166              		.global	SDU1
 167 0044 AFF30080 		.section	.rodata.ep1config,"a",%progbits
 167      AFF30080 
 167      AFF30080 
ARM GAS  /tmp/ccHDufAi.s 			page 4


 168              		.align	2
 169              		.set	.LANCHOR3,. + 0
 170              		.type	ep1config, %object
 171              		.size	ep1config, 36
 172              	ep1config:
 173 0000 02000000 		.word	2
 174 0004 00000000 		.word	0
 175 0008 00000000 		.word	sduDataTransmitted
 176 000c 00000000 		.word	sduDataReceived
 177 0010 4000     		.short	64
 178 0012 4000     		.short	64
 179 0014 00000000 		.word	ep1instate
 180 0018 00000000 		.word	ep1outstate
 181 001c 0200     		.short	2
 182 001e 0000     		.space	2
 183 0020 00000000 		.word	0
 184              		.section	.rodata.vcom_configuration_descriptor_data,"a",%progbits
 185              		.align	2
 186              		.type	vcom_configuration_descriptor_data, %object
 187              		.size	vcom_configuration_descriptor_data, 67
 188              	vcom_configuration_descriptor_data:
 189 0000 09       		.byte	9
 190 0001 02       		.byte	2
 191 0002 43       		.byte	67
 192 0003 00       		.byte	0
 193 0004 02       		.byte	2
 194 0005 01       		.byte	1
 195 0006 00       		.byte	0
 196 0007 C0       		.byte	-64
 197 0008 32       		.byte	50
 198 0009 09       		.byte	9
 199 000a 04       		.byte	4
 200 000b 00       		.byte	0
 201 000c 00       		.byte	0
 202 000d 01       		.byte	1
 203 000e 02       		.byte	2
 204 000f 02       		.byte	2
 205 0010 01       		.byte	1
 206 0011 00       		.byte	0
 207 0012 05       		.byte	5
 208 0013 24       		.byte	36
 209 0014 00       		.byte	0
 210 0015 10       		.byte	16
 211 0016 01       		.byte	1
 212 0017 05       		.byte	5
 213 0018 24       		.byte	36
 214 0019 01       		.byte	1
 215 001a 00       		.byte	0
 216 001b 01       		.byte	1
 217 001c 04       		.byte	4
 218 001d 24       		.byte	36
 219 001e 02       		.byte	2
 220 001f 02       		.byte	2
 221 0020 05       		.byte	5
 222 0021 24       		.byte	36
 223 0022 06       		.byte	6
 224 0023 00       		.byte	0
ARM GAS  /tmp/ccHDufAi.s 			page 5


 225 0024 01       		.byte	1
 226 0025 07       		.byte	7
 227 0026 05       		.byte	5
 228 0027 82       		.byte	-126
 229 0028 03       		.byte	3
 230 0029 08       		.byte	8
 231 002a 00       		.byte	0
 232 002b FF       		.byte	-1
 233 002c 09       		.byte	9
 234 002d 04       		.byte	4
 235 002e 01       		.byte	1
 236 002f 00       		.byte	0
 237 0030 02       		.byte	2
 238 0031 0A       		.byte	10
 239 0032 00       		.byte	0
 240 0033 00       		.byte	0
 241 0034 00       		.byte	0
 242 0035 07       		.byte	7
 243 0036 05       		.byte	5
 244 0037 01       		.byte	1
 245 0038 02       		.byte	2
 246 0039 40       		.byte	64
 247 003a 00       		.byte	0
 248 003b 00       		.byte	0
 249 003c 07       		.byte	7
 250 003d 05       		.byte	5
 251 003e 81       		.byte	-127
 252 003f 02       		.byte	2
 253 0040 40       		.byte	64
 254 0041 00       		.byte	0
 255 0042 00       		.byte	0
 256 0043 00       		.section	.bss.SDU1,"aw",%nobits
 257              		.align	2
 258              		.type	SDU1, %object
 259              		.size	SDU1, 600
 260              	SDU1:
 261 0000 00000000 		.space	600
 261      00000000 
 261      00000000 
 261      00000000 
 261      00000000 
 262              		.section	.bss.ep1instate,"aw",%nobits
 263              		.align	2
 264              		.type	ep1instate, %object
 265              		.size	ep1instate, 16
 266              	ep1instate:
 267 0000 00000000 		.space	16
 267      00000000 
 267      00000000 
 267      00000000 
 268              		.section	.rodata.vcom_configuration_descriptor,"a",%progbits
 269              		.align	2
 270              		.set	.LANCHOR1,. + 0
 271              		.type	vcom_configuration_descriptor, %object
 272              		.size	vcom_configuration_descriptor, 8
 273              	vcom_configuration_descriptor:
 274 0000 43000000 		.word	67
ARM GAS  /tmp/ccHDufAi.s 			page 6


 275 0004 00000000 		.word	vcom_configuration_descriptor_data
 276              		.section	.rodata.ep2config,"a",%progbits
 277              		.align	2
 278              		.set	.LANCHOR4,. + 0
 279              		.type	ep2config, %object
 280              		.size	ep2config, 36
 281              	ep2config:
 282 0000 03000000 		.word	3
 283 0004 00000000 		.word	0
 284 0008 00000000 		.word	sduInterruptTransmitted
 285 000c 00000000 		.word	0
 286 0010 1000     		.short	16
 287 0012 0000     		.short	0
 288 0014 00000000 		.word	ep2instate
 289 0018 00000000 		.word	0
 290 001c 0100     		.short	1
 291 001e 0000     		.space	2
 292 0020 00000000 		.word	0
 293              		.section	.bss.ep2instate,"aw",%nobits
 294              		.align	2
 295              		.type	ep2instate, %object
 296              		.size	ep2instate, 16
 297              	ep2instate:
 298 0000 00000000 		.space	16
 298      00000000 
 298      00000000 
 298      00000000 
 299              		.section	.rodata.usbcfg,"a",%progbits
 300              		.align	2
 301              		.type	usbcfg, %object
 302              		.size	usbcfg, 16
 303              	usbcfg:
 304 0000 00000000 		.word	usb_event
 305 0004 00000000 		.word	get_descriptor
 306 0008 00000000 		.word	sduRequestsHook
 307 000c 00000000 		.word	0
 308              		.section	.rodata.vcom_device_descriptor_data,"a",%progbits
 309              		.align	2
 310              		.type	vcom_device_descriptor_data, %object
 311              		.size	vcom_device_descriptor_data, 18
 312              	vcom_device_descriptor_data:
 313 0000 12       		.byte	18
 314 0001 01       		.byte	1
 315 0002 10       		.byte	16
 316 0003 01       		.byte	1
 317 0004 02       		.byte	2
 318 0005 00       		.byte	0
 319 0006 00       		.byte	0
 320 0007 40       		.byte	64
 321 0008 83       		.byte	-125
 322 0009 04       		.byte	4
 323 000a 40       		.byte	64
 324 000b 57       		.byte	87
 325 000c 00       		.byte	0
 326 000d 02       		.byte	2
 327 000e 01       		.byte	1
 328 000f 02       		.byte	2
ARM GAS  /tmp/ccHDufAi.s 			page 7


 329 0010 03       		.byte	3
 330 0011 01       		.byte	1
 331 0012 0000     		.section	.bss.ep1outstate,"aw",%nobits
 332              		.align	2
 333              		.type	ep1outstate, %object
 334              		.size	ep1outstate, 16
 335              	ep1outstate:
 336 0000 00000000 		.space	16
 336      00000000 
 336      00000000 
 336      00000000 
 337              		.section	.rodata.vcom_string0,"a",%progbits
 338              		.align	2
 339              		.type	vcom_string0, %object
 340              		.size	vcom_string0, 4
 341              	vcom_string0:
 342 0000 04       		.byte	4
 343 0001 03       		.byte	3
 344 0002 09       		.byte	9
 345 0003 04       		.byte	4
 346              		.section	.rodata.vcom_string1,"a",%progbits
 347              		.align	2
 348              		.type	vcom_string1, %object
 349              		.size	vcom_string1, 38
 350              	vcom_string1:
 351 0000 26       		.byte	38
 352 0001 03       		.byte	3
 353 0002 53       		.byte	83
 354 0003 00       		.byte	0
 355 0004 54       		.byte	84
 356 0005 00       		.byte	0
 357 0006 4D       		.byte	77
 358 0007 00       		.byte	0
 359 0008 69       		.byte	105
 360 0009 00       		.byte	0
 361 000a 63       		.byte	99
 362 000b 00       		.byte	0
 363 000c 72       		.byte	114
 364 000d 00       		.byte	0
 365 000e 6F       		.byte	111
 366 000f 00       		.byte	0
 367 0010 65       		.byte	101
 368 0011 00       		.byte	0
 369 0012 6C       		.byte	108
 370 0013 00       		.byte	0
 371 0014 65       		.byte	101
 372 0015 00       		.byte	0
 373 0016 63       		.byte	99
 374 0017 00       		.byte	0
 375 0018 74       		.byte	116
 376 0019 00       		.byte	0
 377 001a 72       		.byte	114
 378 001b 00       		.byte	0
 379 001c 6F       		.byte	111
 380 001d 00       		.byte	0
 381 001e 6E       		.byte	110
 382 001f 00       		.byte	0
ARM GAS  /tmp/ccHDufAi.s 			page 8


 383 0020 69       		.byte	105
 384 0021 00       		.byte	0
 385 0022 63       		.byte	99
 386 0023 00       		.byte	0
 387 0024 73       		.byte	115
 388 0025 00       		.byte	0
 389 0026 0000     		.section	.rodata.vcom_string2,"a",%progbits
 390              		.align	2
 391              		.type	vcom_string2, %object
 392              		.size	vcom_string2, 56
 393              	vcom_string2:
 394 0000 38       		.byte	56
 395 0001 03       		.byte	3
 396 0002 43       		.byte	67
 397 0003 00       		.byte	0
 398 0004 68       		.byte	104
 399 0005 00       		.byte	0
 400 0006 69       		.byte	105
 401 0007 00       		.byte	0
 402 0008 62       		.byte	98
 403 0009 00       		.byte	0
 404 000a 69       		.byte	105
 405 000b 00       		.byte	0
 406 000c 4F       		.byte	79
 407 000d 00       		.byte	0
 408 000e 53       		.byte	83
 409 000f 00       		.byte	0
 410 0010 2F       		.byte	47
 411 0011 00       		.byte	0
 412 0012 52       		.byte	82
 413 0013 00       		.byte	0
 414 0014 54       		.byte	84
 415 0015 00       		.byte	0
 416 0016 20       		.byte	32
 417 0017 00       		.byte	0
 418 0018 56       		.byte	86
 419 0019 00       		.byte	0
 420 001a 69       		.byte	105
 421 001b 00       		.byte	0
 422 001c 72       		.byte	114
 423 001d 00       		.byte	0
 424 001e 74       		.byte	116
 425 001f 00       		.byte	0
 426 0020 75       		.byte	117
 427 0021 00       		.byte	0
 428 0022 61       		.byte	97
 429 0023 00       		.byte	0
 430 0024 6C       		.byte	108
 431 0025 00       		.byte	0
 432 0026 20       		.byte	32
 433 0027 00       		.byte	0
 434 0028 43       		.byte	67
 435 0029 00       		.byte	0
 436 002a 4F       		.byte	79
 437 002b 00       		.byte	0
 438 002c 4D       		.byte	77
 439 002d 00       		.byte	0
ARM GAS  /tmp/ccHDufAi.s 			page 9


 440 002e 20       		.byte	32
 441 002f 00       		.byte	0
 442 0030 50       		.byte	80
 443 0031 00       		.byte	0
 444 0032 6F       		.byte	111
 445 0033 00       		.byte	0
 446 0034 72       		.byte	114
 447 0035 00       		.byte	0
 448 0036 74       		.byte	116
 449 0037 00       		.byte	0
 450              		.section	.rodata.vcom_string3,"a",%progbits
 451              		.align	2
 452              		.type	vcom_string3, %object
 453              		.size	vcom_string3, 18
 454              	vcom_string3:
 455 0000 12       		.byte	18
 456 0001 03       		.byte	3
 457 0002 50       		.byte	80
 458 0003 00       		.byte	0
 459 0004 53       		.byte	83
 460 0005 00       		.byte	0
 461 0006 41       		.byte	65
 462 0007 00       		.byte	0
 463 0008 53       		.byte	83
 464 0009 00       		.byte	0
 465 000a 2D       		.byte	45
 466 000b 00       		.byte	0
 467 000c 32       		.byte	50
 468 000d 00       		.byte	0
 469 000e 35       		.byte	53
 470 000f 00       		.byte	0
 471 0010 32       		.byte	50
 472 0011 00       		.byte	0
 473 0012 0000     		.section	.rodata.vcom_strings,"a",%progbits
 474              		.align	2
 475              		.set	.LANCHOR2,. + 0
 476              		.type	vcom_strings, %object
 477              		.size	vcom_strings, 32
 478              	vcom_strings:
 479 0000 04000000 		.word	4
 480 0004 00000000 		.word	vcom_string0
 481 0008 26000000 		.word	38
 482 000c 00000000 		.word	vcom_string1
 483 0010 38000000 		.word	56
 484 0014 00000000 		.word	vcom_string2
 485 0018 12000000 		.word	18
 486 001c 00000000 		.word	vcom_string3
 487              		.section	.rodata.serusbcfg,"a",%progbits
 488              		.align	2
 489              		.type	serusbcfg, %object
 490              		.size	serusbcfg, 4
 491              	serusbcfg:
 492 0000 00000000 		.word	USBD1
 493              		.section	.rodata.vcom_device_descriptor,"a",%progbits
 494              		.align	2
 495              		.set	.LANCHOR0,. + 0
 496              		.type	vcom_device_descriptor, %object
ARM GAS  /tmp/ccHDufAi.s 			page 10


 497              		.size	vcom_device_descriptor, 8
 498              	vcom_device_descriptor:
 499 0000 12000000 		.word	18
 500 0004 00000000 		.word	vcom_device_descriptor_data
 501              		.text
 502              	.Letext0:
 503              		.file 2 "/home/david/toolchains/psas/x-tools/stm32f407/arm-psas-eabi/bin/../lib/gcc/arm-psas-eabi/
 504              		.file 3 "/home/david/toolchains/psas/x-tools/stm32f407/arm-psas-eabi/bin/../lib/gcc/arm-psas-eabi/
 505              		.file 4 "../../ChibiOS/os/ports/GCC/ARMCMx/chtypes.h"
 506              		.file 5 "../../ChibiOS/os/kernel/include/chlists.h"
 507              		.file 6 "../../ChibiOS/os/kernel/include/chthreads.h"
 508              		.file 7 "../../ChibiOS/os/ports/GCC/ARMCMx/chcore_v7m.h"
 509              		.file 8 "../../ChibiOS/os/kernel/include/chmtx.h"
 510              		.file 9 "../../ChibiOS/os/kernel/include/chevents.h"
 511              		.file 10 "../../ChibiOS/os/kernel/include/chqueues.h"
 512              		.file 11 "../../ChibiOS/os/hal/include/usb.h"
 513              		.file 12 "../../ChibiOS/os/hal/platforms/STM32/OTGv1/usb_lld.h"
 514              		.file 13 "../../ChibiOS/os/hal/platforms/STM32/OTGv1/stm32_otg.h"
 515              		.file 14 "../../ChibiOS/os/hal/include/serial_usb.h"
 516              		.file 15 "../../ChibiOS/os/ports/common/ARMCMx/CMSIS/include/core_cm4.h"
 517              		.file 16 "../../ChibiOS/os/kernel/include/chdebug.h"
 518              		.section	.debug_info,"",%progbits
 519              	.Ldebug_info0:
 520 0000 37170000 		.4byte	0x1737
 521 0004 0200     		.2byte	0x2
 522 0006 00000000 		.4byte	.Ldebug_abbrev0
 523 000a 04       		.byte	0x4
 524 000b 01       		.uleb128 0x1
 525 000c B3000000 		.4byte	.LASF284
 526 0010 01       		.byte	0x1
 527 0011 CA000000 		.4byte	.LASF285
 528 0015 7C020000 		.4byte	.LASF286
 529 0019 00000000 		.4byte	.Ldebug_ranges0+0
 530 001d 00000000 		.4byte	0
 531 0021 00000000 		.4byte	0
 532 0025 00000000 		.4byte	.Ldebug_line0
 533 0029 02       		.uleb128 0x2
 534 002a 00000000 		.4byte	.LASF11
 535 002e 02       		.byte	0x2
 536 002f D5       		.byte	0xd5
 537 0030 34000000 		.4byte	0x34
 538 0034 03       		.uleb128 0x3
 539 0035 04       		.byte	0x4
 540 0036 07       		.byte	0x7
 541 0037 BC060000 		.4byte	.LASF0
 542 003b 04       		.uleb128 0x4
 543 003c 04       		.byte	0x4
 544 003d 03       		.uleb128 0x3
 545 003e 01       		.byte	0x1
 546 003f 06       		.byte	0x6
 547 0040 0B020000 		.4byte	.LASF1
 548 0044 03       		.uleb128 0x3
 549 0045 01       		.byte	0x1
 550 0046 08       		.byte	0x8
 551 0047 AB020000 		.4byte	.LASF2
 552 004b 03       		.uleb128 0x3
 553 004c 02       		.byte	0x2
ARM GAS  /tmp/ccHDufAi.s 			page 11


 554 004d 05       		.byte	0x5
 555 004e 2C090000 		.4byte	.LASF3
 556 0052 03       		.uleb128 0x3
 557 0053 02       		.byte	0x2
 558 0054 07       		.byte	0x7
 559 0055 8B0A0000 		.4byte	.LASF4
 560 0059 05       		.uleb128 0x5
 561 005a 04       		.byte	0x4
 562 005b 05       		.byte	0x5
 563 005c 696E7400 		.ascii	"int\000"
 564 0060 03       		.uleb128 0x3
 565 0061 08       		.byte	0x8
 566 0062 05       		.byte	0x5
 567 0063 F7050000 		.4byte	.LASF5
 568 0067 03       		.uleb128 0x3
 569 0068 08       		.byte	0x8
 570 0069 07       		.byte	0x7
 571 006a DF070000 		.4byte	.LASF6
 572 006e 03       		.uleb128 0x3
 573 006f 04       		.byte	0x4
 574 0070 05       		.byte	0x5
 575 0071 6B010000 		.4byte	.LASF7
 576 0075 03       		.uleb128 0x3
 577 0076 04       		.byte	0x4
 578 0077 07       		.byte	0x7
 579 0078 07000000 		.4byte	.LASF8
 580 007c 03       		.uleb128 0x3
 581 007d 04       		.byte	0x4
 582 007e 07       		.byte	0x7
 583 007f EE040000 		.4byte	.LASF9
 584 0083 03       		.uleb128 0x3
 585 0084 01       		.byte	0x1
 586 0085 08       		.byte	0x8
 587 0086 2F030000 		.4byte	.LASF10
 588 008a 06       		.uleb128 0x6
 589 008b 04       		.byte	0x4
 590 008c 90000000 		.4byte	0x90
 591 0090 07       		.uleb128 0x7
 592 0091 83000000 		.4byte	0x83
 593 0095 02       		.uleb128 0x2
 594 0096 21020000 		.4byte	.LASF12
 595 009a 03       		.byte	0x3
 596 009b 2A       		.byte	0x2a
 597 009c 44000000 		.4byte	0x44
 598 00a0 02       		.uleb128 0x2
 599 00a1 07080000 		.4byte	.LASF13
 600 00a5 03       		.byte	0x3
 601 00a6 36       		.byte	0x36
 602 00a7 52000000 		.4byte	0x52
 603 00ab 02       		.uleb128 0x2
 604 00ac 4D000000 		.4byte	.LASF14
 605 00b0 03       		.byte	0x3
 606 00b1 4F       		.byte	0x4f
 607 00b2 6E000000 		.4byte	0x6e
 608 00b6 02       		.uleb128 0x2
 609 00b7 410A0000 		.4byte	.LASF15
 610 00bb 03       		.byte	0x3
ARM GAS  /tmp/ccHDufAi.s 			page 12


 611 00bc 50       		.byte	0x50
 612 00bd 7C000000 		.4byte	0x7c
 613 00c1 02       		.uleb128 0x2
 614 00c2 36090000 		.4byte	.LASF16
 615 00c6 03       		.byte	0x3
 616 00c7 78       		.byte	0x78
 617 00c8 67000000 		.4byte	0x67
 618 00cc 02       		.uleb128 0x2
 619 00cd 89090000 		.4byte	.LASF17
 620 00d1 04       		.byte	0x4
 621 00d2 27       		.byte	0x27
 622 00d3 AB000000 		.4byte	0xab
 623 00d7 02       		.uleb128 0x2
 624 00d8 FC080000 		.4byte	.LASF18
 625 00dc 04       		.byte	0x4
 626 00dd 28       		.byte	0x28
 627 00de 95000000 		.4byte	0x95
 628 00e2 02       		.uleb128 0x2
 629 00e3 90010000 		.4byte	.LASF19
 630 00e7 04       		.byte	0x4
 631 00e8 29       		.byte	0x29
 632 00e9 95000000 		.4byte	0x95
 633 00ed 02       		.uleb128 0x2
 634 00ee 0B0A0000 		.4byte	.LASF20
 635 00f2 04       		.byte	0x4
 636 00f3 2A       		.byte	0x2a
 637 00f4 95000000 		.4byte	0x95
 638 00f8 02       		.uleb128 0x2
 639 00f9 76080000 		.4byte	.LASF21
 640 00fd 04       		.byte	0x4
 641 00fe 2B       		.byte	0x2b
 642 00ff 95000000 		.4byte	0x95
 643 0103 02       		.uleb128 0x2
 644 0104 2D000000 		.4byte	.LASF22
 645 0108 04       		.byte	0x4
 646 0109 2C       		.byte	0x2c
 647 010a B6000000 		.4byte	0xb6
 648 010e 02       		.uleb128 0x2
 649 010f 1D080000 		.4byte	.LASF23
 650 0113 04       		.byte	0x4
 651 0114 2D       		.byte	0x2d
 652 0115 AB000000 		.4byte	0xab
 653 0119 02       		.uleb128 0x2
 654 011a 61020000 		.4byte	.LASF24
 655 011e 04       		.byte	0x4
 656 011f 2F       		.byte	0x2f
 657 0120 B6000000 		.4byte	0xb6
 658 0124 02       		.uleb128 0x2
 659 0125 55070000 		.4byte	.LASF25
 660 0129 04       		.byte	0x4
 661 012a 30       		.byte	0x30
 662 012b B6000000 		.4byte	0xb6
 663 012f 02       		.uleb128 0x2
 664 0130 10000000 		.4byte	.LASF26
 665 0134 04       		.byte	0x4
 666 0135 31       		.byte	0x31
 667 0136 B6000000 		.4byte	0xb6
ARM GAS  /tmp/ccHDufAi.s 			page 13


 668 013a 02       		.uleb128 0x2
 669 013b C9090000 		.4byte	.LASF27
 670 013f 05       		.byte	0x5
 671 0140 23       		.byte	0x23
 672 0141 45010000 		.4byte	0x145
 673 0145 08       		.uleb128 0x8
 674 0146 C9090000 		.4byte	.LASF27
 675 014a 4C       		.byte	0x4c
 676 014b 06       		.byte	0x6
 677 014c 57       		.byte	0x57
 678 014d 78020000 		.4byte	0x278
 679 0151 09       		.uleb128 0x9
 680 0152 74010000 		.4byte	.LASF28
 681 0156 06       		.byte	0x6
 682 0157 58       		.byte	0x58
 683 0158 9D020000 		.4byte	0x29d
 684 015c 02       		.byte	0x2
 685 015d 23       		.byte	0x23
 686 015e 00       		.uleb128 0
 687 015f 09       		.uleb128 0x9
 688 0160 89010000 		.4byte	.LASF29
 689 0164 06       		.byte	0x6
 690 0165 5A       		.byte	0x5a
 691 0166 9D020000 		.4byte	0x29d
 692 016a 02       		.byte	0x2
 693 016b 23       		.byte	0x23
 694 016c 04       		.uleb128 0x4
 695 016d 09       		.uleb128 0x9
 696 016e 47030000 		.4byte	.LASF30
 697 0172 06       		.byte	0x6
 698 0173 5C       		.byte	0x5c
 699 0174 03010000 		.4byte	0x103
 700 0178 02       		.byte	0x2
 701 0179 23       		.byte	0x23
 702 017a 08       		.uleb128 0x8
 703 017b 09       		.uleb128 0x9
 704 017c 1A000000 		.4byte	.LASF31
 705 0180 06       		.byte	0x6
 706 0181 5D       		.byte	0x5d
 707 0182 74030000 		.4byte	0x374
 708 0186 02       		.byte	0x2
 709 0187 23       		.byte	0x23
 710 0188 0C       		.uleb128 0xc
 711 0189 09       		.uleb128 0x9
 712 018a 57010000 		.4byte	.LASF32
 713 018e 06       		.byte	0x6
 714 018f 5F       		.byte	0x5f
 715 0190 9D020000 		.4byte	0x29d
 716 0194 02       		.byte	0x2
 717 0195 23       		.byte	0x23
 718 0196 10       		.uleb128 0x10
 719 0197 09       		.uleb128 0x9
 720 0198 FF070000 		.4byte	.LASF33
 721 019c 06       		.byte	0x6
 722 019d 60       		.byte	0x60
 723 019e 9D020000 		.4byte	0x29d
 724 01a2 02       		.byte	0x2
ARM GAS  /tmp/ccHDufAi.s 			page 14


 725 01a3 23       		.byte	0x23
 726 01a4 14       		.uleb128 0x14
 727 01a5 09       		.uleb128 0x9
 728 01a6 2C0B0000 		.4byte	.LASF34
 729 01aa 06       		.byte	0x6
 730 01ab 67       		.byte	0x67
 731 01ac 8A000000 		.4byte	0x8a
 732 01b0 02       		.byte	0x2
 733 01b1 23       		.byte	0x23
 734 01b2 18       		.uleb128 0x18
 735 01b3 09       		.uleb128 0x9
 736 01b4 DC0A0000 		.4byte	.LASF35
 737 01b8 06       		.byte	0x6
 738 01b9 6D       		.byte	0x6d
 739 01ba 9A040000 		.4byte	0x49a
 740 01be 02       		.byte	0x2
 741 01bf 23       		.byte	0x23
 742 01c0 1C       		.uleb128 0x1c
 743 01c1 09       		.uleb128 0x9
 744 01c2 920B0000 		.4byte	.LASF36
 745 01c6 06       		.byte	0x6
 746 01c7 72       		.byte	0x72
 747 01c8 E2000000 		.4byte	0xe2
 748 01cc 02       		.byte	0x2
 749 01cd 23       		.byte	0x23
 750 01ce 20       		.uleb128 0x20
 751 01cf 09       		.uleb128 0x9
 752 01d0 A0060000 		.4byte	.LASF37
 753 01d4 06       		.byte	0x6
 754 01d5 76       		.byte	0x76
 755 01d6 D7000000 		.4byte	0xd7
 756 01da 02       		.byte	0x2
 757 01db 23       		.byte	0x23
 758 01dc 21       		.uleb128 0x21
 759 01dd 09       		.uleb128 0x9
 760 01de FC060000 		.4byte	.LASF38
 761 01e2 06       		.byte	0x6
 762 01e3 7B       		.byte	0x7b
 763 01e4 ED000000 		.4byte	0xed
 764 01e8 02       		.byte	0x2
 765 01e9 23       		.byte	0x23
 766 01ea 22       		.uleb128 0x22
 767 01eb 09       		.uleb128 0x9
 768 01ec 17020000 		.4byte	.LASF39
 769 01f0 06       		.byte	0x6
 770 01f1 81       		.byte	0x81
 771 01f2 F8000000 		.4byte	0xf8
 772 01f6 02       		.byte	0x2
 773 01f7 23       		.byte	0x23
 774 01f8 23       		.uleb128 0x23
 775 01f9 09       		.uleb128 0x9
 776 01fa 74070000 		.4byte	.LASF40
 777 01fe 06       		.byte	0x6
 778 01ff 88       		.byte	0x88
 779 0200 9C030000 		.4byte	0x39c
 780 0204 02       		.byte	0x2
 781 0205 23       		.byte	0x23
ARM GAS  /tmp/ccHDufAi.s 			page 15


 782 0206 24       		.uleb128 0x24
 783 0207 0A       		.uleb128 0xa
 784 0208 705F7500 		.ascii	"p_u\000"
 785 020c 06       		.byte	0x6
 786 020d AD       		.byte	0xad
 787 020e 65040000 		.4byte	0x465
 788 0212 02       		.byte	0x2
 789 0213 23       		.byte	0x23
 790 0214 28       		.uleb128 0x28
 791 0215 09       		.uleb128 0x9
 792 0216 90060000 		.4byte	.LASF41
 793 021a 06       		.byte	0x6
 794 021b B2       		.byte	0xb2
 795 021c C5020000 		.4byte	0x2c5
 796 0220 02       		.byte	0x2
 797 0221 23       		.byte	0x23
 798 0222 2C       		.uleb128 0x2c
 799 0223 09       		.uleb128 0x9
 800 0224 35000000 		.4byte	.LASF42
 801 0228 06       		.byte	0x6
 802 0229 B8       		.byte	0xb8
 803 022a A3020000 		.4byte	0x2a3
 804 022e 02       		.byte	0x2
 805 022f 23       		.byte	0x23
 806 0230 30       		.uleb128 0x30
 807 0231 09       		.uleb128 0x9
 808 0232 800B0000 		.4byte	.LASF43
 809 0236 06       		.byte	0x6
 810 0237 BC       		.byte	0xbc
 811 0238 0E010000 		.4byte	0x10e
 812 023c 02       		.byte	0x2
 813 023d 23       		.byte	0x23
 814 023e 38       		.uleb128 0x38
 815 023f 09       		.uleb128 0x9
 816 0240 5A040000 		.4byte	.LASF44
 817 0244 06       		.byte	0x6
 818 0245 C2       		.byte	0xc2
 819 0246 19010000 		.4byte	0x119
 820 024a 02       		.byte	0x2
 821 024b 23       		.byte	0x23
 822 024c 3C       		.uleb128 0x3c
 823 024d 09       		.uleb128 0x9
 824 024e A5010000 		.4byte	.LASF45
 825 0252 06       		.byte	0x6
 826 0253 C9       		.byte	0xc9
 827 0254 A0040000 		.4byte	0x4a0
 828 0258 02       		.byte	0x2
 829 0259 23       		.byte	0x23
 830 025a 40       		.uleb128 0x40
 831 025b 09       		.uleb128 0x9
 832 025c A2070000 		.4byte	.LASF46
 833 0260 06       		.byte	0x6
 834 0261 CD       		.byte	0xcd
 835 0262 03010000 		.4byte	0x103
 836 0266 02       		.byte	0x2
 837 0267 23       		.byte	0x23
 838 0268 44       		.uleb128 0x44
ARM GAS  /tmp/ccHDufAi.s 			page 16


 839 0269 09       		.uleb128 0x9
 840 026a E8060000 		.4byte	.LASF47
 841 026e 06       		.byte	0x6
 842 026f D3       		.byte	0xd3
 843 0270 3B000000 		.4byte	0x3b
 844 0274 02       		.byte	0x2
 845 0275 23       		.byte	0x23
 846 0276 48       		.uleb128 0x48
 847 0277 00       		.byte	0
 848 0278 0B       		.uleb128 0xb
 849 0279 08       		.byte	0x8
 850 027a 05       		.byte	0x5
 851 027b 5A       		.byte	0x5a
 852 027c 9D020000 		.4byte	0x29d
 853 0280 09       		.uleb128 0x9
 854 0281 74010000 		.4byte	.LASF28
 855 0285 05       		.byte	0x5
 856 0286 5B       		.byte	0x5b
 857 0287 9D020000 		.4byte	0x29d
 858 028b 02       		.byte	0x2
 859 028c 23       		.byte	0x23
 860 028d 00       		.uleb128 0
 861 028e 09       		.uleb128 0x9
 862 028f 89010000 		.4byte	.LASF29
 863 0293 05       		.byte	0x5
 864 0294 5D       		.byte	0x5d
 865 0295 9D020000 		.4byte	0x29d
 866 0299 02       		.byte	0x2
 867 029a 23       		.byte	0x23
 868 029b 04       		.uleb128 0x4
 869 029c 00       		.byte	0
 870 029d 06       		.uleb128 0x6
 871 029e 04       		.byte	0x4
 872 029f 3A010000 		.4byte	0x13a
 873 02a3 02       		.uleb128 0x2
 874 02a4 5B0A0000 		.4byte	.LASF48
 875 02a8 05       		.byte	0x5
 876 02a9 5F       		.byte	0x5f
 877 02aa 78020000 		.4byte	0x278
 878 02ae 0B       		.uleb128 0xb
 879 02af 04       		.byte	0x4
 880 02b0 05       		.byte	0x5
 881 02b1 64       		.byte	0x64
 882 02b2 C5020000 		.4byte	0x2c5
 883 02b6 09       		.uleb128 0x9
 884 02b7 74010000 		.4byte	.LASF28
 885 02bb 05       		.byte	0x5
 886 02bc 66       		.byte	0x66
 887 02bd 9D020000 		.4byte	0x29d
 888 02c1 02       		.byte	0x2
 889 02c2 23       		.byte	0x23
 890 02c3 00       		.uleb128 0
 891 02c4 00       		.byte	0
 892 02c5 02       		.uleb128 0x2
 893 02c6 16070000 		.4byte	.LASF49
 894 02ca 05       		.byte	0x5
 895 02cb 69       		.byte	0x69
ARM GAS  /tmp/ccHDufAi.s 			page 17


 896 02cc AE020000 		.4byte	0x2ae
 897 02d0 02       		.uleb128 0x2
 898 02d1 BE010000 		.4byte	.LASF50
 899 02d5 07       		.byte	0x7
 900 02d6 DE       		.byte	0xde
 901 02d7 3B000000 		.4byte	0x3b
 902 02db 02       		.uleb128 0x2
 903 02dc 94030000 		.4byte	.LASF51
 904 02e0 07       		.byte	0x7
 905 02e1 E4       		.byte	0xe4
 906 02e2 C1000000 		.4byte	0xc1
 907 02e6 0C       		.uleb128 0xc
 908 02e7 53040000 		.4byte	.LASF52
 909 02eb 24       		.byte	0x24
 910 02ec 07       		.byte	0x7
 911 02ed 0501     		.2byte	0x105
 912 02ef 74030000 		.4byte	0x374
 913 02f3 0D       		.uleb128 0xd
 914 02f4 723400   		.ascii	"r4\000"
 915 02f7 07       		.byte	0x7
 916 02f8 1801     		.2byte	0x118
 917 02fa D0020000 		.4byte	0x2d0
 918 02fe 02       		.byte	0x2
 919 02ff 23       		.byte	0x23
 920 0300 00       		.uleb128 0
 921 0301 0D       		.uleb128 0xd
 922 0302 723500   		.ascii	"r5\000"
 923 0305 07       		.byte	0x7
 924 0306 1901     		.2byte	0x119
 925 0308 D0020000 		.4byte	0x2d0
 926 030c 02       		.byte	0x2
 927 030d 23       		.byte	0x23
 928 030e 04       		.uleb128 0x4
 929 030f 0D       		.uleb128 0xd
 930 0310 723600   		.ascii	"r6\000"
 931 0313 07       		.byte	0x7
 932 0314 1A01     		.2byte	0x11a
 933 0316 D0020000 		.4byte	0x2d0
 934 031a 02       		.byte	0x2
 935 031b 23       		.byte	0x23
 936 031c 08       		.uleb128 0x8
 937 031d 0D       		.uleb128 0xd
 938 031e 723700   		.ascii	"r7\000"
 939 0321 07       		.byte	0x7
 940 0322 1B01     		.2byte	0x11b
 941 0324 D0020000 		.4byte	0x2d0
 942 0328 02       		.byte	0x2
 943 0329 23       		.byte	0x23
 944 032a 0C       		.uleb128 0xc
 945 032b 0D       		.uleb128 0xd
 946 032c 723800   		.ascii	"r8\000"
 947 032f 07       		.byte	0x7
 948 0330 1C01     		.2byte	0x11c
 949 0332 D0020000 		.4byte	0x2d0
 950 0336 02       		.byte	0x2
 951 0337 23       		.byte	0x23
 952 0338 10       		.uleb128 0x10
ARM GAS  /tmp/ccHDufAi.s 			page 18


 953 0339 0D       		.uleb128 0xd
 954 033a 723900   		.ascii	"r9\000"
 955 033d 07       		.byte	0x7
 956 033e 1D01     		.2byte	0x11d
 957 0340 D0020000 		.4byte	0x2d0
 958 0344 02       		.byte	0x2
 959 0345 23       		.byte	0x23
 960 0346 14       		.uleb128 0x14
 961 0347 0D       		.uleb128 0xd
 962 0348 72313000 		.ascii	"r10\000"
 963 034c 07       		.byte	0x7
 964 034d 1E01     		.2byte	0x11e
 965 034f D0020000 		.4byte	0x2d0
 966 0353 02       		.byte	0x2
 967 0354 23       		.byte	0x23
 968 0355 18       		.uleb128 0x18
 969 0356 0D       		.uleb128 0xd
 970 0357 72313100 		.ascii	"r11\000"
 971 035b 07       		.byte	0x7
 972 035c 1F01     		.2byte	0x11f
 973 035e D0020000 		.4byte	0x2d0
 974 0362 02       		.byte	0x2
 975 0363 23       		.byte	0x23
 976 0364 1C       		.uleb128 0x1c
 977 0365 0D       		.uleb128 0xd
 978 0366 6C7200   		.ascii	"lr\000"
 979 0369 07       		.byte	0x7
 980 036a 2001     		.2byte	0x120
 981 036c D0020000 		.4byte	0x2d0
 982 0370 02       		.byte	0x2
 983 0371 23       		.byte	0x23
 984 0372 20       		.uleb128 0x20
 985 0373 00       		.byte	0
 986 0374 0C       		.uleb128 0xc
 987 0375 6D020000 		.4byte	.LASF53
 988 0379 04       		.byte	0x4
 989 037a 07       		.byte	0x7
 990 037b 2A01     		.2byte	0x12a
 991 037d 91030000 		.4byte	0x391
 992 0381 0D       		.uleb128 0xd
 993 0382 72313300 		.ascii	"r13\000"
 994 0386 07       		.byte	0x7
 995 0387 2B01     		.2byte	0x12b
 996 0389 91030000 		.4byte	0x391
 997 038d 02       		.byte	0x2
 998 038e 23       		.byte	0x23
 999 038f 00       		.uleb128 0
 1000 0390 00       		.byte	0
 1001 0391 06       		.uleb128 0x6
 1002 0392 04       		.byte	0x4
 1003 0393 E6020000 		.4byte	0x2e6
 1004 0397 0E       		.uleb128 0xe
 1005 0398 B6000000 		.4byte	0xb6
 1006 039c 0E       		.uleb128 0xe
 1007 039d 2F010000 		.4byte	0x12f
 1008 03a1 08       		.uleb128 0x8
 1009 03a2 E2050000 		.4byte	.LASF54
ARM GAS  /tmp/ccHDufAi.s 			page 19


 1010 03a6 10       		.byte	0x10
 1011 03a7 08       		.byte	0x8
 1012 03a8 25       		.byte	0x25
 1013 03a9 D8030000 		.4byte	0x3d8
 1014 03ad 09       		.uleb128 0x9
 1015 03ae 14060000 		.4byte	.LASF55
 1016 03b2 08       		.byte	0x8
 1017 03b3 26       		.byte	0x26
 1018 03b4 A3020000 		.4byte	0x2a3
 1019 03b8 02       		.byte	0x2
 1020 03b9 23       		.byte	0x23
 1021 03ba 00       		.uleb128 0
 1022 03bb 09       		.uleb128 0x9
 1023 03bc D6000000 		.4byte	.LASF56
 1024 03c0 08       		.byte	0x8
 1025 03c1 28       		.byte	0x28
 1026 03c2 9D020000 		.4byte	0x29d
 1027 03c6 02       		.byte	0x2
 1028 03c7 23       		.byte	0x23
 1029 03c8 08       		.uleb128 0x8
 1030 03c9 09       		.uleb128 0x9
 1031 03ca 330B0000 		.4byte	.LASF57
 1032 03ce 08       		.byte	0x8
 1033 03cf 2A       		.byte	0x2a
 1034 03d0 D8030000 		.4byte	0x3d8
 1035 03d4 02       		.byte	0x2
 1036 03d5 23       		.byte	0x23
 1037 03d6 0C       		.uleb128 0xc
 1038 03d7 00       		.byte	0
 1039 03d8 06       		.uleb128 0x6
 1040 03d9 04       		.byte	0x4
 1041 03da A1030000 		.4byte	0x3a1
 1042 03de 02       		.uleb128 0x2
 1043 03df E2050000 		.4byte	.LASF54
 1044 03e3 08       		.byte	0x8
 1045 03e4 2C       		.byte	0x2c
 1046 03e5 A1030000 		.4byte	0x3a1
 1047 03e9 02       		.uleb128 0x2
 1048 03ea 1A0A0000 		.4byte	.LASF58
 1049 03ee 09       		.byte	0x9
 1050 03ef 25       		.byte	0x25
 1051 03f0 F4030000 		.4byte	0x3f4
 1052 03f4 08       		.uleb128 0x8
 1053 03f5 1A0A0000 		.4byte	.LASF58
 1054 03f9 10       		.byte	0x10
 1055 03fa 09       		.byte	0x9
 1056 03fb 2A       		.byte	0x2a
 1057 03fc 39040000 		.4byte	0x439
 1058 0400 09       		.uleb128 0x9
 1059 0401 34050000 		.4byte	.LASF59
 1060 0405 09       		.byte	0x9
 1061 0406 2B       		.byte	0x2b
 1062 0407 39040000 		.4byte	0x439
 1063 040b 02       		.byte	0x2
 1064 040c 23       		.byte	0x23
 1065 040d 00       		.uleb128 0
 1066 040e 09       		.uleb128 0x9
ARM GAS  /tmp/ccHDufAi.s 			page 20


 1067 040f 860B0000 		.4byte	.LASF60
 1068 0413 09       		.byte	0x9
 1069 0414 2E       		.byte	0x2e
 1070 0415 9D020000 		.4byte	0x29d
 1071 0419 02       		.byte	0x2
 1072 041a 23       		.byte	0x23
 1073 041b 04       		.uleb128 0x4
 1074 041c 09       		.uleb128 0x9
 1075 041d EF0A0000 		.4byte	.LASF61
 1076 0421 09       		.byte	0x9
 1077 0422 30       		.byte	0x30
 1078 0423 19010000 		.4byte	0x119
 1079 0427 02       		.byte	0x2
 1080 0428 23       		.byte	0x23
 1081 0429 08       		.uleb128 0x8
 1082 042a 09       		.uleb128 0x9
 1083 042b 85000000 		.4byte	.LASF62
 1084 042f 09       		.byte	0x9
 1085 0430 33       		.byte	0x33
 1086 0431 24010000 		.4byte	0x124
 1087 0435 02       		.byte	0x2
 1088 0436 23       		.byte	0x23
 1089 0437 0C       		.uleb128 0xc
 1090 0438 00       		.byte	0
 1091 0439 06       		.uleb128 0x6
 1092 043a 04       		.byte	0x4
 1093 043b E9030000 		.4byte	0x3e9
 1094 043f 08       		.uleb128 0x8
 1095 0440 DA040000 		.4byte	.LASF63
 1096 0444 04       		.byte	0x4
 1097 0445 09       		.byte	0x9
 1098 0446 3A       		.byte	0x3a
 1099 0447 5A040000 		.4byte	0x45a
 1100 044b 09       		.uleb128 0x9
 1101 044c BF040000 		.4byte	.LASF64
 1102 0450 09       		.byte	0x9
 1103 0451 3B       		.byte	0x3b
 1104 0452 39040000 		.4byte	0x439
 1105 0456 02       		.byte	0x2
 1106 0457 23       		.byte	0x23
 1107 0458 00       		.uleb128 0
 1108 0459 00       		.byte	0
 1109 045a 02       		.uleb128 0x2
 1110 045b DA040000 		.4byte	.LASF63
 1111 045f 09       		.byte	0x9
 1112 0460 3E       		.byte	0x3e
 1113 0461 3F040000 		.4byte	0x43f
 1114 0465 0F       		.uleb128 0xf
 1115 0466 04       		.byte	0x4
 1116 0467 06       		.byte	0x6
 1117 0468 8F       		.byte	0x8f
 1118 0469 9A040000 		.4byte	0x49a
 1119 046d 10       		.uleb128 0x10
 1120 046e 840A0000 		.4byte	.LASF65
 1121 0472 06       		.byte	0x6
 1122 0473 96       		.byte	0x96
 1123 0474 0E010000 		.4byte	0x10e
ARM GAS  /tmp/ccHDufAi.s 			page 21


 1124 0478 10       		.uleb128 0x10
 1125 0479 DE000000 		.4byte	.LASF66
 1126 047d 06       		.byte	0x6
 1127 047e 9D       		.byte	0x9d
 1128 047f 0E010000 		.4byte	0x10e
 1129 0483 10       		.uleb128 0x10
 1130 0484 65030000 		.4byte	.LASF67
 1131 0488 06       		.byte	0x6
 1132 0489 A4       		.byte	0xa4
 1133 048a 3B000000 		.4byte	0x3b
 1134 048e 10       		.uleb128 0x10
 1135 048f FB000000 		.4byte	.LASF68
 1136 0493 06       		.byte	0x6
 1137 0494 AB       		.byte	0xab
 1138 0495 19010000 		.4byte	0x119
 1139 0499 00       		.byte	0
 1140 049a 06       		.uleb128 0x6
 1141 049b 04       		.byte	0x4
 1142 049c DB020000 		.4byte	0x2db
 1143 04a0 06       		.uleb128 0x6
 1144 04a1 04       		.byte	0x4
 1145 04a2 DE030000 		.4byte	0x3de
 1146 04a6 06       		.uleb128 0x6
 1147 04a7 04       		.byte	0x4
 1148 04a8 AC040000 		.4byte	0x4ac
 1149 04ac 11       		.uleb128 0x11
 1150 04ad 01       		.byte	0x1
 1151 04ae 0E010000 		.4byte	0x10e
 1152 04b2 BC040000 		.4byte	0x4bc
 1153 04b6 12       		.uleb128 0x12
 1154 04b7 3B000000 		.4byte	0x3b
 1155 04bb 00       		.byte	0
 1156 04bc 02       		.uleb128 0x2
 1157 04bd 58030000 		.4byte	.LASF69
 1158 04c1 0A       		.byte	0xa
 1159 04c2 30       		.byte	0x30
 1160 04c3 C7040000 		.4byte	0x4c7
 1161 04c7 08       		.uleb128 0x8
 1162 04c8 58030000 		.4byte	.LASF69
 1163 04cc 24       		.byte	0x24
 1164 04cd 0A       		.byte	0xa
 1165 04ce 3E       		.byte	0x3e
 1166 04cf 44050000 		.4byte	0x544
 1167 04d3 09       		.uleb128 0x9
 1168 04d4 F2080000 		.4byte	.LASF70
 1169 04d8 0A       		.byte	0xa
 1170 04d9 3F       		.byte	0x3f
 1171 04da A3020000 		.4byte	0x2a3
 1172 04de 02       		.byte	0x2
 1173 04df 23       		.byte	0x23
 1174 04e0 00       		.uleb128 0
 1175 04e1 09       		.uleb128 0x9
 1176 04e2 C7040000 		.4byte	.LASF71
 1177 04e6 0A       		.byte	0xa
 1178 04e7 40       		.byte	0x40
 1179 04e8 29000000 		.4byte	0x29
 1180 04ec 02       		.byte	0x2
ARM GAS  /tmp/ccHDufAi.s 			page 22


 1181 04ed 23       		.byte	0x23
 1182 04ee 08       		.uleb128 0x8
 1183 04ef 09       		.uleb128 0x9
 1184 04f0 2A010000 		.4byte	.LASF72
 1185 04f4 0A       		.byte	0xa
 1186 04f5 41       		.byte	0x41
 1187 04f6 67050000 		.4byte	0x567
 1188 04fa 02       		.byte	0x2
 1189 04fb 23       		.byte	0x23
 1190 04fc 0C       		.uleb128 0xc
 1191 04fd 09       		.uleb128 0x9
 1192 04fe F5000000 		.4byte	.LASF73
 1193 0502 0A       		.byte	0xa
 1194 0503 42       		.byte	0x42
 1195 0504 67050000 		.4byte	0x567
 1196 0508 02       		.byte	0x2
 1197 0509 23       		.byte	0x23
 1198 050a 10       		.uleb128 0x10
 1199 050b 09       		.uleb128 0x9
 1200 050c 4F050000 		.4byte	.LASF74
 1201 0510 0A       		.byte	0xa
 1202 0511 44       		.byte	0x44
 1203 0512 67050000 		.4byte	0x567
 1204 0516 02       		.byte	0x2
 1205 0517 23       		.byte	0x23
 1206 0518 14       		.uleb128 0x14
 1207 0519 09       		.uleb128 0x9
 1208 051a 7B010000 		.4byte	.LASF75
 1209 051e 0A       		.byte	0xa
 1210 051f 45       		.byte	0x45
 1211 0520 67050000 		.4byte	0x567
 1212 0524 02       		.byte	0x2
 1213 0525 23       		.byte	0x23
 1214 0526 18       		.uleb128 0x18
 1215 0527 09       		.uleb128 0x9
 1216 0528 4E010000 		.4byte	.LASF76
 1217 052c 0A       		.byte	0xa
 1218 052d 46       		.byte	0x46
 1219 052e 44050000 		.4byte	0x544
 1220 0532 02       		.byte	0x2
 1221 0533 23       		.byte	0x23
 1222 0534 1C       		.uleb128 0x1c
 1223 0535 09       		.uleb128 0x9
 1224 0536 C7020000 		.4byte	.LASF77
 1225 053a 0A       		.byte	0xa
 1226 053b 47       		.byte	0x47
 1227 053c 3B000000 		.4byte	0x3b
 1228 0540 02       		.byte	0x2
 1229 0541 23       		.byte	0x23
 1230 0542 20       		.uleb128 0x20
 1231 0543 00       		.byte	0
 1232 0544 02       		.uleb128 0x2
 1233 0545 86060000 		.4byte	.LASF78
 1234 0549 0A       		.byte	0xa
 1235 054a 33       		.byte	0x33
 1236 054b 4F050000 		.4byte	0x54f
 1237 054f 06       		.uleb128 0x6
ARM GAS  /tmp/ccHDufAi.s 			page 23


 1238 0550 04       		.byte	0x4
 1239 0551 55050000 		.4byte	0x555
 1240 0555 13       		.uleb128 0x13
 1241 0556 01       		.byte	0x1
 1242 0557 61050000 		.4byte	0x561
 1243 055b 12       		.uleb128 0x12
 1244 055c 61050000 		.4byte	0x561
 1245 0560 00       		.byte	0
 1246 0561 06       		.uleb128 0x6
 1247 0562 04       		.byte	0x4
 1248 0563 BC040000 		.4byte	0x4bc
 1249 0567 06       		.uleb128 0x6
 1250 0568 04       		.byte	0x4
 1251 0569 95000000 		.4byte	0x95
 1252 056d 02       		.uleb128 0x2
 1253 056e D10A0000 		.4byte	.LASF79
 1254 0572 0A       		.byte	0xa
 1255 0573 7B       		.byte	0x7b
 1256 0574 BC040000 		.4byte	0x4bc
 1257 0578 02       		.uleb128 0x2
 1258 0579 9F030000 		.4byte	.LASF80
 1259 057d 0A       		.byte	0xa
 1260 057e EE       		.byte	0xee
 1261 057f BC040000 		.4byte	0x4bc
 1262 0583 11       		.uleb128 0x11
 1263 0584 01       		.byte	0x1
 1264 0585 29000000 		.4byte	0x29
 1265 0589 9D050000 		.4byte	0x59d
 1266 058d 12       		.uleb128 0x12
 1267 058e 3B000000 		.4byte	0x3b
 1268 0592 12       		.uleb128 0x12
 1269 0593 9D050000 		.4byte	0x59d
 1270 0597 12       		.uleb128 0x12
 1271 0598 29000000 		.4byte	0x29
 1272 059c 00       		.byte	0
 1273 059d 06       		.uleb128 0x6
 1274 059e 04       		.byte	0x4
 1275 059f A3050000 		.4byte	0x5a3
 1276 05a3 07       		.uleb128 0x7
 1277 05a4 95000000 		.4byte	0x95
 1278 05a8 06       		.uleb128 0x6
 1279 05a9 04       		.byte	0x4
 1280 05aa 83050000 		.4byte	0x583
 1281 05ae 11       		.uleb128 0x11
 1282 05af 01       		.byte	0x1
 1283 05b0 29000000 		.4byte	0x29
 1284 05b4 C8050000 		.4byte	0x5c8
 1285 05b8 12       		.uleb128 0x12
 1286 05b9 3B000000 		.4byte	0x3b
 1287 05bd 12       		.uleb128 0x12
 1288 05be 67050000 		.4byte	0x567
 1289 05c2 12       		.uleb128 0x12
 1290 05c3 29000000 		.4byte	0x29
 1291 05c7 00       		.byte	0
 1292 05c8 06       		.uleb128 0x6
 1293 05c9 04       		.byte	0x4
 1294 05ca AE050000 		.4byte	0x5ae
ARM GAS  /tmp/ccHDufAi.s 			page 24


 1295 05ce 11       		.uleb128 0x11
 1296 05cf 01       		.byte	0x1
 1297 05d0 0E010000 		.4byte	0x10e
 1298 05d4 E3050000 		.4byte	0x5e3
 1299 05d8 12       		.uleb128 0x12
 1300 05d9 3B000000 		.4byte	0x3b
 1301 05dd 12       		.uleb128 0x12
 1302 05de 95000000 		.4byte	0x95
 1303 05e2 00       		.byte	0
 1304 05e3 06       		.uleb128 0x6
 1305 05e4 04       		.byte	0x4
 1306 05e5 CE050000 		.4byte	0x5ce
 1307 05e9 14       		.uleb128 0x14
 1308 05ea B6000000 		.4byte	0xb6
 1309 05ee F9050000 		.4byte	0x5f9
 1310 05f2 15       		.uleb128 0x15
 1311 05f3 75000000 		.4byte	0x75
 1312 05f7 0E       		.byte	0xe
 1313 05f8 00       		.byte	0
 1314 05f9 0E       		.uleb128 0xe
 1315 05fa AB000000 		.4byte	0xab
 1316 05fe 11       		.uleb128 0x11
 1317 05ff 01       		.byte	0x1
 1318 0600 0E010000 		.4byte	0x10e
 1319 0604 18060000 		.4byte	0x618
 1320 0608 12       		.uleb128 0x12
 1321 0609 3B000000 		.4byte	0x3b
 1322 060d 12       		.uleb128 0x12
 1323 060e 95000000 		.4byte	0x95
 1324 0612 12       		.uleb128 0x12
 1325 0613 2F010000 		.4byte	0x12f
 1326 0617 00       		.byte	0
 1327 0618 06       		.uleb128 0x6
 1328 0619 04       		.byte	0x4
 1329 061a FE050000 		.4byte	0x5fe
 1330 061e 11       		.uleb128 0x11
 1331 061f 01       		.byte	0x1
 1332 0620 0E010000 		.4byte	0x10e
 1333 0624 33060000 		.4byte	0x633
 1334 0628 12       		.uleb128 0x12
 1335 0629 3B000000 		.4byte	0x3b
 1336 062d 12       		.uleb128 0x12
 1337 062e 2F010000 		.4byte	0x12f
 1338 0632 00       		.byte	0
 1339 0633 06       		.uleb128 0x6
 1340 0634 04       		.byte	0x4
 1341 0635 1E060000 		.4byte	0x61e
 1342 0639 11       		.uleb128 0x11
 1343 063a 01       		.byte	0x1
 1344 063b 29000000 		.4byte	0x29
 1345 063f 58060000 		.4byte	0x658
 1346 0643 12       		.uleb128 0x12
 1347 0644 3B000000 		.4byte	0x3b
 1348 0648 12       		.uleb128 0x12
 1349 0649 9D050000 		.4byte	0x59d
 1350 064d 12       		.uleb128 0x12
 1351 064e 29000000 		.4byte	0x29
ARM GAS  /tmp/ccHDufAi.s 			page 25


 1352 0652 12       		.uleb128 0x12
 1353 0653 2F010000 		.4byte	0x12f
 1354 0657 00       		.byte	0
 1355 0658 06       		.uleb128 0x6
 1356 0659 04       		.byte	0x4
 1357 065a 39060000 		.4byte	0x639
 1358 065e 11       		.uleb128 0x11
 1359 065f 01       		.byte	0x1
 1360 0660 29000000 		.4byte	0x29
 1361 0664 7D060000 		.4byte	0x67d
 1362 0668 12       		.uleb128 0x12
 1363 0669 3B000000 		.4byte	0x3b
 1364 066d 12       		.uleb128 0x12
 1365 066e 67050000 		.4byte	0x567
 1366 0672 12       		.uleb128 0x12
 1367 0673 29000000 		.4byte	0x29
 1368 0677 12       		.uleb128 0x12
 1369 0678 2F010000 		.4byte	0x12f
 1370 067c 00       		.byte	0
 1371 067d 06       		.uleb128 0x6
 1372 067e 04       		.byte	0x4
 1373 067f 5E060000 		.4byte	0x65e
 1374 0683 02       		.uleb128 0x2
 1375 0684 42070000 		.4byte	.LASF81
 1376 0688 0B       		.byte	0xb
 1377 0689 DC       		.byte	0xdc
 1378 068a 8E060000 		.4byte	0x68e
 1379 068e 16       		.uleb128 0x16
 1380 068f 42070000 		.4byte	.LASF81
 1381 0693 8801     		.2byte	0x188
 1382 0695 0C       		.byte	0xc
 1383 0696 6901     		.2byte	0x169
 1384 0698 D8070000 		.4byte	0x7d8
 1385 069c 17       		.uleb128 0x17
 1386 069d 95000000 		.4byte	.LASF82
 1387 06a1 0C       		.byte	0xc
 1388 06a2 6D01     		.2byte	0x16d
 1389 06a4 0A080000 		.4byte	0x80a
 1390 06a8 02       		.byte	0x2
 1391 06a9 23       		.byte	0x23
 1392 06aa 00       		.uleb128 0
 1393 06ab 17       		.uleb128 0x17
 1394 06ac 8E000000 		.4byte	.LASF83
 1395 06b0 0C       		.byte	0xc
 1396 06b1 7101     		.2byte	0x171
 1397 06b3 E7110000 		.4byte	0x11e7
 1398 06b7 02       		.byte	0x2
 1399 06b8 23       		.byte	0x23
 1400 06b9 04       		.uleb128 0x4
 1401 06ba 17       		.uleb128 0x17
 1402 06bb 07050000 		.4byte	.LASF84
 1403 06bf 0C       		.byte	0xc
 1404 06c0 7601     		.2byte	0x176
 1405 06c2 3B000000 		.4byte	0x3b
 1406 06c6 02       		.byte	0x2
 1407 06c7 23       		.byte	0x23
 1408 06c8 08       		.uleb128 0x8
ARM GAS  /tmp/ccHDufAi.s 			page 26


 1409 06c9 17       		.uleb128 0x17
 1410 06ca D3030000 		.4byte	.LASF85
 1411 06ce 0C       		.byte	0xc
 1412 06cf 7A01     		.2byte	0x17a
 1413 06d1 A0000000 		.4byte	0xa0
 1414 06d5 02       		.byte	0x2
 1415 06d6 23       		.byte	0x23
 1416 06d7 0C       		.uleb128 0xc
 1417 06d8 17       		.uleb128 0x17
 1418 06d9 4E030000 		.4byte	.LASF86
 1419 06dd 0C       		.byte	0xc
 1420 06de 7E01     		.2byte	0x17e
 1421 06e0 A0000000 		.4byte	0xa0
 1422 06e4 02       		.byte	0x2
 1423 06e5 23       		.byte	0x23
 1424 06e6 0E       		.uleb128 0xe
 1425 06e7 0D       		.uleb128 0xd
 1426 06e8 65706300 		.ascii	"epc\000"
 1427 06ec 0C       		.byte	0xc
 1428 06ed 8201     		.2byte	0x182
 1429 06ef F2110000 		.4byte	0x11f2
 1430 06f3 02       		.byte	0x2
 1431 06f4 23       		.byte	0x23
 1432 06f5 10       		.uleb128 0x10
 1433 06f6 17       		.uleb128 0x17
 1434 06f7 E0020000 		.4byte	.LASF87
 1435 06fb 0C       		.byte	0xc
 1436 06fc 8601     		.2byte	0x186
 1437 06fe 42080000 		.4byte	0x842
 1438 0702 02       		.byte	0x2
 1439 0703 23       		.byte	0x23
 1440 0704 20       		.uleb128 0x20
 1441 0705 17       		.uleb128 0x17
 1442 0706 25060000 		.4byte	.LASF88
 1443 070a 0C       		.byte	0xc
 1444 070b 8A01     		.2byte	0x18a
 1445 070d 67050000 		.4byte	0x567
 1446 0711 02       		.byte	0x2
 1447 0712 23       		.byte	0x23
 1448 0713 24       		.uleb128 0x24
 1449 0714 17       		.uleb128 0x17
 1450 0715 34030000 		.4byte	.LASF89
 1451 0719 0C       		.byte	0xc
 1452 071a 8E01     		.2byte	0x18e
 1453 071c 29000000 		.4byte	0x29
 1454 0720 02       		.byte	0x2
 1455 0721 23       		.byte	0x23
 1456 0722 28       		.uleb128 0x28
 1457 0723 17       		.uleb128 0x17
 1458 0724 15050000 		.4byte	.LASF90
 1459 0728 0C       		.byte	0xc
 1460 0729 9201     		.2byte	0x192
 1461 072b BC080000 		.4byte	0x8bc
 1462 072f 02       		.byte	0x2
 1463 0730 23       		.byte	0x23
 1464 0731 2C       		.uleb128 0x2c
 1465 0732 17       		.uleb128 0x17
ARM GAS  /tmp/ccHDufAi.s 			page 27


 1466 0733 4D040000 		.4byte	.LASF91
 1467 0737 0C       		.byte	0xc
 1468 0738 9601     		.2byte	0x196
 1469 073a 0D120000 		.4byte	0x120d
 1470 073e 02       		.byte	0x2
 1471 073f 23       		.byte	0x23
 1472 0740 30       		.uleb128 0x30
 1473 0741 17       		.uleb128 0x17
 1474 0742 00050000 		.4byte	.LASF92
 1475 0746 0C       		.byte	0xc
 1476 0747 9A01     		.2byte	0x19a
 1477 0749 A0000000 		.4byte	0xa0
 1478 074d 02       		.byte	0x2
 1479 074e 23       		.byte	0x23
 1480 074f 38       		.uleb128 0x38
 1481 0750 17       		.uleb128 0x17
 1482 0751 0D050000 		.4byte	.LASF93
 1483 0755 0C       		.byte	0xc
 1484 0756 9E01     		.2byte	0x19e
 1485 0758 95000000 		.4byte	0x95
 1486 075c 02       		.byte	0x2
 1487 075d 23       		.byte	0x23
 1488 075e 3A       		.uleb128 0x3a
 1489 075f 17       		.uleb128 0x17
 1490 0760 A9040000 		.4byte	.LASF94
 1491 0764 0C       		.byte	0xc
 1492 0765 A201     		.2byte	0x1a2
 1493 0767 95000000 		.4byte	0x95
 1494 076b 02       		.byte	0x2
 1495 076c 23       		.byte	0x23
 1496 076d 3B       		.uleb128 0x3b
 1497 076e 0D       		.uleb128 0xd
 1498 076f 6F746700 		.ascii	"otg\000"
 1499 0773 0C       		.byte	0xc
 1500 0774 AA01     		.2byte	0x1aa
 1501 0776 1D120000 		.4byte	0x121d
 1502 077a 02       		.byte	0x2
 1503 077b 23       		.byte	0x23
 1504 077c 3C       		.uleb128 0x3c
 1505 077d 17       		.uleb128 0x17
 1506 077e AD070000 		.4byte	.LASF95
 1507 0782 0C       		.byte	0xc
 1508 0783 AE01     		.2byte	0x1ae
 1509 0785 23120000 		.4byte	0x1223
 1510 0789 02       		.byte	0x2
 1511 078a 23       		.byte	0x23
 1512 078b 40       		.uleb128 0x40
 1513 078c 17       		.uleb128 0x17
 1514 078d 3A0B0000 		.4byte	.LASF96
 1515 0791 0C       		.byte	0xc
 1516 0792 B201     		.2byte	0x1b2
 1517 0794 B6000000 		.4byte	0xb6
 1518 0798 02       		.byte	0x2
 1519 0799 23       		.byte	0x23
 1520 079a 44       		.uleb128 0x44
 1521 079b 17       		.uleb128 0x17
 1522 079c DE060000 		.4byte	.LASF97
ARM GAS  /tmp/ccHDufAi.s 			page 28


 1523 07a0 0C       		.byte	0xc
 1524 07a1 B601     		.2byte	0x1b6
 1525 07a3 B6000000 		.4byte	0xb6
 1526 07a7 02       		.byte	0x2
 1527 07a8 23       		.byte	0x23
 1528 07a9 48       		.uleb128 0x48
 1529 07aa 17       		.uleb128 0x17
 1530 07ab 71050000 		.4byte	.LASF98
 1531 07af 0C       		.byte	0xc
 1532 07b0 BA01     		.2byte	0x1ba
 1533 07b2 9D020000 		.4byte	0x29d
 1534 07b6 02       		.byte	0x2
 1535 07b7 23       		.byte	0x23
 1536 07b8 4C       		.uleb128 0x4c
 1537 07b9 17       		.uleb128 0x17
 1538 07ba AF010000 		.4byte	.LASF99
 1539 07be 0C       		.byte	0xc
 1540 07bf BE01     		.2byte	0x1be
 1541 07c1 9D020000 		.4byte	0x29d
 1542 07c5 02       		.byte	0x2
 1543 07c6 23       		.byte	0x23
 1544 07c7 50       		.uleb128 0x50
 1545 07c8 17       		.uleb128 0x17
 1546 07c9 1D090000 		.4byte	.LASF100
 1547 07cd 0C       		.byte	0xc
 1548 07ce C201     		.2byte	0x1c2
 1549 07d0 2E120000 		.4byte	0x122e
 1550 07d4 02       		.byte	0x2
 1551 07d5 23       		.byte	0x23
 1552 07d6 58       		.uleb128 0x58
 1553 07d7 00       		.byte	0
 1554 07d8 02       		.uleb128 0x2
 1555 07d9 4A0A0000 		.4byte	.LASF101
 1556 07dd 0B       		.byte	0xb
 1557 07de E1       		.byte	0xe1
 1558 07df 95000000 		.4byte	0x95
 1559 07e3 18       		.uleb128 0x18
 1560 07e4 01       		.byte	0x1
 1561 07e5 0B       		.byte	0xb
 1562 07e6 E6       		.byte	0xe6
 1563 07e7 0A080000 		.4byte	0x80a
 1564 07eb 19       		.uleb128 0x19
 1565 07ec B7070000 		.4byte	.LASF102
 1566 07f0 00       		.sleb128 0
 1567 07f1 19       		.uleb128 0x19
 1568 07f2 5E050000 		.4byte	.LASF103
 1569 07f6 01       		.sleb128 1
 1570 07f7 19       		.uleb128 0x19
 1571 07f8 05060000 		.4byte	.LASF104
 1572 07fc 02       		.sleb128 2
 1573 07fd 19       		.uleb128 0x19
 1574 07fe 9C040000 		.4byte	.LASF105
 1575 0802 03       		.sleb128 3
 1576 0803 19       		.uleb128 0x19
 1577 0804 A8000000 		.4byte	.LASF106
 1578 0808 04       		.sleb128 4
 1579 0809 00       		.byte	0
ARM GAS  /tmp/ccHDufAi.s 			page 29


 1580 080a 02       		.uleb128 0x2
 1581 080b 85050000 		.4byte	.LASF107
 1582 080f 0B       		.byte	0xb
 1583 0810 EC       		.byte	0xec
 1584 0811 E3070000 		.4byte	0x7e3
 1585 0815 18       		.uleb128 0x18
 1586 0816 01       		.byte	0x1
 1587 0817 0B       		.byte	0xb
 1588 0818 FA       		.byte	0xfa
 1589 0819 42080000 		.4byte	0x842
 1590 081d 19       		.uleb128 0x19
 1591 081e CD010000 		.4byte	.LASF108
 1592 0822 00       		.sleb128 0
 1593 0823 19       		.uleb128 0x19
 1594 0824 71000000 		.4byte	.LASF109
 1595 0828 01       		.sleb128 1
 1596 0829 19       		.uleb128 0x19
 1597 082a 180B0000 		.4byte	.LASF110
 1598 082e 02       		.sleb128 2
 1599 082f 19       		.uleb128 0x19
 1600 0830 520B0000 		.4byte	.LASF111
 1601 0834 03       		.sleb128 3
 1602 0835 19       		.uleb128 0x19
 1603 0836 FF0A0000 		.4byte	.LASF112
 1604 083a 04       		.sleb128 4
 1605 083b 19       		.uleb128 0x19
 1606 083c B9020000 		.4byte	.LASF113
 1607 0840 05       		.sleb128 5
 1608 0841 00       		.byte	0
 1609 0842 1A       		.uleb128 0x1a
 1610 0843 E7000000 		.4byte	.LASF114
 1611 0847 0B       		.byte	0xb
 1612 0848 0101     		.2byte	0x101
 1613 084a 15080000 		.4byte	0x815
 1614 084e 1B       		.uleb128 0x1b
 1615 084f 01       		.byte	0x1
 1616 0850 0B       		.byte	0xb
 1617 0851 0601     		.2byte	0x106
 1618 0853 7C080000 		.4byte	0x87c
 1619 0857 19       		.uleb128 0x19
 1620 0858 49090000 		.4byte	.LASF115
 1621 085c 00       		.sleb128 0
 1622 085d 19       		.uleb128 0x19
 1623 085e 33010000 		.4byte	.LASF116
 1624 0862 01       		.sleb128 1
 1625 0863 19       		.uleb128 0x19
 1626 0864 D8080000 		.4byte	.LASF117
 1627 0868 02       		.sleb128 2
 1628 0869 19       		.uleb128 0x19
 1629 086a 680A0000 		.4byte	.LASF118
 1630 086e 03       		.sleb128 3
 1631 086f 19       		.uleb128 0x19
 1632 0870 C0050000 		.4byte	.LASF119
 1633 0874 04       		.sleb128 4
 1634 0875 19       		.uleb128 0x19
 1635 0876 29020000 		.4byte	.LASF120
 1636 087a 05       		.sleb128 5
ARM GAS  /tmp/ccHDufAi.s 			page 30


 1637 087b 00       		.byte	0
 1638 087c 1A       		.uleb128 0x1a
 1639 087d 6D040000 		.4byte	.LASF121
 1640 0881 0B       		.byte	0xb
 1641 0882 0D01     		.2byte	0x10d
 1642 0884 4E080000 		.4byte	0x84e
 1643 0888 1C       		.uleb128 0x1c
 1644 0889 08       		.byte	0x8
 1645 088a 0B       		.byte	0xb
 1646 088b 1201     		.2byte	0x112
 1647 088d B0080000 		.4byte	0x8b0
 1648 0891 17       		.uleb128 0x17
 1649 0892 81040000 		.4byte	.LASF122
 1650 0896 0B       		.byte	0xb
 1651 0897 1601     		.2byte	0x116
 1652 0899 29000000 		.4byte	0x29
 1653 089d 02       		.byte	0x2
 1654 089e 23       		.byte	0x23
 1655 089f 00       		.uleb128 0
 1656 08a0 17       		.uleb128 0x17
 1657 08a1 7F030000 		.4byte	.LASF123
 1658 08a5 0B       		.byte	0xb
 1659 08a6 1A01     		.2byte	0x11a
 1660 08a8 9D050000 		.4byte	0x59d
 1661 08ac 02       		.byte	0x2
 1662 08ad 23       		.byte	0x23
 1663 08ae 04       		.uleb128 0x4
 1664 08af 00       		.byte	0
 1665 08b0 1A       		.uleb128 0x1a
 1666 08b1 2C040000 		.4byte	.LASF124
 1667 08b5 0B       		.byte	0xb
 1668 08b6 1B01     		.2byte	0x11b
 1669 08b8 88080000 		.4byte	0x888
 1670 08bc 1A       		.uleb128 0x1a
 1671 08bd BB090000 		.4byte	.LASF125
 1672 08c1 0B       		.byte	0xb
 1673 08c2 2301     		.2byte	0x123
 1674 08c4 C8080000 		.4byte	0x8c8
 1675 08c8 06       		.uleb128 0x6
 1676 08c9 04       		.byte	0x4
 1677 08ca CE080000 		.4byte	0x8ce
 1678 08ce 13       		.uleb128 0x13
 1679 08cf 01       		.byte	0x1
 1680 08d0 DA080000 		.4byte	0x8da
 1681 08d4 12       		.uleb128 0x12
 1682 08d5 DA080000 		.4byte	0x8da
 1683 08d9 00       		.byte	0
 1684 08da 06       		.uleb128 0x6
 1685 08db 04       		.byte	0x4
 1686 08dc 83060000 		.4byte	0x683
 1687 08e0 1A       		.uleb128 0x1a
 1688 08e1 3D060000 		.4byte	.LASF126
 1689 08e5 0B       		.byte	0xb
 1690 08e6 2C01     		.2byte	0x12c
 1691 08e8 EC080000 		.4byte	0x8ec
 1692 08ec 06       		.uleb128 0x6
 1693 08ed 04       		.byte	0x4
ARM GAS  /tmp/ccHDufAi.s 			page 31


 1694 08ee F2080000 		.4byte	0x8f2
 1695 08f2 13       		.uleb128 0x13
 1696 08f3 01       		.byte	0x1
 1697 08f4 03090000 		.4byte	0x903
 1698 08f8 12       		.uleb128 0x12
 1699 08f9 DA080000 		.4byte	0x8da
 1700 08fd 12       		.uleb128 0x12
 1701 08fe D8070000 		.4byte	0x7d8
 1702 0902 00       		.byte	0
 1703 0903 1A       		.uleb128 0x1a
 1704 0904 B1030000 		.4byte	.LASF127
 1705 0908 0B       		.byte	0xb
 1706 0909 3501     		.2byte	0x135
 1707 090b 0F090000 		.4byte	0x90f
 1708 090f 06       		.uleb128 0x6
 1709 0910 04       		.byte	0x4
 1710 0911 15090000 		.4byte	0x915
 1711 0915 13       		.uleb128 0x13
 1712 0916 01       		.byte	0x1
 1713 0917 26090000 		.4byte	0x926
 1714 091b 12       		.uleb128 0x12
 1715 091c DA080000 		.4byte	0x8da
 1716 0920 12       		.uleb128 0x12
 1717 0921 7C080000 		.4byte	0x87c
 1718 0925 00       		.byte	0
 1719 0926 1A       		.uleb128 0x1a
 1720 0927 A3090000 		.4byte	.LASF128
 1721 092b 0B       		.byte	0xb
 1722 092c 4101     		.2byte	0x141
 1723 092e 32090000 		.4byte	0x932
 1724 0932 06       		.uleb128 0x6
 1725 0933 04       		.byte	0x4
 1726 0934 38090000 		.4byte	0x938
 1727 0938 11       		.uleb128 0x11
 1728 0939 01       		.byte	0x1
 1729 093a CC000000 		.4byte	0xcc
 1730 093e 48090000 		.4byte	0x948
 1731 0942 12       		.uleb128 0x12
 1732 0943 DA080000 		.4byte	0x8da
 1733 0947 00       		.byte	0
 1734 0948 1A       		.uleb128 0x1a
 1735 0949 0A090000 		.4byte	.LASF129
 1736 094d 0B       		.byte	0xb
 1737 094e 4601     		.2byte	0x146
 1738 0950 54090000 		.4byte	0x954
 1739 0954 06       		.uleb128 0x6
 1740 0955 04       		.byte	0x4
 1741 0956 5A090000 		.4byte	0x95a
 1742 095a 11       		.uleb128 0x11
 1743 095b 01       		.byte	0x1
 1744 095c 79090000 		.4byte	0x979
 1745 0960 79090000 		.4byte	0x979
 1746 0964 12       		.uleb128 0x12
 1747 0965 DA080000 		.4byte	0x8da
 1748 0969 12       		.uleb128 0x12
 1749 096a 95000000 		.4byte	0x95
 1750 096e 12       		.uleb128 0x12
ARM GAS  /tmp/ccHDufAi.s 			page 32


 1751 096f 95000000 		.4byte	0x95
 1752 0973 12       		.uleb128 0x12
 1753 0974 A0000000 		.4byte	0xa0
 1754 0978 00       		.byte	0
 1755 0979 06       		.uleb128 0x6
 1756 097a 04       		.byte	0x4
 1757 097b 7F090000 		.4byte	0x97f
 1758 097f 07       		.uleb128 0x7
 1759 0980 B0080000 		.4byte	0x8b0
 1760 0984 0B       		.uleb128 0xb
 1761 0985 20       		.byte	0x20
 1762 0986 0D       		.byte	0xd
 1763 0987 39       		.byte	0x39
 1764 0988 FD090000 		.4byte	0x9fd
 1765 098c 09       		.uleb128 0x9
 1766 098d 15030000 		.4byte	.LASF130
 1767 0991 0D       		.byte	0xd
 1768 0992 3A       		.byte	0x3a
 1769 0993 97030000 		.4byte	0x397
 1770 0997 02       		.byte	0x2
 1771 0998 23       		.byte	0x23
 1772 0999 00       		.uleb128 0
 1773 099a 09       		.uleb128 0x9
 1774 099b 63000000 		.4byte	.LASF131
 1775 099f 0D       		.byte	0xd
 1776 09a0 3C       		.byte	0x3c
 1777 09a1 97030000 		.4byte	0x397
 1778 09a5 02       		.byte	0x2
 1779 09a6 23       		.byte	0x23
 1780 09a7 04       		.uleb128 0x4
 1781 09a8 09       		.uleb128 0x9
 1782 09a9 10080000 		.4byte	.LASF132
 1783 09ad 0D       		.byte	0xd
 1784 09ae 3D       		.byte	0x3d
 1785 09af 97030000 		.4byte	0x397
 1786 09b3 02       		.byte	0x2
 1787 09b4 23       		.byte	0x23
 1788 09b5 08       		.uleb128 0x8
 1789 09b6 09       		.uleb128 0x9
 1790 09b7 5D080000 		.4byte	.LASF133
 1791 09bb 0D       		.byte	0xd
 1792 09bc 3E       		.byte	0x3e
 1793 09bd 97030000 		.4byte	0x397
 1794 09c1 02       		.byte	0x2
 1795 09c2 23       		.byte	0x23
 1796 09c3 0C       		.uleb128 0xc
 1797 09c4 09       		.uleb128 0x9
 1798 09c5 E0030000 		.4byte	.LASF134
 1799 09c9 0D       		.byte	0xd
 1800 09ca 40       		.byte	0x40
 1801 09cb 97030000 		.4byte	0x397
 1802 09cf 02       		.byte	0x2
 1803 09d0 23       		.byte	0x23
 1804 09d1 10       		.uleb128 0x10
 1805 09d2 09       		.uleb128 0x9
 1806 09d3 59090000 		.4byte	.LASF135
 1807 09d7 0D       		.byte	0xd
ARM GAS  /tmp/ccHDufAi.s 			page 33


 1808 09d8 42       		.byte	0x42
 1809 09d9 97030000 		.4byte	0x397
 1810 09dd 02       		.byte	0x2
 1811 09de 23       		.byte	0x23
 1812 09df 14       		.uleb128 0x14
 1813 09e0 09       		.uleb128 0x9
 1814 09e1 61090000 		.4byte	.LASF136
 1815 09e5 0D       		.byte	0xd
 1816 09e6 43       		.byte	0x43
 1817 09e7 97030000 		.4byte	0x397
 1818 09eb 02       		.byte	0x2
 1819 09ec 23       		.byte	0x23
 1820 09ed 18       		.uleb128 0x18
 1821 09ee 09       		.uleb128 0x9
 1822 09ef 9B090000 		.4byte	.LASF137
 1823 09f3 0D       		.byte	0xd
 1824 09f4 44       		.byte	0x44
 1825 09f5 97030000 		.4byte	0x397
 1826 09f9 02       		.byte	0x2
 1827 09fa 23       		.byte	0x23
 1828 09fb 1C       		.uleb128 0x1c
 1829 09fc 00       		.byte	0
 1830 09fd 02       		.uleb128 0x2
 1831 09fe BE030000 		.4byte	.LASF138
 1832 0a02 0D       		.byte	0xd
 1833 0a03 45       		.byte	0x45
 1834 0a04 84090000 		.4byte	0x984
 1835 0a08 0B       		.uleb128 0xb
 1836 0a09 20       		.byte	0x20
 1837 0a0a 0D       		.byte	0xd
 1838 0a0b 4A       		.byte	0x4a
 1839 0a0c 810A0000 		.4byte	0xa81
 1840 0a10 09       		.uleb128 0x9
 1841 0a11 B3090000 		.4byte	.LASF139
 1842 0a15 0D       		.byte	0xd
 1843 0a16 4B       		.byte	0x4b
 1844 0a17 97030000 		.4byte	0x397
 1845 0a1b 02       		.byte	0x2
 1846 0a1c 23       		.byte	0x23
 1847 0a1d 00       		.uleb128 0
 1848 0a1e 09       		.uleb128 0x9
 1849 0a1f 5C000000 		.4byte	.LASF140
 1850 0a23 0D       		.byte	0xd
 1851 0a24 4D       		.byte	0x4d
 1852 0a25 97030000 		.4byte	0x397
 1853 0a29 02       		.byte	0x2
 1854 0a2a 23       		.byte	0x23
 1855 0a2b 04       		.uleb128 0x4
 1856 0a2c 09       		.uleb128 0x9
 1857 0a2d F4090000 		.4byte	.LASF141
 1858 0a31 0D       		.byte	0xd
 1859 0a32 4E       		.byte	0x4e
 1860 0a33 97030000 		.4byte	0x397
 1861 0a37 02       		.byte	0x2
 1862 0a38 23       		.byte	0x23
 1863 0a39 08       		.uleb128 0x8
 1864 0a3a 09       		.uleb128 0x9
ARM GAS  /tmp/ccHDufAi.s 			page 34


 1865 0a3b 6A000000 		.4byte	.LASF142
 1866 0a3f 0D       		.byte	0xd
 1867 0a40 50       		.byte	0x50
 1868 0a41 97030000 		.4byte	0x397
 1869 0a45 02       		.byte	0x2
 1870 0a46 23       		.byte	0x23
 1871 0a47 0C       		.uleb128 0xc
 1872 0a48 09       		.uleb128 0x9
 1873 0a49 E9020000 		.4byte	.LASF143
 1874 0a4d 0D       		.byte	0xd
 1875 0a4e 51       		.byte	0x51
 1876 0a4f 97030000 		.4byte	0x397
 1877 0a53 02       		.byte	0x2
 1878 0a54 23       		.byte	0x23
 1879 0a55 10       		.uleb128 0x10
 1880 0a56 09       		.uleb128 0x9
 1881 0a57 59090000 		.4byte	.LASF135
 1882 0a5b 0D       		.byte	0xd
 1883 0a5c 53       		.byte	0x53
 1884 0a5d 97030000 		.4byte	0x397
 1885 0a61 02       		.byte	0x2
 1886 0a62 23       		.byte	0x23
 1887 0a63 14       		.uleb128 0x14
 1888 0a64 09       		.uleb128 0x9
 1889 0a65 69090000 		.4byte	.LASF144
 1890 0a69 0D       		.byte	0xd
 1891 0a6a 54       		.byte	0x54
 1892 0a6b 97030000 		.4byte	0x397
 1893 0a6f 02       		.byte	0x2
 1894 0a70 23       		.byte	0x23
 1895 0a71 18       		.uleb128 0x18
 1896 0a72 09       		.uleb128 0x9
 1897 0a73 79090000 		.4byte	.LASF145
 1898 0a77 0D       		.byte	0xd
 1899 0a78 56       		.byte	0x56
 1900 0a79 97030000 		.4byte	0x397
 1901 0a7d 02       		.byte	0x2
 1902 0a7e 23       		.byte	0x23
 1903 0a7f 1C       		.uleb128 0x1c
 1904 0a80 00       		.byte	0
 1905 0a81 02       		.uleb128 0x2
 1906 0a82 B9080000 		.4byte	.LASF146
 1907 0a86 0D       		.byte	0xd
 1908 0a87 57       		.byte	0x57
 1909 0a88 080A0000 		.4byte	0xa08
 1910 0a8c 0B       		.uleb128 0xb
 1911 0a8d 20       		.byte	0x20
 1912 0a8e 0D       		.byte	0xd
 1913 0a8f 5C       		.byte	0x5c
 1914 0a90 050B0000 		.4byte	0xb05
 1915 0a94 09       		.uleb128 0x9
 1916 0a95 03020000 		.4byte	.LASF147
 1917 0a99 0D       		.byte	0xd
 1918 0a9a 5D       		.byte	0x5d
 1919 0a9b 97030000 		.4byte	0x397
 1920 0a9f 02       		.byte	0x2
 1921 0aa0 23       		.byte	0x23
ARM GAS  /tmp/ccHDufAi.s 			page 35


 1922 0aa1 00       		.uleb128 0
 1923 0aa2 09       		.uleb128 0x9
 1924 0aa3 5C000000 		.4byte	.LASF140
 1925 0aa7 0D       		.byte	0xd
 1926 0aa8 5F       		.byte	0x5f
 1927 0aa9 97030000 		.4byte	0x397
 1928 0aad 02       		.byte	0x2
 1929 0aae 23       		.byte	0x23
 1930 0aaf 04       		.uleb128 0x4
 1931 0ab0 09       		.uleb128 0x9
 1932 0ab1 59020000 		.4byte	.LASF148
 1933 0ab5 0D       		.byte	0xd
 1934 0ab6 60       		.byte	0x60
 1935 0ab7 97030000 		.4byte	0x397
 1936 0abb 02       		.byte	0x2
 1937 0abc 23       		.byte	0x23
 1938 0abd 08       		.uleb128 0x8
 1939 0abe 09       		.uleb128 0x9
 1940 0abf 6A000000 		.4byte	.LASF142
 1941 0ac3 0D       		.byte	0xd
 1942 0ac4 62       		.byte	0x62
 1943 0ac5 97030000 		.4byte	0x397
 1944 0ac9 02       		.byte	0x2
 1945 0aca 23       		.byte	0x23
 1946 0acb 0C       		.uleb128 0xc
 1947 0acc 09       		.uleb128 0x9
 1948 0acd A8060000 		.4byte	.LASF149
 1949 0ad1 0D       		.byte	0xd
 1950 0ad2 63       		.byte	0x63
 1951 0ad3 97030000 		.4byte	0x397
 1952 0ad7 02       		.byte	0x2
 1953 0ad8 23       		.byte	0x23
 1954 0ad9 10       		.uleb128 0x10
 1955 0ada 09       		.uleb128 0x9
 1956 0adb 59090000 		.4byte	.LASF135
 1957 0adf 0D       		.byte	0xd
 1958 0ae0 65       		.byte	0x65
 1959 0ae1 97030000 		.4byte	0x397
 1960 0ae5 02       		.byte	0x2
 1961 0ae6 23       		.byte	0x23
 1962 0ae7 14       		.uleb128 0x14
 1963 0ae8 09       		.uleb128 0x9
 1964 0ae9 61090000 		.4byte	.LASF136
 1965 0aed 0D       		.byte	0xd
 1966 0aee 66       		.byte	0x66
 1967 0aef 97030000 		.4byte	0x397
 1968 0af3 02       		.byte	0x2
 1969 0af4 23       		.byte	0x23
 1970 0af5 18       		.uleb128 0x18
 1971 0af6 09       		.uleb128 0x9
 1972 0af7 79090000 		.4byte	.LASF145
 1973 0afb 0D       		.byte	0xd
 1974 0afc 67       		.byte	0x67
 1975 0afd 97030000 		.4byte	0x397
 1976 0b01 02       		.byte	0x2
 1977 0b02 23       		.byte	0x23
 1978 0b03 1C       		.uleb128 0x1c
ARM GAS  /tmp/ccHDufAi.s 			page 36


 1979 0b04 00       		.byte	0
 1980 0b05 02       		.uleb128 0x2
 1981 0b06 1C030000 		.4byte	.LASF150
 1982 0b0a 0D       		.byte	0xd
 1983 0b0b 68       		.byte	0x68
 1984 0b0c 8C0A0000 		.4byte	0xa8c
 1985 0b10 1D       		.uleb128 0x1d
 1986 0b11 00100100 		.4byte	0x11000
 1987 0b15 0D       		.byte	0xd
 1988 0b16 6D       		.byte	0x6d
 1989 0b17 5F0E0000 		.4byte	0xe5f
 1990 0b1b 09       		.uleb128 0x9
 1991 0b1c 99050000 		.4byte	.LASF151
 1992 0b20 0D       		.byte	0xd
 1993 0b21 6E       		.byte	0x6e
 1994 0b22 97030000 		.4byte	0x397
 1995 0b26 02       		.byte	0x2
 1996 0b27 23       		.byte	0x23
 1997 0b28 00       		.uleb128 0
 1998 0b29 09       		.uleb128 0x9
 1999 0b2a 80080000 		.4byte	.LASF152
 2000 0b2e 0D       		.byte	0xd
 2001 0b2f 6F       		.byte	0x6f
 2002 0b30 97030000 		.4byte	0x397
 2003 0b34 02       		.byte	0x2
 2004 0b35 23       		.byte	0x23
 2005 0b36 04       		.uleb128 0x4
 2006 0b37 09       		.uleb128 0x9
 2007 0b38 1E050000 		.4byte	.LASF153
 2008 0b3c 0D       		.byte	0xd
 2009 0b3d 70       		.byte	0x70
 2010 0b3e 97030000 		.4byte	0x397
 2011 0b42 02       		.byte	0x2
 2012 0b43 23       		.byte	0x23
 2013 0b44 08       		.uleb128 0x8
 2014 0b45 09       		.uleb128 0x9
 2015 0b46 4A0B0000 		.4byte	.LASF154
 2016 0b4a 0D       		.byte	0xd
 2017 0b4b 71       		.byte	0x71
 2018 0b4c 97030000 		.4byte	0x397
 2019 0b50 02       		.byte	0x2
 2020 0b51 23       		.byte	0x23
 2021 0b52 0C       		.uleb128 0xc
 2022 0b53 09       		.uleb128 0x9
 2023 0b54 65040000 		.4byte	.LASF155
 2024 0b58 0D       		.byte	0xd
 2025 0b59 72       		.byte	0x72
 2026 0b5a 97030000 		.4byte	0x397
 2027 0b5e 02       		.byte	0x2
 2028 0b5f 23       		.byte	0x23
 2029 0b60 10       		.uleb128 0x10
 2030 0b61 09       		.uleb128 0x9
 2031 0b62 D0090000 		.4byte	.LASF156
 2032 0b66 0D       		.byte	0xd
 2033 0b67 73       		.byte	0x73
 2034 0b68 97030000 		.4byte	0x397
 2035 0b6c 02       		.byte	0x2
ARM GAS  /tmp/ccHDufAi.s 			page 37


 2036 0b6d 23       		.byte	0x23
 2037 0b6e 14       		.uleb128 0x14
 2038 0b6f 09       		.uleb128 0x9
 2039 0b70 6C070000 		.4byte	.LASF157
 2040 0b74 0D       		.byte	0xd
 2041 0b75 74       		.byte	0x74
 2042 0b76 97030000 		.4byte	0x397
 2043 0b7a 02       		.byte	0x2
 2044 0b7b 23       		.byte	0x23
 2045 0b7c 18       		.uleb128 0x18
 2046 0b7d 09       		.uleb128 0x9
 2047 0b7e B8050000 		.4byte	.LASF158
 2048 0b82 0D       		.byte	0xd
 2049 0b83 75       		.byte	0x75
 2050 0b84 97030000 		.4byte	0x397
 2051 0b88 02       		.byte	0x2
 2052 0b89 23       		.byte	0x23
 2053 0b8a 1C       		.uleb128 0x1c
 2054 0b8b 09       		.uleb128 0x9
 2055 0b8c A7050000 		.4byte	.LASF159
 2056 0b90 0D       		.byte	0xd
 2057 0b91 77       		.byte	0x77
 2058 0b92 97030000 		.4byte	0x397
 2059 0b96 02       		.byte	0x2
 2060 0b97 23       		.byte	0x23
 2061 0b98 20       		.uleb128 0x20
 2062 0b99 09       		.uleb128 0x9
 2063 0b9a B7040000 		.4byte	.LASF160
 2064 0b9e 0D       		.byte	0xd
 2065 0b9f 79       		.byte	0x79
 2066 0ba0 97030000 		.4byte	0x397
 2067 0ba4 02       		.byte	0x2
 2068 0ba5 23       		.byte	0x23
 2069 0ba6 24       		.uleb128 0x24
 2070 0ba7 09       		.uleb128 0x9
 2071 0ba8 45010000 		.4byte	.LASF161
 2072 0bac 0D       		.byte	0xd
 2073 0bad 7A       		.byte	0x7a
 2074 0bae 97030000 		.4byte	0x397
 2075 0bb2 02       		.byte	0x2
 2076 0bb3 23       		.byte	0x23
 2077 0bb4 28       		.uleb128 0x28
 2078 0bb5 09       		.uleb128 0x9
 2079 0bb6 FC090000 		.4byte	.LASF162
 2080 0bba 0D       		.byte	0xd
 2081 0bbb 7C       		.byte	0x7c
 2082 0bbc 97030000 		.4byte	0x397
 2083 0bc0 02       		.byte	0x2
 2084 0bc1 23       		.byte	0x23
 2085 0bc2 2C       		.uleb128 0x2c
 2086 0bc3 09       		.uleb128 0x9
 2087 0bc4 280A0000 		.4byte	.LASF163
 2088 0bc8 0D       		.byte	0xd
 2089 0bc9 7E       		.byte	0x7e
 2090 0bca 97030000 		.4byte	0x397
 2091 0bce 02       		.byte	0x2
 2092 0bcf 23       		.byte	0x23
ARM GAS  /tmp/ccHDufAi.s 			page 38


 2093 0bd0 30       		.uleb128 0x30
 2094 0bd1 09       		.uleb128 0x9
 2095 0bd2 390A0000 		.4byte	.LASF164
 2096 0bd6 0D       		.byte	0xd
 2097 0bd7 7F       		.byte	0x7f
 2098 0bd8 97030000 		.4byte	0x397
 2099 0bdc 02       		.byte	0x2
 2100 0bdd 23       		.byte	0x23
 2101 0bde 34       		.uleb128 0x34
 2102 0bdf 09       		.uleb128 0x9
 2103 0be0 DA020000 		.4byte	.LASF165
 2104 0be4 0D       		.byte	0xd
 2105 0be5 80       		.byte	0x80
 2106 0be6 97030000 		.4byte	0x397
 2107 0bea 02       		.byte	0x2
 2108 0beb 23       		.byte	0x23
 2109 0bec 38       		.uleb128 0x38
 2110 0bed 0A       		.uleb128 0xa
 2111 0bee 43494400 		.ascii	"CID\000"
 2112 0bf2 0D       		.byte	0xd
 2113 0bf3 81       		.byte	0x81
 2114 0bf4 97030000 		.4byte	0x397
 2115 0bf8 02       		.byte	0x2
 2116 0bf9 23       		.byte	0x23
 2117 0bfa 3C       		.uleb128 0x3c
 2118 0bfb 09       		.uleb128 0x9
 2119 0bfc F70A0000 		.4byte	.LASF166
 2120 0c00 0D       		.byte	0xd
 2121 0c01 82       		.byte	0x82
 2122 0c02 6F0E0000 		.4byte	0xe6f
 2123 0c06 02       		.byte	0x2
 2124 0c07 23       		.byte	0x23
 2125 0c08 40       		.uleb128 0x40
 2126 0c09 09       		.uleb128 0x9
 2127 0c0a F6070000 		.4byte	.LASF167
 2128 0c0e 0D       		.byte	0xd
 2129 0c0f 83       		.byte	0x83
 2130 0c10 97030000 		.4byte	0x397
 2131 0c14 03       		.byte	0x3
 2132 0c15 23       		.byte	0x23
 2133 0c16 8002     		.uleb128 0x100
 2134 0c18 09       		.uleb128 0x9
 2135 0c19 E6040000 		.4byte	.LASF168
 2136 0c1d 0D       		.byte	0xd
 2137 0c1e 85       		.byte	0x85
 2138 0c1f 740E0000 		.4byte	0xe74
 2139 0c23 03       		.byte	0x3
 2140 0c24 23       		.byte	0x23
 2141 0c25 8402     		.uleb128 0x104
 2142 0c27 09       		.uleb128 0x9
 2143 0c28 6A0B0000 		.4byte	.LASF169
 2144 0c2c 0D       		.byte	0xd
 2145 0c2d 87       		.byte	0x87
 2146 0c2e 890E0000 		.4byte	0xe89
 2147 0c32 03       		.byte	0x3
 2148 0c33 23       		.byte	0x23
 2149 0c34 C002     		.uleb128 0x140
ARM GAS  /tmp/ccHDufAi.s 			page 39


 2150 0c36 09       		.uleb128 0x9
 2151 0c37 10030000 		.4byte	.LASF170
 2152 0c3b 0D       		.byte	0xd
 2153 0c3c 88       		.byte	0x88
 2154 0c3d 97030000 		.4byte	0x397
 2155 0c41 03       		.byte	0x3
 2156 0c42 23       		.byte	0x23
 2157 0c43 8008     		.uleb128 0x400
 2158 0c45 09       		.uleb128 0x9
 2159 0c46 130B0000 		.4byte	.LASF171
 2160 0c4a 0D       		.byte	0xd
 2161 0c4b 89       		.byte	0x89
 2162 0c4c 97030000 		.4byte	0x397
 2163 0c50 03       		.byte	0x3
 2164 0c51 23       		.byte	0x23
 2165 0c52 8408     		.uleb128 0x404
 2166 0c54 09       		.uleb128 0x9
 2167 0c55 AB030000 		.4byte	.LASF172
 2168 0c59 0D       		.byte	0xd
 2169 0c5a 8A       		.byte	0x8a
 2170 0c5b 97030000 		.4byte	0x397
 2171 0c5f 03       		.byte	0x3
 2172 0c60 23       		.byte	0x23
 2173 0c61 8808     		.uleb128 0x408
 2174 0c63 09       		.uleb128 0x9
 2175 0c64 90050000 		.4byte	.LASF173
 2176 0c68 0D       		.byte	0xd
 2177 0c69 8C       		.byte	0x8c
 2178 0c6a 97030000 		.4byte	0x397
 2179 0c6e 03       		.byte	0x3
 2180 0c6f 23       		.byte	0x23
 2181 0c70 8C08     		.uleb128 0x40c
 2182 0c72 09       		.uleb128 0x9
 2183 0c73 E70A0000 		.4byte	.LASF174
 2184 0c77 0D       		.byte	0xd
 2185 0c78 8D       		.byte	0x8d
 2186 0c79 97030000 		.4byte	0x397
 2187 0c7d 03       		.byte	0x3
 2188 0c7e 23       		.byte	0x23
 2189 0c7f 9008     		.uleb128 0x410
 2190 0c81 09       		.uleb128 0x9
 2191 0c82 B6060000 		.4byte	.LASF175
 2192 0c86 0D       		.byte	0xd
 2193 0c87 8F       		.byte	0x8f
 2194 0c88 97030000 		.4byte	0x397
 2195 0c8c 03       		.byte	0x3
 2196 0c8d 23       		.byte	0x23
 2197 0c8e 9408     		.uleb128 0x414
 2198 0c90 09       		.uleb128 0x9
 2199 0c91 4C070000 		.4byte	.LASF176
 2200 0c95 0D       		.byte	0xd
 2201 0c96 91       		.byte	0x91
 2202 0c97 97030000 		.4byte	0x397
 2203 0c9b 03       		.byte	0x3
 2204 0c9c 23       		.byte	0x23
 2205 0c9d 9808     		.uleb128 0x418
 2206 0c9f 09       		.uleb128 0x9
ARM GAS  /tmp/ccHDufAi.s 			page 40


 2207 0ca0 1C060000 		.4byte	.LASF177
 2208 0ca4 0D       		.byte	0xd
 2209 0ca5 93       		.byte	0x93
 2210 0ca6 9E0E0000 		.4byte	0xe9e
 2211 0caa 03       		.byte	0x3
 2212 0cab 23       		.byte	0x23
 2213 0cac 9C08     		.uleb128 0x41c
 2214 0cae 09       		.uleb128 0x9
 2215 0caf 42030000 		.4byte	.LASF178
 2216 0cb3 0D       		.byte	0xd
 2217 0cb4 94       		.byte	0x94
 2218 0cb5 97030000 		.4byte	0x397
 2219 0cb9 03       		.byte	0x3
 2220 0cba 23       		.byte	0x23
 2221 0cbb C008     		.uleb128 0x440
 2222 0cbd 09       		.uleb128 0x9
 2223 0cbe 22070000 		.4byte	.LASF179
 2224 0cc2 0D       		.byte	0xd
 2225 0cc3 96       		.byte	0x96
 2226 0cc4 B30E0000 		.4byte	0xeb3
 2227 0cc8 03       		.byte	0x3
 2228 0cc9 23       		.byte	0x23
 2229 0cca C408     		.uleb128 0x444
 2230 0ccc 0A       		.uleb128 0xa
 2231 0ccd 686300   		.ascii	"hc\000"
 2232 0cd0 0D       		.byte	0xd
 2233 0cd1 97       		.byte	0x97
 2234 0cd2 B80E0000 		.4byte	0xeb8
 2235 0cd6 03       		.byte	0x3
 2236 0cd7 23       		.byte	0x23
 2237 0cd8 800A     		.uleb128 0x500
 2238 0cda 09       		.uleb128 0x9
 2239 0cdb 7C000000 		.4byte	.LASF180
 2240 0cdf 0D       		.byte	0xd
 2241 0ce0 98       		.byte	0x98
 2242 0ce1 D80E0000 		.4byte	0xed8
 2243 0ce5 03       		.byte	0x3
 2244 0ce6 23       		.byte	0x23
 2245 0ce7 800E     		.uleb128 0x700
 2246 0ce9 09       		.uleb128 0x9
 2247 0cea D5020000 		.4byte	.LASF181
 2248 0cee 0D       		.byte	0xd
 2249 0cef 99       		.byte	0x99
 2250 0cf0 97030000 		.4byte	0x397
 2251 0cf4 03       		.byte	0x3
 2252 0cf5 23       		.byte	0x23
 2253 0cf6 8010     		.uleb128 0x800
 2254 0cf8 09       		.uleb128 0x9
 2255 0cf9 23080000 		.4byte	.LASF182
 2256 0cfd 0D       		.byte	0xd
 2257 0cfe 9A       		.byte	0x9a
 2258 0cff 97030000 		.4byte	0x397
 2259 0d03 03       		.byte	0x3
 2260 0d04 23       		.byte	0x23
 2261 0d05 8410     		.uleb128 0x804
 2262 0d07 09       		.uleb128 0x9
 2263 0d08 A80A0000 		.4byte	.LASF183
ARM GAS  /tmp/ccHDufAi.s 			page 41


 2264 0d0c 0D       		.byte	0xd
 2265 0d0d 9B       		.byte	0x9b
 2266 0d0e 97030000 		.4byte	0x397
 2267 0d12 03       		.byte	0x3
 2268 0d13 23       		.byte	0x23
 2269 0d14 8810     		.uleb128 0x808
 2270 0d16 09       		.uleb128 0x9
 2271 0d17 39030000 		.4byte	.LASF184
 2272 0d1b 0D       		.byte	0xd
 2273 0d1c 9C       		.byte	0x9c
 2274 0d1d 97030000 		.4byte	0x397
 2275 0d21 03       		.byte	0x3
 2276 0d22 23       		.byte	0x23
 2277 0d23 8C10     		.uleb128 0x80c
 2278 0d25 09       		.uleb128 0x9
 2279 0d26 81090000 		.4byte	.LASF185
 2280 0d2a 0D       		.byte	0xd
 2281 0d2b 9D       		.byte	0x9d
 2282 0d2c 97030000 		.4byte	0x397
 2283 0d30 03       		.byte	0x3
 2284 0d31 23       		.byte	0x23
 2285 0d32 9010     		.uleb128 0x810
 2286 0d34 09       		.uleb128 0x9
 2287 0d35 E3010000 		.4byte	.LASF186
 2288 0d39 0D       		.byte	0xd
 2289 0d3a 9F       		.byte	0x9f
 2290 0d3b 97030000 		.4byte	0x397
 2291 0d3f 03       		.byte	0x3
 2292 0d40 23       		.byte	0x23
 2293 0d41 9410     		.uleb128 0x814
 2294 0d43 09       		.uleb128 0x9
 2295 0d44 C7010000 		.4byte	.LASF187
 2296 0d48 0D       		.byte	0xd
 2297 0d49 A1       		.byte	0xa1
 2298 0d4a 97030000 		.4byte	0x397
 2299 0d4e 03       		.byte	0x3
 2300 0d4f 23       		.byte	0x23
 2301 0d50 9810     		.uleb128 0x818
 2302 0d52 09       		.uleb128 0x9
 2303 0d53 A7080000 		.4byte	.LASF188
 2304 0d57 0D       		.byte	0xd
 2305 0d58 A3       		.byte	0xa3
 2306 0d59 97030000 		.4byte	0x397
 2307 0d5d 03       		.byte	0x3
 2308 0d5e 23       		.byte	0x23
 2309 0d5f 9C10     		.uleb128 0x81c
 2310 0d61 09       		.uleb128 0x9
 2311 0d62 FA030000 		.4byte	.LASF189
 2312 0d66 0D       		.byte	0xd
 2313 0d67 A5       		.byte	0xa5
 2314 0d68 97030000 		.4byte	0x397
 2315 0d6c 03       		.byte	0x3
 2316 0d6d 23       		.byte	0x23
 2317 0d6e A010     		.uleb128 0x820
 2318 0d70 09       		.uleb128 0x9
 2319 0d71 03040000 		.4byte	.LASF190
 2320 0d75 0D       		.byte	0xd
ARM GAS  /tmp/ccHDufAi.s 			page 42


 2321 0d76 A6       		.byte	0xa6
 2322 0d77 97030000 		.4byte	0x397
 2323 0d7b 03       		.byte	0x3
 2324 0d7c 23       		.byte	0x23
 2325 0d7d A410     		.uleb128 0x824
 2326 0d7f 09       		.uleb128 0x9
 2327 0d80 B0080000 		.4byte	.LASF191
 2328 0d84 0D       		.byte	0xd
 2329 0d85 A7       		.byte	0xa7
 2330 0d86 97030000 		.4byte	0x397
 2331 0d8a 03       		.byte	0x3
 2332 0d8b 23       		.byte	0x23
 2333 0d8c A810     		.uleb128 0x828
 2334 0d8e 09       		.uleb128 0x9
 2335 0d8f 0C040000 		.4byte	.LASF192
 2336 0d93 0D       		.byte	0xd
 2337 0d94 A9       		.byte	0xa9
 2338 0d95 97030000 		.4byte	0x397
 2339 0d99 03       		.byte	0x3
 2340 0d9a 23       		.byte	0x23
 2341 0d9b AC10     		.uleb128 0x82c
 2342 0d9d 09       		.uleb128 0x9
 2343 0d9e 34060000 		.4byte	.LASF193
 2344 0da2 0D       		.byte	0xd
 2345 0da3 AB       		.byte	0xab
 2346 0da4 97030000 		.4byte	0x397
 2347 0da8 03       		.byte	0x3
 2348 0da9 23       		.byte	0x23
 2349 0daa B010     		.uleb128 0x830
 2350 0dac 09       		.uleb128 0x9
 2351 0dad 21040000 		.4byte	.LASF194
 2352 0db1 0D       		.byte	0xd
 2353 0db2 AC       		.byte	0xac
 2354 0db3 97030000 		.4byte	0x397
 2355 0db7 03       		.byte	0x3
 2356 0db8 23       		.byte	0x23
 2357 0db9 B410     		.uleb128 0x834
 2358 0dbb 09       		.uleb128 0x9
 2359 0dbc 78040000 		.4byte	.LASF195
 2360 0dc0 0D       		.byte	0xd
 2361 0dc1 AE       		.byte	0xae
 2362 0dc2 97030000 		.4byte	0x397
 2363 0dc6 03       		.byte	0x3
 2364 0dc7 23       		.byte	0x23
 2365 0dc8 B810     		.uleb128 0x838
 2366 0dca 09       		.uleb128 0x9
 2367 0dcb 7D060000 		.4byte	.LASF196
 2368 0dcf 0D       		.byte	0xd
 2369 0dd0 AF       		.byte	0xaf
 2370 0dd1 97030000 		.4byte	0x397
 2371 0dd5 03       		.byte	0x3
 2372 0dd6 23       		.byte	0x23
 2373 0dd7 BC10     		.uleb128 0x83c
 2374 0dd9 09       		.uleb128 0x9
 2375 0dda D1040000 		.4byte	.LASF197
 2376 0dde 0D       		.byte	0xd
 2377 0ddf B0       		.byte	0xb0
ARM GAS  /tmp/ccHDufAi.s 			page 43


 2378 0de0 ED0E0000 		.4byte	0xeed
 2379 0de4 03       		.byte	0x3
 2380 0de5 23       		.byte	0x23
 2381 0de6 C010     		.uleb128 0x840
 2382 0de8 09       		.uleb128 0x9
 2383 0de9 67060000 		.4byte	.LASF198
 2384 0ded 0D       		.byte	0xd
 2385 0dee B1       		.byte	0xb1
 2386 0def F20E0000 		.4byte	0xef2
 2387 0df3 03       		.byte	0x3
 2388 0df4 23       		.byte	0x23
 2389 0df5 8011     		.uleb128 0x880
 2390 0df7 09       		.uleb128 0x9
 2391 0df8 300A0000 		.4byte	.LASF199
 2392 0dfc 0D       		.byte	0xd
 2393 0dfd B2       		.byte	0xb2
 2394 0dfe F70E0000 		.4byte	0xef7
 2395 0e02 03       		.byte	0x3
 2396 0e03 23       		.byte	0x23
 2397 0e04 C011     		.uleb128 0x8c0
 2398 0e06 0A       		.uleb128 0xa
 2399 0e07 696500   		.ascii	"ie\000"
 2400 0e0a 0D       		.byte	0xd
 2401 0e0b B3       		.byte	0xb3
 2402 0e0c FC0E0000 		.4byte	0xefc
 2403 0e10 03       		.byte	0x3
 2404 0e11 23       		.byte	0x23
 2405 0e12 8012     		.uleb128 0x900
 2406 0e14 0A       		.uleb128 0xa
 2407 0e15 6F6500   		.ascii	"oe\000"
 2408 0e18 0D       		.byte	0xd
 2409 0e19 B4       		.byte	0xb4
 2410 0e1a 0C0F0000 		.4byte	0xf0c
 2411 0e1e 03       		.byte	0x3
 2412 0e1f 23       		.byte	0x23
 2413 0e20 8016     		.uleb128 0xb00
 2414 0e22 09       		.uleb128 0x9
 2415 0e23 D6070000 		.4byte	.LASF200
 2416 0e27 0D       		.byte	0xd
 2417 0e28 B5       		.byte	0xb5
 2418 0e29 1C0F0000 		.4byte	0xf1c
 2419 0e2d 03       		.byte	0x3
 2420 0e2e 23       		.byte	0x23
 2421 0e2f 801A     		.uleb128 0xd00
 2422 0e31 09       		.uleb128 0x9
 2423 0e32 D1050000 		.4byte	.LASF201
 2424 0e36 0D       		.byte	0xd
 2425 0e37 B6       		.byte	0xb6
 2426 0e38 97030000 		.4byte	0x397
 2427 0e3c 03       		.byte	0x3
 2428 0e3d 23       		.byte	0x23
 2429 0e3e 801C     		.uleb128 0xe00
 2430 0e40 09       		.uleb128 0x9
 2431 0e41 0D070000 		.4byte	.LASF202
 2432 0e45 0D       		.byte	0xd
 2433 0e46 B8       		.byte	0xb8
 2434 0e47 310F0000 		.4byte	0xf31
ARM GAS  /tmp/ccHDufAi.s 			page 44


 2435 0e4b 03       		.byte	0x3
 2436 0e4c 23       		.byte	0x23
 2437 0e4d 841C     		.uleb128 0xe04
 2438 0e4f 09       		.uleb128 0x9
 2439 0e50 ED080000 		.4byte	.LASF203
 2440 0e54 0D       		.byte	0xd
 2441 0e55 B9       		.byte	0xb9
 2442 0e56 4D0F0000 		.4byte	0xf4d
 2443 0e5a 03       		.byte	0x3
 2444 0e5b 23       		.byte	0x23
 2445 0e5c 8020     		.uleb128 0x1000
 2446 0e5e 00       		.byte	0
 2447 0e5f 14       		.uleb128 0x14
 2448 0e60 B6000000 		.4byte	0xb6
 2449 0e64 6F0E0000 		.4byte	0xe6f
 2450 0e68 15       		.uleb128 0x15
 2451 0e69 75000000 		.4byte	0x75
 2452 0e6d 2F       		.byte	0x2f
 2453 0e6e 00       		.byte	0
 2454 0e6f 0E       		.uleb128 0xe
 2455 0e70 5F0E0000 		.4byte	0xe5f
 2456 0e74 0E       		.uleb128 0xe
 2457 0e75 E9050000 		.4byte	0x5e9
 2458 0e79 14       		.uleb128 0x14
 2459 0e7a B6000000 		.4byte	0xb6
 2460 0e7e 890E0000 		.4byte	0xe89
 2461 0e82 15       		.uleb128 0x15
 2462 0e83 75000000 		.4byte	0x75
 2463 0e87 AF       		.byte	0xaf
 2464 0e88 00       		.byte	0
 2465 0e89 0E       		.uleb128 0xe
 2466 0e8a 790E0000 		.4byte	0xe79
 2467 0e8e 14       		.uleb128 0x14
 2468 0e8f B6000000 		.4byte	0xb6
 2469 0e93 9E0E0000 		.4byte	0xe9e
 2470 0e97 15       		.uleb128 0x15
 2471 0e98 75000000 		.4byte	0x75
 2472 0e9c 08       		.byte	0x8
 2473 0e9d 00       		.byte	0
 2474 0e9e 0E       		.uleb128 0xe
 2475 0e9f 8E0E0000 		.4byte	0xe8e
 2476 0ea3 14       		.uleb128 0x14
 2477 0ea4 B6000000 		.4byte	0xb6
 2478 0ea8 B30E0000 		.4byte	0xeb3
 2479 0eac 15       		.uleb128 0x15
 2480 0ead 75000000 		.4byte	0x75
 2481 0eb1 2E       		.byte	0x2e
 2482 0eb2 00       		.byte	0
 2483 0eb3 0E       		.uleb128 0xe
 2484 0eb4 A30E0000 		.4byte	0xea3
 2485 0eb8 14       		.uleb128 0x14
 2486 0eb9 FD090000 		.4byte	0x9fd
 2487 0ebd C80E0000 		.4byte	0xec8
 2488 0ec1 15       		.uleb128 0x15
 2489 0ec2 75000000 		.4byte	0x75
 2490 0ec6 0F       		.byte	0xf
 2491 0ec7 00       		.byte	0
ARM GAS  /tmp/ccHDufAi.s 			page 45


 2492 0ec8 14       		.uleb128 0x14
 2493 0ec9 B6000000 		.4byte	0xb6
 2494 0ecd D80E0000 		.4byte	0xed8
 2495 0ed1 15       		.uleb128 0x15
 2496 0ed2 75000000 		.4byte	0x75
 2497 0ed6 3F       		.byte	0x3f
 2498 0ed7 00       		.byte	0
 2499 0ed8 0E       		.uleb128 0xe
 2500 0ed9 C80E0000 		.4byte	0xec8
 2501 0edd 14       		.uleb128 0x14
 2502 0ede B6000000 		.4byte	0xb6
 2503 0ee2 ED0E0000 		.4byte	0xeed
 2504 0ee6 15       		.uleb128 0x15
 2505 0ee7 75000000 		.4byte	0x75
 2506 0eeb 0F       		.byte	0xf
 2507 0eec 00       		.byte	0
 2508 0eed 0E       		.uleb128 0xe
 2509 0eee DD0E0000 		.4byte	0xedd
 2510 0ef2 0E       		.uleb128 0xe
 2511 0ef3 DD0E0000 		.4byte	0xedd
 2512 0ef7 0E       		.uleb128 0xe
 2513 0ef8 DD0E0000 		.4byte	0xedd
 2514 0efc 14       		.uleb128 0x14
 2515 0efd 810A0000 		.4byte	0xa81
 2516 0f01 0C0F0000 		.4byte	0xf0c
 2517 0f05 15       		.uleb128 0x15
 2518 0f06 75000000 		.4byte	0x75
 2519 0f0a 0F       		.byte	0xf
 2520 0f0b 00       		.byte	0
 2521 0f0c 14       		.uleb128 0x14
 2522 0f0d 050B0000 		.4byte	0xb05
 2523 0f11 1C0F0000 		.4byte	0xf1c
 2524 0f15 15       		.uleb128 0x15
 2525 0f16 75000000 		.4byte	0x75
 2526 0f1a 0F       		.byte	0xf
 2527 0f1b 00       		.byte	0
 2528 0f1c 0E       		.uleb128 0xe
 2529 0f1d C80E0000 		.4byte	0xec8
 2530 0f21 14       		.uleb128 0x14
 2531 0f22 B6000000 		.4byte	0xb6
 2532 0f26 310F0000 		.4byte	0xf31
 2533 0f2a 15       		.uleb128 0x15
 2534 0f2b 75000000 		.4byte	0x75
 2535 0f2f 7E       		.byte	0x7e
 2536 0f30 00       		.byte	0
 2537 0f31 0E       		.uleb128 0xe
 2538 0f32 210F0000 		.4byte	0xf21
 2539 0f36 14       		.uleb128 0x14
 2540 0f37 B6000000 		.4byte	0xb6
 2541 0f3b 4D0F0000 		.4byte	0xf4d
 2542 0f3f 15       		.uleb128 0x15
 2543 0f40 75000000 		.4byte	0x75
 2544 0f44 0F       		.byte	0xf
 2545 0f45 1E       		.uleb128 0x1e
 2546 0f46 75000000 		.4byte	0x75
 2547 0f4a FF03     		.2byte	0x3ff
 2548 0f4c 00       		.byte	0
ARM GAS  /tmp/ccHDufAi.s 			page 46


 2549 0f4d 0E       		.uleb128 0xe
 2550 0f4e 360F0000 		.4byte	0xf36
 2551 0f52 02       		.uleb128 0x2
 2552 0f53 F0060000 		.4byte	.LASF204
 2553 0f57 0D       		.byte	0xd
 2554 0f58 BA       		.byte	0xba
 2555 0f59 100B0000 		.4byte	0xb10
 2556 0f5d 0B       		.uleb128 0xb
 2557 0f5e 0C       		.byte	0xc
 2558 0f5f 0C       		.byte	0xc
 2559 0f60 C0       		.byte	0xc0
 2560 0f61 900F0000 		.4byte	0xf90
 2561 0f65 09       		.uleb128 0x9
 2562 0f66 40000000 		.4byte	.LASF205
 2563 0f6a 0C       		.byte	0xc
 2564 0f6b C1       		.byte	0xc1
 2565 0f6c B6000000 		.4byte	0xb6
 2566 0f70 02       		.byte	0x2
 2567 0f71 23       		.byte	0x23
 2568 0f72 00       		.uleb128 0
 2569 0f73 09       		.uleb128 0x9
 2570 0f74 CB080000 		.4byte	.LASF206
 2571 0f78 0C       		.byte	0xc
 2572 0f79 C2       		.byte	0xc2
 2573 0f7a B6000000 		.4byte	0xb6
 2574 0f7e 02       		.byte	0x2
 2575 0f7f 23       		.byte	0x23
 2576 0f80 04       		.uleb128 0x4
 2577 0f81 09       		.uleb128 0x9
 2578 0f82 41050000 		.4byte	.LASF207
 2579 0f86 0C       		.byte	0xc
 2580 0f87 C3       		.byte	0xc3
 2581 0f88 B6000000 		.4byte	0xb6
 2582 0f8c 02       		.byte	0x2
 2583 0f8d 23       		.byte	0x23
 2584 0f8e 08       		.uleb128 0x8
 2585 0f8f 00       		.byte	0
 2586 0f90 02       		.uleb128 0x2
 2587 0f91 3A040000 		.4byte	.LASF208
 2588 0f95 0C       		.byte	0xc
 2589 0f96 C4       		.byte	0xc4
 2590 0f97 5D0F0000 		.4byte	0xf5d
 2591 0f9b 0B       		.uleb128 0xb
 2592 0f9c 04       		.byte	0x4
 2593 0f9d 0C       		.byte	0xc
 2594 0f9e D7       		.byte	0xd7
 2595 0f9f B20F0000 		.4byte	0xfb2
 2596 0fa3 09       		.uleb128 0x9
 2597 0fa4 B8010000 		.4byte	.LASF209
 2598 0fa8 0C       		.byte	0xc
 2599 0fa9 DB       		.byte	0xdb
 2600 0faa 9D050000 		.4byte	0x59d
 2601 0fae 02       		.byte	0x2
 2602 0faf 23       		.byte	0x23
 2603 0fb0 00       		.uleb128 0
 2604 0fb1 00       		.byte	0
 2605 0fb2 0B       		.uleb128 0xb
ARM GAS  /tmp/ccHDufAi.s 			page 47


 2606 0fb3 04       		.byte	0x4
 2607 0fb4 0C       		.byte	0xc
 2608 0fb5 DD       		.byte	0xdd
 2609 0fb6 C90F0000 		.4byte	0xfc9
 2610 0fba 09       		.uleb128 0x9
 2611 0fbb 71090000 		.4byte	.LASF210
 2612 0fbf 0C       		.byte	0xc
 2613 0fc0 E1       		.byte	0xe1
 2614 0fc1 C90F0000 		.4byte	0xfc9
 2615 0fc5 02       		.byte	0x2
 2616 0fc6 23       		.byte	0x23
 2617 0fc7 00       		.uleb128 0
 2618 0fc8 00       		.byte	0
 2619 0fc9 06       		.uleb128 0x6
 2620 0fca 04       		.byte	0x4
 2621 0fcb 78050000 		.4byte	0x578
 2622 0fcf 0F       		.uleb128 0xf
 2623 0fd0 04       		.byte	0x4
 2624 0fd1 0C       		.byte	0xc
 2625 0fd2 D6       		.byte	0xd6
 2626 0fd3 EE0F0000 		.4byte	0xfee
 2627 0fd7 10       		.uleb128 0x10
 2628 0fd8 16080000 		.4byte	.LASF211
 2629 0fdc 0C       		.byte	0xc
 2630 0fdd DC       		.byte	0xdc
 2631 0fde 9B0F0000 		.4byte	0xf9b
 2632 0fe2 10       		.uleb128 0x10
 2633 0fe3 99080000 		.4byte	.LASF212
 2634 0fe7 0C       		.byte	0xc
 2635 0fe8 E2       		.byte	0xe2
 2636 0fe9 B20F0000 		.4byte	0xfb2
 2637 0fed 00       		.byte	0
 2638 0fee 0B       		.uleb128 0xb
 2639 0fef 10       		.byte	0x10
 2640 0ff0 0C       		.byte	0xc
 2641 0ff1 C9       		.byte	0xc9
 2642 0ff2 2F100000 		.4byte	0x102f
 2643 0ff6 09       		.uleb128 0x9
 2644 0ff7 410B0000 		.4byte	.LASF213
 2645 0ffb 0C       		.byte	0xc
 2646 0ffc CD       		.byte	0xcd
 2647 0ffd CC000000 		.4byte	0xcc
 2648 1001 02       		.byte	0x2
 2649 1002 23       		.byte	0x23
 2650 1003 00       		.uleb128 0
 2651 1004 09       		.uleb128 0x9
 2652 1005 57050000 		.4byte	.LASF214
 2653 1009 0C       		.byte	0xc
 2654 100a D1       		.byte	0xd1
 2655 100b 29000000 		.4byte	0x29
 2656 100f 02       		.byte	0x2
 2657 1010 23       		.byte	0x23
 2658 1011 04       		.uleb128 0x4
 2659 1012 09       		.uleb128 0x9
 2660 1013 83010000 		.4byte	.LASF215
 2661 1017 0C       		.byte	0xc
 2662 1018 D5       		.byte	0xd5
ARM GAS  /tmp/ccHDufAi.s 			page 48


 2663 1019 29000000 		.4byte	0x29
 2664 101d 02       		.byte	0x2
 2665 101e 23       		.byte	0x23
 2666 101f 08       		.uleb128 0x8
 2667 1020 09       		.uleb128 0x9
 2668 1021 3F090000 		.4byte	.LASF216
 2669 1025 0C       		.byte	0xc
 2670 1026 E3       		.byte	0xe3
 2671 1027 CF0F0000 		.4byte	0xfcf
 2672 102b 02       		.byte	0x2
 2673 102c 23       		.byte	0x23
 2674 102d 0C       		.uleb128 0xc
 2675 102e 00       		.byte	0
 2676 102f 02       		.uleb128 0x2
 2677 1030 E7030000 		.4byte	.LASF217
 2678 1034 0C       		.byte	0xc
 2679 1035 E4       		.byte	0xe4
 2680 1036 EE0F0000 		.4byte	0xfee
 2681 103a 0B       		.uleb128 0xb
 2682 103b 04       		.byte	0x4
 2683 103c 0C       		.byte	0xc
 2684 103d F7       		.byte	0xf7
 2685 103e 51100000 		.4byte	0x1051
 2686 1042 09       		.uleb128 0x9
 2687 1043 A1050000 		.4byte	.LASF218
 2688 1047 0C       		.byte	0xc
 2689 1048 FB       		.byte	0xfb
 2690 1049 67050000 		.4byte	0x567
 2691 104d 02       		.byte	0x2
 2692 104e 23       		.byte	0x23
 2693 104f 00       		.uleb128 0
 2694 1050 00       		.byte	0
 2695 1051 0B       		.uleb128 0xb
 2696 1052 04       		.byte	0x4
 2697 1053 0C       		.byte	0xc
 2698 1054 FD       		.byte	0xfd
 2699 1055 69100000 		.4byte	0x1069
 2700 1059 17       		.uleb128 0x17
 2701 105a 9F080000 		.4byte	.LASF219
 2702 105e 0C       		.byte	0xc
 2703 105f 0101     		.2byte	0x101
 2704 1061 69100000 		.4byte	0x1069
 2705 1065 02       		.byte	0x2
 2706 1066 23       		.byte	0x23
 2707 1067 00       		.uleb128 0
 2708 1068 00       		.byte	0
 2709 1069 06       		.uleb128 0x6
 2710 106a 04       		.byte	0x4
 2711 106b 6D050000 		.4byte	0x56d
 2712 106f 0F       		.uleb128 0xf
 2713 1070 04       		.byte	0x4
 2714 1071 0C       		.byte	0xc
 2715 1072 F6       		.byte	0xf6
 2716 1073 8F100000 		.4byte	0x108f
 2717 1077 10       		.uleb128 0x10
 2718 1078 16080000 		.4byte	.LASF211
 2719 107c 0C       		.byte	0xc
ARM GAS  /tmp/ccHDufAi.s 			page 49


 2720 107d FC       		.byte	0xfc
 2721 107e 3A100000 		.4byte	0x103a
 2722 1082 1F       		.uleb128 0x1f
 2723 1083 99080000 		.4byte	.LASF212
 2724 1087 0C       		.byte	0xc
 2725 1088 0201     		.2byte	0x102
 2726 108a 51100000 		.4byte	0x1051
 2727 108e 00       		.byte	0
 2728 108f 0B       		.uleb128 0xb
 2729 1090 10       		.byte	0x10
 2730 1091 0C       		.byte	0xc
 2731 1092 E9       		.byte	0xe9
 2732 1093 D1100000 		.4byte	0x10d1
 2733 1097 09       		.uleb128 0x9
 2734 1098 66080000 		.4byte	.LASF220
 2735 109c 0C       		.byte	0xc
 2736 109d ED       		.byte	0xed
 2737 109e CC000000 		.4byte	0xcc
 2738 10a2 02       		.byte	0x2
 2739 10a3 23       		.byte	0x23
 2740 10a4 00       		.uleb128 0
 2741 10a5 09       		.uleb128 0x9
 2742 10a6 75020000 		.4byte	.LASF221
 2743 10aa 0C       		.byte	0xc
 2744 10ab F1       		.byte	0xf1
 2745 10ac 29000000 		.4byte	0x29
 2746 10b0 02       		.byte	0x2
 2747 10b1 23       		.byte	0x23
 2748 10b2 04       		.uleb128 0x4
 2749 10b3 09       		.uleb128 0x9
 2750 10b4 7F050000 		.4byte	.LASF222
 2751 10b8 0C       		.byte	0xc
 2752 10b9 F5       		.byte	0xf5
 2753 10ba 29000000 		.4byte	0x29
 2754 10be 02       		.byte	0x2
 2755 10bf 23       		.byte	0x23
 2756 10c0 08       		.uleb128 0x8
 2757 10c1 17       		.uleb128 0x17
 2758 10c2 3F090000 		.4byte	.LASF216
 2759 10c6 0C       		.byte	0xc
 2760 10c7 0301     		.2byte	0x103
 2761 10c9 6F100000 		.4byte	0x106f
 2762 10cd 02       		.byte	0x2
 2763 10ce 23       		.byte	0x23
 2764 10cf 0C       		.uleb128 0xc
 2765 10d0 00       		.byte	0
 2766 10d1 1A       		.uleb128 0x1a
 2767 10d2 C2070000 		.4byte	.LASF223
 2768 10d6 0C       		.byte	0xc
 2769 10d7 0401     		.2byte	0x104
 2770 10d9 8F100000 		.4byte	0x108f
 2771 10dd 1C       		.uleb128 0x1c
 2772 10de 24       		.byte	0x24
 2773 10df 0C       		.byte	0xc
 2774 10e0 0A01     		.2byte	0x10a
 2775 10e2 7D110000 		.4byte	0x117d
 2776 10e6 17       		.uleb128 0x17
ARM GAS  /tmp/ccHDufAi.s 			page 50


 2777 10e7 9B000000 		.4byte	.LASF224
 2778 10eb 0C       		.byte	0xc
 2779 10ec 0E01     		.2byte	0x10e
 2780 10ee B6000000 		.4byte	0xb6
 2781 10f2 02       		.byte	0x2
 2782 10f3 23       		.byte	0x23
 2783 10f4 00       		.uleb128 0
 2784 10f5 17       		.uleb128 0x17
 2785 10f6 76030000 		.4byte	.LASF225
 2786 10fa 0C       		.byte	0xc
 2787 10fb 1901     		.2byte	0x119
 2788 10fd E0080000 		.4byte	0x8e0
 2789 1101 02       		.byte	0x2
 2790 1102 23       		.byte	0x23
 2791 1103 04       		.uleb128 0x4
 2792 1104 17       		.uleb128 0x17
 2793 1105 89030000 		.4byte	.LASF226
 2794 1109 0C       		.byte	0xc
 2795 110a 1F01     		.2byte	0x11f
 2796 110c E0080000 		.4byte	0x8e0
 2797 1110 02       		.byte	0x2
 2798 1111 23       		.byte	0x23
 2799 1112 08       		.uleb128 0x8
 2800 1113 17       		.uleb128 0x17
 2801 1114 2B070000 		.4byte	.LASF227
 2802 1118 0C       		.byte	0xc
 2803 1119 2501     		.2byte	0x125
 2804 111b E0080000 		.4byte	0x8e0
 2805 111f 02       		.byte	0x2
 2806 1120 23       		.byte	0x23
 2807 1121 0C       		.uleb128 0xc
 2808 1122 17       		.uleb128 0x17
 2809 1123 61070000 		.4byte	.LASF228
 2810 1127 0C       		.byte	0xc
 2811 1128 2B01     		.2byte	0x12b
 2812 112a A0000000 		.4byte	0xa0
 2813 112e 02       		.byte	0x2
 2814 112f 23       		.byte	0x23
 2815 1130 10       		.uleb128 0x10
 2816 1131 17       		.uleb128 0x17
 2817 1132 99010000 		.4byte	.LASF229
 2818 1136 0C       		.byte	0xc
 2819 1137 3101     		.2byte	0x131
 2820 1139 A0000000 		.4byte	0xa0
 2821 113d 02       		.byte	0x2
 2822 113e 23       		.byte	0x23
 2823 113f 12       		.uleb128 0x12
 2824 1140 17       		.uleb128 0x17
 2825 1141 AF050000 		.4byte	.LASF230
 2826 1145 0C       		.byte	0xc
 2827 1146 3601     		.2byte	0x136
 2828 1148 7D110000 		.4byte	0x117d
 2829 114c 02       		.byte	0x2
 2830 114d 23       		.byte	0x23
 2831 114e 14       		.uleb128 0x14
 2832 114f 17       		.uleb128 0x17
 2833 1150 88070000 		.4byte	.LASF231
ARM GAS  /tmp/ccHDufAi.s 			page 51


 2834 1154 0C       		.byte	0xc
 2835 1155 3B01     		.2byte	0x13b
 2836 1157 83110000 		.4byte	0x1183
 2837 115b 02       		.byte	0x2
 2838 115c 23       		.byte	0x23
 2839 115d 18       		.uleb128 0x18
 2840 115e 17       		.uleb128 0x17
 2841 115f 26050000 		.4byte	.LASF232
 2842 1163 0C       		.byte	0xc
 2843 1164 4201     		.2byte	0x142
 2844 1166 A0000000 		.4byte	0xa0
 2845 116a 02       		.byte	0x2
 2846 116b 23       		.byte	0x23
 2847 116c 1C       		.uleb128 0x1c
 2848 116d 17       		.uleb128 0x17
 2849 116e 03070000 		.4byte	.LASF233
 2850 1172 0C       		.byte	0xc
 2851 1173 4801     		.2byte	0x148
 2852 1175 67050000 		.4byte	0x567
 2853 1179 02       		.byte	0x2
 2854 117a 23       		.byte	0x23
 2855 117b 20       		.uleb128 0x20
 2856 117c 00       		.byte	0
 2857 117d 06       		.uleb128 0x6
 2858 117e 04       		.byte	0x4
 2859 117f 2F100000 		.4byte	0x102f
 2860 1183 06       		.uleb128 0x6
 2861 1184 04       		.byte	0x4
 2862 1185 D1100000 		.4byte	0x10d1
 2863 1189 1A       		.uleb128 0x1a
 2864 118a 28080000 		.4byte	.LASF234
 2865 118e 0C       		.byte	0xc
 2866 118f 4901     		.2byte	0x149
 2867 1191 DD100000 		.4byte	0x10dd
 2868 1195 1C       		.uleb128 0x1c
 2869 1196 10       		.byte	0x10
 2870 1197 0C       		.byte	0xc
 2871 1198 4E01     		.2byte	0x14e
 2872 119a DB110000 		.4byte	0x11db
 2873 119e 17       		.uleb128 0x17
 2874 119f D9050000 		.4byte	.LASF235
 2875 11a3 0C       		.byte	0xc
 2876 11a4 5301     		.2byte	0x153
 2877 11a6 03090000 		.4byte	0x903
 2878 11aa 02       		.byte	0x2
 2879 11ab 23       		.byte	0x23
 2880 11ac 00       		.uleb128 0
 2881 11ad 17       		.uleb128 0x17
 2882 11ae AD0A0000 		.4byte	.LASF236
 2883 11b2 0C       		.byte	0xc
 2884 11b3 5801     		.2byte	0x158
 2885 11b5 48090000 		.4byte	0x948
 2886 11b9 02       		.byte	0x2
 2887 11ba 23       		.byte	0x23
 2888 11bb 04       		.uleb128 0x4
 2889 11bc 17       		.uleb128 0x17
 2890 11bd F2020000 		.4byte	.LASF237
ARM GAS  /tmp/ccHDufAi.s 			page 52


 2891 11c1 0C       		.byte	0xc
 2892 11c2 5E01     		.2byte	0x15e
 2893 11c4 26090000 		.4byte	0x926
 2894 11c8 02       		.byte	0x2
 2895 11c9 23       		.byte	0x23
 2896 11ca 08       		.uleb128 0x8
 2897 11cb 17       		.uleb128 0x17
 2898 11cc 130A0000 		.4byte	.LASF238
 2899 11d0 0C       		.byte	0xc
 2900 11d1 6201     		.2byte	0x162
 2901 11d3 BC080000 		.4byte	0x8bc
 2902 11d7 02       		.byte	0x2
 2903 11d8 23       		.byte	0x23
 2904 11d9 0C       		.uleb128 0xc
 2905 11da 00       		.byte	0
 2906 11db 1A       		.uleb128 0x1a
 2907 11dc C9060000 		.4byte	.LASF239
 2908 11e0 0C       		.byte	0xc
 2909 11e1 6401     		.2byte	0x164
 2910 11e3 95110000 		.4byte	0x1195
 2911 11e7 06       		.uleb128 0x6
 2912 11e8 04       		.byte	0x4
 2913 11e9 ED110000 		.4byte	0x11ed
 2914 11ed 07       		.uleb128 0x7
 2915 11ee DB110000 		.4byte	0x11db
 2916 11f2 14       		.uleb128 0x14
 2917 11f3 02120000 		.4byte	0x1202
 2918 11f7 02120000 		.4byte	0x1202
 2919 11fb 15       		.uleb128 0x15
 2920 11fc 75000000 		.4byte	0x75
 2921 1200 03       		.byte	0x3
 2922 1201 00       		.byte	0
 2923 1202 06       		.uleb128 0x6
 2924 1203 04       		.byte	0x4
 2925 1204 08120000 		.4byte	0x1208
 2926 1208 07       		.uleb128 0x7
 2927 1209 89110000 		.4byte	0x1189
 2928 120d 14       		.uleb128 0x14
 2929 120e 95000000 		.4byte	0x95
 2930 1212 1D120000 		.4byte	0x121d
 2931 1216 15       		.uleb128 0x15
 2932 1217 75000000 		.4byte	0x75
 2933 121b 07       		.byte	0x7
 2934 121c 00       		.byte	0
 2935 121d 06       		.uleb128 0x6
 2936 121e 04       		.byte	0x4
 2937 121f 520F0000 		.4byte	0xf52
 2938 1223 06       		.uleb128 0x6
 2939 1224 04       		.byte	0x4
 2940 1225 29120000 		.4byte	0x1229
 2941 1229 07       		.uleb128 0x7
 2942 122a 900F0000 		.4byte	0xf90
 2943 122e 14       		.uleb128 0x14
 2944 122f DB020000 		.4byte	0x2db
 2945 1233 3E120000 		.4byte	0x123e
 2946 1237 15       		.uleb128 0x15
 2947 1238 75000000 		.4byte	0x75
ARM GAS  /tmp/ccHDufAi.s 			page 53


 2948 123c 25       		.byte	0x25
 2949 123d 00       		.byte	0
 2950 123e 18       		.uleb128 0x18
 2951 123f 01       		.byte	0x1
 2952 1240 0E       		.byte	0xe
 2953 1241 4A       		.byte	0x4a
 2954 1242 59120000 		.4byte	0x1259
 2955 1246 19       		.uleb128 0x19
 2956 1247 90090000 		.4byte	.LASF240
 2957 124b 00       		.sleb128 0
 2958 124c 19       		.uleb128 0x19
 2959 124d 520A0000 		.4byte	.LASF241
 2960 1251 01       		.sleb128 1
 2961 1252 19       		.uleb128 0x19
 2962 1253 67050000 		.4byte	.LASF242
 2963 1257 02       		.sleb128 2
 2964 1258 00       		.byte	0
 2965 1259 02       		.uleb128 0x2
 2966 125a D3060000 		.4byte	.LASF243
 2967 125e 0E       		.byte	0xe
 2968 125f 4E       		.byte	0x4e
 2969 1260 3E120000 		.4byte	0x123e
 2970 1264 20       		.uleb128 0x20
 2971 1265 92070000 		.4byte	.LASF244
 2972 1269 5802     		.2byte	0x258
 2973 126b 0E       		.byte	0xe
 2974 126c 8A       		.byte	0x8a
 2975 126d E2120000 		.4byte	0x12e2
 2976 1271 0A       		.uleb128 0xa
 2977 1272 766D7400 		.ascii	"vmt\000"
 2978 1276 0E       		.byte	0xe
 2979 1277 8C       		.byte	0x8c
 2980 1278 81130000 		.4byte	0x1381
 2981 127c 02       		.byte	0x2
 2982 127d 23       		.byte	0x23
 2983 127e 00       		.uleb128 0
 2984 127f 09       		.uleb128 0x9
 2985 1280 9A060000 		.4byte	.LASF245
 2986 1284 0E       		.byte	0xe
 2987 1285 8D       		.byte	0x8d
 2988 1286 5A040000 		.4byte	0x45a
 2989 128a 02       		.byte	0x2
 2990 128b 23       		.byte	0x23
 2991 128c 04       		.uleb128 0x4
 2992 128d 09       		.uleb128 0x9
 2993 128e 95000000 		.4byte	.LASF82
 2994 1292 0E       		.byte	0xe
 2995 1293 8D       		.byte	0x8d
 2996 1294 59120000 		.4byte	0x1259
 2997 1298 02       		.byte	0x2
 2998 1299 23       		.byte	0x23
 2999 129a 08       		.uleb128 0x8
 3000 129b 09       		.uleb128 0x9
 3001 129c 2D060000 		.4byte	.LASF246
 3002 12a0 0E       		.byte	0xe
 3003 12a1 8D       		.byte	0x8d
 3004 12a2 6D050000 		.4byte	0x56d
ARM GAS  /tmp/ccHDufAi.s 			page 54


 3005 12a6 02       		.byte	0x2
 3006 12a7 23       		.byte	0x23
 3007 12a8 0C       		.uleb128 0xc
 3008 12a9 09       		.uleb128 0x9
 3009 12aa 25090000 		.4byte	.LASF247
 3010 12ae 0E       		.byte	0xe
 3011 12af 8D       		.byte	0x8d
 3012 12b0 78050000 		.4byte	0x578
 3013 12b4 02       		.byte	0x2
 3014 12b5 23       		.byte	0x23
 3015 12b6 30       		.uleb128 0x30
 3016 12b7 0A       		.uleb128 0xa
 3017 12b8 696200   		.ascii	"ib\000"
 3018 12bb 0E       		.byte	0xe
 3019 12bc 8D       		.byte	0x8d
 3020 12bd 8C130000 		.4byte	0x138c
 3021 12c1 02       		.byte	0x2
 3022 12c2 23       		.byte	0x23
 3023 12c3 54       		.uleb128 0x54
 3024 12c4 0A       		.uleb128 0xa
 3025 12c5 6F6200   		.ascii	"ob\000"
 3026 12c8 0E       		.byte	0xe
 3027 12c9 8D       		.byte	0x8d
 3028 12ca 8C130000 		.4byte	0x138c
 3029 12ce 03       		.byte	0x3
 3030 12cf 23       		.byte	0x23
 3031 12d0 D402     		.uleb128 0x154
 3032 12d2 09       		.uleb128 0x9
 3033 12d3 8E000000 		.4byte	.LASF83
 3034 12d7 0E       		.byte	0xe
 3035 12d8 8D       		.byte	0x8d
 3036 12d9 9C130000 		.4byte	0x139c
 3037 12dd 03       		.byte	0x3
 3038 12de 23       		.byte	0x23
 3039 12df D404     		.uleb128 0x254
 3040 12e1 00       		.byte	0
 3041 12e2 0B       		.uleb128 0xb
 3042 12e3 04       		.byte	0x4
 3043 12e4 0E       		.byte	0xe
 3044 12e5 5A       		.byte	0x5a
 3045 12e6 F9120000 		.4byte	0x12f9
 3046 12ea 09       		.uleb128 0x9
 3047 12eb 3C050000 		.4byte	.LASF248
 3048 12ef 0E       		.byte	0xe
 3049 12f0 5E       		.byte	0x5e
 3050 12f1 DA080000 		.4byte	0x8da
 3051 12f5 02       		.byte	0x2
 3052 12f6 23       		.byte	0x23
 3053 12f7 00       		.uleb128 0
 3054 12f8 00       		.byte	0
 3055 12f9 02       		.uleb128 0x2
 3056 12fa 32070000 		.4byte	.LASF249
 3057 12fe 0E       		.byte	0xe
 3058 12ff 5F       		.byte	0x5f
 3059 1300 E2120000 		.4byte	0x12e2
 3060 1304 08       		.uleb128 0x8
 3061 1305 89040000 		.4byte	.LASF250
ARM GAS  /tmp/ccHDufAi.s 			page 55


 3062 1309 20       		.byte	0x20
 3063 130a 0E       		.byte	0xe
 3064 130b 7F       		.byte	0x7f
 3065 130c 81130000 		.4byte	0x1381
 3066 1310 09       		.uleb128 0x9
 3067 1311 79050000 		.4byte	.LASF251
 3068 1315 0E       		.byte	0xe
 3069 1316 80       		.byte	0x80
 3070 1317 A8050000 		.4byte	0x5a8
 3071 131b 02       		.byte	0x2
 3072 131c 23       		.byte	0x23
 3073 131d 00       		.uleb128 0
 3074 131e 09       		.uleb128 0x9
 3075 131f B1060000 		.4byte	.LASF252
 3076 1323 0E       		.byte	0xe
 3077 1324 80       		.byte	0x80
 3078 1325 C8050000 		.4byte	0x5c8
 3079 1329 02       		.byte	0x2
 3080 132a 23       		.byte	0x23
 3081 132b 04       		.uleb128 0x4
 3082 132c 0A       		.uleb128 0xa
 3083 132d 70757400 		.ascii	"put\000"
 3084 1331 0E       		.byte	0xe
 3085 1332 80       		.byte	0x80
 3086 1333 E3050000 		.4byte	0x5e3
 3087 1337 02       		.byte	0x2
 3088 1338 23       		.byte	0x23
 3089 1339 08       		.uleb128 0x8
 3090 133a 0A       		.uleb128 0xa
 3091 133b 67657400 		.ascii	"get\000"
 3092 133f 0E       		.byte	0xe
 3093 1340 80       		.byte	0x80
 3094 1341 A6040000 		.4byte	0x4a6
 3095 1345 02       		.byte	0x2
 3096 1346 23       		.byte	0x23
 3097 1347 0C       		.uleb128 0xc
 3098 1348 09       		.uleb128 0x9
 3099 1349 A3000000 		.4byte	.LASF253
 3100 134d 0E       		.byte	0xe
 3101 134e 80       		.byte	0x80
 3102 134f 18060000 		.4byte	0x618
 3103 1353 02       		.byte	0x2
 3104 1354 23       		.byte	0x23
 3105 1355 10       		.uleb128 0x10
 3106 1356 09       		.uleb128 0x9
 3107 1357 8F030000 		.4byte	.LASF254
 3108 135b 0E       		.byte	0xe
 3109 135c 80       		.byte	0x80
 3110 135d 33060000 		.4byte	0x633
 3111 1361 02       		.byte	0x2
 3112 1362 23       		.byte	0x23
 3113 1363 14       		.uleb128 0x14
 3114 1364 09       		.uleb128 0x9
 3115 1365 55000000 		.4byte	.LASF255
 3116 1369 0E       		.byte	0xe
 3117 136a 80       		.byte	0x80
 3118 136b 58060000 		.4byte	0x658
ARM GAS  /tmp/ccHDufAi.s 			page 56


 3119 136f 02       		.byte	0x2
 3120 1370 23       		.byte	0x23
 3121 1371 18       		.uleb128 0x18
 3122 1372 09       		.uleb128 0x9
 3123 1373 02010000 		.4byte	.LASF256
 3124 1377 0E       		.byte	0xe
 3125 1378 80       		.byte	0x80
 3126 1379 7D060000 		.4byte	0x67d
 3127 137d 02       		.byte	0x2
 3128 137e 23       		.byte	0x23
 3129 137f 1C       		.uleb128 0x1c
 3130 1380 00       		.byte	0
 3131 1381 06       		.uleb128 0x6
 3132 1382 04       		.byte	0x4
 3133 1383 87130000 		.4byte	0x1387
 3134 1387 07       		.uleb128 0x7
 3135 1388 04130000 		.4byte	0x1304
 3136 138c 14       		.uleb128 0x14
 3137 138d 95000000 		.4byte	0x95
 3138 1391 9C130000 		.4byte	0x139c
 3139 1395 15       		.uleb128 0x15
 3140 1396 75000000 		.4byte	0x75
 3141 139a FF       		.byte	0xff
 3142 139b 00       		.byte	0
 3143 139c 06       		.uleb128 0x6
 3144 139d 04       		.byte	0x4
 3145 139e A2130000 		.4byte	0x13a2
 3146 13a2 07       		.uleb128 0x7
 3147 13a3 F9120000 		.4byte	0x12f9
 3148 13a7 14       		.uleb128 0x14
 3149 13a8 95000000 		.4byte	0x95
 3150 13ac B7130000 		.4byte	0x13b7
 3151 13b0 15       		.uleb128 0x15
 3152 13b1 75000000 		.4byte	0x75
 3153 13b5 03       		.byte	0x3
 3154 13b6 00       		.byte	0
 3155 13b7 21       		.uleb128 0x21
 3156 13b8 01       		.byte	0x1
 3157 13b9 9E0A0000 		.4byte	.LASF279
 3158 13bd 01       		.byte	0x1
 3159 13be 1F01     		.2byte	0x11f
 3160 13c0 01       		.byte	0x1
 3161 13c1 01       		.byte	0x1
 3162 13c2 FF130000 		.4byte	0x13ff
 3163 13c6 22       		.uleb128 0x22
 3164 13c7 3C050000 		.4byte	.LASF248
 3165 13cb 01       		.byte	0x1
 3166 13cc 1F01     		.2byte	0x11f
 3167 13ce DA080000 		.4byte	0x8da
 3168 13d2 22       		.uleb128 0x22
 3169 13d3 9A060000 		.4byte	.LASF245
 3170 13d7 01       		.byte	0x1
 3171 13d8 1F01     		.2byte	0x11f
 3172 13da 7C080000 		.4byte	0x87c
 3173 13de 23       		.uleb128 0x23
 3174 13df F0130000 		.4byte	0x13f0
 3175 13e3 24       		.uleb128 0x24
ARM GAS  /tmp/ccHDufAi.s 			page 57


 3176 13e4 746D7000 		.ascii	"tmp\000"
 3177 13e8 01       		.byte	0x1
 3178 13e9 2701     		.2byte	0x127
 3179 13eb B6000000 		.4byte	0xb6
 3180 13ef 00       		.byte	0
 3181 13f0 25       		.uleb128 0x25
 3182 13f1 24       		.uleb128 0x24
 3183 13f2 746D7000 		.ascii	"tmp\000"
 3184 13f6 01       		.byte	0x1
 3185 13f7 3201     		.2byte	0x132
 3186 13f9 B6000000 		.4byte	0xb6
 3187 13fd 00       		.byte	0
 3188 13fe 00       		.byte	0
 3189 13ff 26       		.uleb128 0x26
 3190 1400 01       		.byte	0x1
 3191 1401 E8050000 		.4byte	.LASF287
 3192 1405 01       		.byte	0x1
 3193 1406 C4       		.byte	0xc4
 3194 1407 01       		.byte	0x1
 3195 1408 79090000 		.4byte	0x979
 3196 140c 00000000 		.4byte	.LFB118
 3197 1410 34000000 		.4byte	.LFE118
 3198 1414 02       		.byte	0x2
 3199 1415 7D       		.byte	0x7d
 3200 1416 00       		.sleb128 0
 3201 1417 01       		.byte	0x1
 3202 1418 53140000 		.4byte	0x1453
 3203 141c 27       		.uleb128 0x27
 3204 141d 3C050000 		.4byte	.LASF248
 3205 1421 01       		.byte	0x1
 3206 1422 C4       		.byte	0xc4
 3207 1423 DA080000 		.4byte	0x8da
 3208 1427 00000000 		.4byte	.LLST0
 3209 142b 28       		.uleb128 0x28
 3210 142c 04090000 		.4byte	.LASF257
 3211 1430 01       		.byte	0x1
 3212 1431 C5       		.byte	0xc5
 3213 1432 95000000 		.4byte	0x95
 3214 1436 01       		.byte	0x1
 3215 1437 51       		.byte	0x51
 3216 1438 28       		.uleb128 0x28
 3217 1439 CE020000 		.4byte	.LASF258
 3218 143d 01       		.byte	0x1
 3219 143e C6       		.byte	0xc6
 3220 143f 95000000 		.4byte	0x95
 3221 1443 01       		.byte	0x1
 3222 1444 52       		.byte	0x52
 3223 1445 28       		.uleb128 0x28
 3224 1446 44090000 		.4byte	.LASF259
 3225 144a 01       		.byte	0x1
 3226 144b C7       		.byte	0xc7
 3227 144c A0000000 		.4byte	0xa0
 3228 1450 01       		.byte	0x1
 3229 1451 53       		.byte	0x53
 3230 1452 00       		.byte	0
 3231 1453 29       		.uleb128 0x29
 3232 1454 B7130000 		.4byte	0x13b7
ARM GAS  /tmp/ccHDufAi.s 			page 58


 3233 1458 00000000 		.4byte	.LFB119
 3234 145c 44000000 		.4byte	.LFE119
 3235 1460 6C000000 		.4byte	.LLST1
 3236 1464 01       		.byte	0x1
 3237 1465 3E150000 		.4byte	0x153e
 3238 1469 2A       		.uleb128 0x2a
 3239 146a C6130000 		.4byte	0x13c6
 3240 146e 8C000000 		.4byte	.LLST2
 3241 1472 2A       		.uleb128 0x2a
 3242 1473 D2130000 		.4byte	0x13d2
 3243 1477 AA000000 		.4byte	.LLST3
 3244 147b 2B       		.uleb128 0x2b
 3245 147c B7130000 		.4byte	0x13b7
 3246 1480 0A000000 		.4byte	.LBB8
 3247 1484 44000000 		.4byte	.LBE8
 3248 1488 01       		.byte	0x1
 3249 1489 1F01     		.2byte	0x11f
 3250 148b 2A       		.uleb128 0x2a
 3251 148c C6130000 		.4byte	0x13c6
 3252 1490 CB000000 		.4byte	.LLST4
 3253 1494 2C       		.uleb128 0x2c
 3254 1495 0A000000 		.4byte	.LBB9
 3255 1499 44000000 		.4byte	.LBE9
 3256 149d 2D       		.uleb128 0x2d
 3257 149e D2130000 		.4byte	0x13d2
 3258 14a2 2E       		.uleb128 0x2e
 3259 14a3 0A000000 		.4byte	.LBB10
 3260 14a7 10000000 		.4byte	.LBE10
 3261 14ab B9140000 		.4byte	0x14b9
 3262 14af 2F       		.uleb128 0x2f
 3263 14b0 E3130000 		.4byte	0x13e3
 3264 14b4 E9000000 		.4byte	.LLST5
 3265 14b8 00       		.byte	0
 3266 14b9 2E       		.uleb128 0x2e
 3267 14ba 32000000 		.4byte	.LBB11
 3268 14be 44000000 		.4byte	.LBE11
 3269 14c2 D0140000 		.4byte	0x14d0
 3270 14c6 2F       		.uleb128 0x2f
 3271 14c7 F1130000 		.4byte	0x13f1
 3272 14cb FC000000 		.4byte	.LLST6
 3273 14cf 00       		.byte	0
 3274 14d0 30       		.uleb128 0x30
 3275 14d1 14000000 		.4byte	.LVL12
 3276 14d5 F3160000 		.4byte	0x16f3
 3277 14d9 31       		.uleb128 0x31
 3278 14da 1E000000 		.4byte	.LVL13
 3279 14de FD160000 		.4byte	0x16fd
 3280 14e2 FB140000 		.4byte	0x14fb
 3281 14e6 32       		.uleb128 0x32
 3282 14e7 01       		.byte	0x1
 3283 14e8 52       		.byte	0x52
 3284 14e9 05       		.byte	0x5
 3285 14ea 03       		.byte	0x3
 3286 14eb 00000000 		.4byte	.LANCHOR3
 3287 14ef 32       		.uleb128 0x32
 3288 14f0 01       		.byte	0x1
 3289 14f1 51       		.byte	0x51
ARM GAS  /tmp/ccHDufAi.s 			page 59


 3290 14f2 01       		.byte	0x1
 3291 14f3 31       		.byte	0x31
 3292 14f4 32       		.uleb128 0x32
 3293 14f5 01       		.byte	0x1
 3294 14f6 50       		.byte	0x50
 3295 14f7 02       		.byte	0x2
 3296 14f8 75       		.byte	0x75
 3297 14f9 00       		.sleb128 0
 3298 14fa 00       		.byte	0
 3299 14fb 31       		.uleb128 0x31
 3300 14fc 28000000 		.4byte	.LVL14
 3301 1500 FD160000 		.4byte	0x16fd
 3302 1504 1E150000 		.4byte	0x151e
 3303 1508 32       		.uleb128 0x32
 3304 1509 01       		.byte	0x1
 3305 150a 52       		.byte	0x52
 3306 150b 05       		.byte	0x5
 3307 150c 03       		.byte	0x3
 3308 150d 00000000 		.4byte	.LANCHOR4
 3309 1511 32       		.uleb128 0x32
 3310 1512 01       		.byte	0x1
 3311 1513 51       		.byte	0x51
 3312 1514 02       		.byte	0x2
 3313 1515 74       		.byte	0x74
 3314 1516 00       		.sleb128 0
 3315 1517 32       		.uleb128 0x32
 3316 1518 01       		.byte	0x1
 3317 1519 50       		.byte	0x50
 3318 151a 02       		.byte	0x2
 3319 151b 75       		.byte	0x75
 3320 151c 00       		.sleb128 0
 3321 151d 00       		.byte	0
 3322 151e 31       		.uleb128 0x31
 3323 151f 2E000000 		.4byte	.LVL15
 3324 1523 1C170000 		.4byte	0x171c
 3325 1527 32150000 		.4byte	0x1532
 3326 152b 32       		.uleb128 0x32
 3327 152c 01       		.byte	0x1
 3328 152d 50       		.byte	0x50
 3329 152e 02       		.byte	0x2
 3330 152f 75       		.byte	0x75
 3331 1530 00       		.sleb128 0
 3332 1531 00       		.byte	0
 3333 1532 30       		.uleb128 0x30
 3334 1533 32000000 		.4byte	.LVL16
 3335 1537 30170000 		.4byte	0x1730
 3336 153b 00       		.byte	0
 3337 153c 00       		.byte	0
 3338 153d 00       		.byte	0
 3339 153e 14       		.uleb128 0x14
 3340 153f 95000000 		.4byte	0x95
 3341 1543 4E150000 		.4byte	0x154e
 3342 1547 15       		.uleb128 0x15
 3343 1548 75000000 		.4byte	0x75
 3344 154c 11       		.byte	0x11
 3345 154d 00       		.byte	0
 3346 154e 33       		.uleb128 0x33
ARM GAS  /tmp/ccHDufAi.s 			page 60


 3347 154f D8090000 		.4byte	.LASF260
 3348 1553 01       		.byte	0x1
 3349 1554 1C       		.byte	0x1c
 3350 1555 5F150000 		.4byte	0x155f
 3351 1559 05       		.byte	0x5
 3352 155a 03       		.byte	0x3
 3353 155b 00000000 		.4byte	vcom_device_descriptor_data
 3354 155f 07       		.uleb128 0x7
 3355 1560 3E150000 		.4byte	0x153e
 3356 1564 33       		.uleb128 0x33
 3357 1565 13010000 		.4byte	.LASF261
 3358 1569 01       		.byte	0x1
 3359 156a 2E       		.byte	0x2e
 3360 156b 7F090000 		.4byte	0x97f
 3361 156f 05       		.byte	0x5
 3362 1570 03       		.byte	0x3
 3363 1571 00000000 		.4byte	vcom_device_descriptor
 3364 1575 14       		.uleb128 0x14
 3365 1576 95000000 		.4byte	0x95
 3366 157a 85150000 		.4byte	0x1585
 3367 157e 15       		.uleb128 0x15
 3368 157f 75000000 		.4byte	0x75
 3369 1583 42       		.byte	0x42
 3370 1584 00       		.byte	0
 3371 1585 33       		.uleb128 0x33
 3372 1586 3A080000 		.4byte	.LASF262
 3373 158a 01       		.byte	0x1
 3374 158b 36       		.byte	0x36
 3375 158c 96150000 		.4byte	0x1596
 3376 1590 05       		.byte	0x5
 3377 1591 03       		.byte	0x3
 3378 1592 00000000 		.4byte	vcom_configuration_descriptor_data
 3379 1596 07       		.uleb128 0x7
 3380 1597 75150000 		.4byte	0x1575
 3381 159b 33       		.uleb128 0x33
 3382 159c 3B020000 		.4byte	.LASF263
 3383 15a0 01       		.byte	0x1
 3384 15a1 85       		.byte	0x85
 3385 15a2 7F090000 		.4byte	0x97f
 3386 15a6 05       		.byte	0x5
 3387 15a7 03       		.byte	0x3
 3388 15a8 00000000 		.4byte	vcom_configuration_descriptor
 3389 15ac 33       		.uleb128 0x33
 3390 15ad 7B070000 		.4byte	.LASF264
 3391 15b1 01       		.byte	0x1
 3392 15b2 8D       		.byte	0x8d
 3393 15b3 BD150000 		.4byte	0x15bd
 3394 15b7 05       		.byte	0x5
 3395 15b8 03       		.byte	0x3
 3396 15b9 00000000 		.4byte	vcom_string0
 3397 15bd 07       		.uleb128 0x7
 3398 15be A7130000 		.4byte	0x13a7
 3399 15c2 14       		.uleb128 0x14
 3400 15c3 95000000 		.4byte	0x95
 3401 15c7 D2150000 		.4byte	0x15d2
 3402 15cb 15       		.uleb128 0x15
 3403 15cc 75000000 		.4byte	0x75
ARM GAS  /tmp/ccHDufAi.s 			page 61


 3404 15d0 25       		.byte	0x25
 3405 15d1 00       		.byte	0
 3406 15d2 33       		.uleb128 0x33
 3407 15d3 5D0B0000 		.4byte	.LASF265
 3408 15d7 01       		.byte	0x1
 3409 15d8 96       		.byte	0x96
 3410 15d9 E3150000 		.4byte	0x15e3
 3411 15dd 05       		.byte	0x5
 3412 15de 03       		.byte	0x3
 3413 15df 00000000 		.4byte	vcom_string1
 3414 15e3 07       		.uleb128 0x7
 3415 15e4 C2150000 		.4byte	0x15c2
 3416 15e8 14       		.uleb128 0x14
 3417 15e9 95000000 		.4byte	0x95
 3418 15ed F8150000 		.4byte	0x15f8
 3419 15f1 15       		.uleb128 0x15
 3420 15f2 75000000 		.4byte	0x75
 3421 15f6 37       		.byte	0x37
 3422 15f7 00       		.byte	0
 3423 15f8 33       		.uleb128 0x33
 3424 15f9 03030000 		.4byte	.LASF266
 3425 15fd 01       		.byte	0x1
 3426 15fe A1       		.byte	0xa1
 3427 15ff 09160000 		.4byte	0x1609
 3428 1603 05       		.byte	0x5
 3429 1604 03       		.byte	0x3
 3430 1605 00000000 		.4byte	vcom_string2
 3431 1609 07       		.uleb128 0x7
 3432 160a E8150000 		.4byte	0x15e8
 3433 160e 33       		.uleb128 0x33
 3434 160f 730B0000 		.4byte	.LASF267
 3435 1613 01       		.byte	0x1
 3436 1614 AD       		.byte	0xad
 3437 1615 1F160000 		.4byte	0x161f
 3438 1619 05       		.byte	0x5
 3439 161a 03       		.byte	0x3
 3440 161b 00000000 		.4byte	vcom_string3
 3441 161f 07       		.uleb128 0x7
 3442 1620 3E150000 		.4byte	0x153e
 3443 1624 14       		.uleb128 0x14
 3444 1625 B0080000 		.4byte	0x8b0
 3445 1629 34160000 		.4byte	0x1634
 3446 162d 15       		.uleb128 0x15
 3447 162e 75000000 		.4byte	0x75
 3448 1632 03       		.byte	0x3
 3449 1633 00       		.byte	0
 3450 1634 33       		.uleb128 0x33
 3451 1635 20000000 		.4byte	.LASF268
 3452 1639 01       		.byte	0x1
 3453 163a B9       		.byte	0xb9
 3454 163b 45160000 		.4byte	0x1645
 3455 163f 05       		.byte	0x5
 3456 1640 03       		.byte	0x3
 3457 1641 00000000 		.4byte	vcom_strings
 3458 1645 07       		.uleb128 0x7
 3459 1646 24160000 		.4byte	0x1624
 3460 164a 33       		.uleb128 0x33
ARM GAS  /tmp/ccHDufAi.s 			page 62


 3461 164b 08010000 		.4byte	.LASF269
 3462 164f 01       		.byte	0x1
 3463 1650 DE       		.byte	0xde
 3464 1651 2F100000 		.4byte	0x102f
 3465 1655 05       		.byte	0x5
 3466 1656 03       		.byte	0x3
 3467 1657 00000000 		.4byte	ep1instate
 3468 165b 33       		.uleb128 0x33
 3469 165c 5F010000 		.4byte	.LASF270
 3470 1660 01       		.byte	0x1
 3471 1661 E3       		.byte	0xe3
 3472 1662 D1100000 		.4byte	0x10d1
 3473 1666 05       		.byte	0x5
 3474 1667 03       		.byte	0x3
 3475 1668 00000000 		.4byte	ep1outstate
 3476 166c 33       		.uleb128 0x33
 3477 166d 6C030000 		.4byte	.LASF271
 3478 1671 01       		.byte	0x1
 3479 1672 E8       		.byte	0xe8
 3480 1673 08120000 		.4byte	0x1208
 3481 1677 05       		.byte	0x5
 3482 1678 03       		.byte	0x3
 3483 1679 00000000 		.4byte	ep1config
 3484 167d 33       		.uleb128 0x33
 3485 167e BF000000 		.4byte	.LASF272
 3486 1682 01       		.byte	0x1
 3487 1683 F8       		.byte	0xf8
 3488 1684 2F100000 		.4byte	0x102f
 3489 1688 05       		.byte	0x5
 3490 1689 03       		.byte	0x3
 3491 168a 00000000 		.4byte	ep2instate
 3492 168e 33       		.uleb128 0x33
 3493 168f 17040000 		.4byte	.LASF273
 3494 1693 01       		.byte	0x1
 3495 1694 FD       		.byte	0xfd
 3496 1695 08120000 		.4byte	0x1208
 3497 1699 05       		.byte	0x5
 3498 169a 03       		.byte	0x3
 3499 169b 00000000 		.4byte	ep2config
 3500 169f 34       		.uleb128 0x34
 3501 16a0 70060000 		.4byte	.LASF274
 3502 16a4 0F       		.byte	0xf
 3503 16a5 9806     		.2byte	0x698
 3504 16a7 F9050000 		.4byte	0x5f9
 3505 16ab 01       		.byte	0x1
 3506 16ac 01       		.byte	0x1
 3507 16ad 34       		.uleb128 0x34
 3508 16ae 050A0000 		.4byte	.LASF275
 3509 16b2 0C       		.byte	0xc
 3510 16b3 ED01     		.2byte	0x1ed
 3511 16b5 83060000 		.4byte	0x683
 3512 16b9 01       		.byte	0x1
 3513 16ba 01       		.byte	0x1
 3514 16bb 35       		.uleb128 0x35
 3515 16bc 0F060000 		.4byte	.LASF276
 3516 16c0 01       		.byte	0x1
 3517 16c1 17       		.byte	0x17
ARM GAS  /tmp/ccHDufAi.s 			page 63


 3518 16c2 64120000 		.4byte	0x1264
 3519 16c6 01       		.byte	0x1
 3520 16c7 05       		.byte	0x5
 3521 16c8 03       		.byte	0x3
 3522 16c9 00000000 		.4byte	SDU1
 3523 16cd 36       		.uleb128 0x36
 3524 16ce 6F080000 		.4byte	.LASF277
 3525 16d2 01       		.byte	0x1
 3526 16d3 0D01     		.2byte	0x10d
 3527 16d5 ED110000 		.4byte	0x11ed
 3528 16d9 01       		.byte	0x1
 3529 16da 05       		.byte	0x5
 3530 16db 03       		.byte	0x3
 3531 16dc 00000000 		.4byte	usbcfg
 3532 16e0 36       		.uleb128 0x36
 3533 16e1 7A0A0000 		.4byte	.LASF278
 3534 16e5 01       		.byte	0x1
 3535 16e6 1701     		.2byte	0x117
 3536 16e8 A2130000 		.4byte	0x13a2
 3537 16ec 01       		.byte	0x1
 3538 16ed 05       		.byte	0x5
 3539 16ee 03       		.byte	0x3
 3540 16ef 00000000 		.4byte	serusbcfg
 3541 16f3 37       		.uleb128 0x37
 3542 16f4 01       		.byte	0x1
 3543 16f5 EB010000 		.4byte	.LASF282
 3544 16f9 10       		.byte	0x10
 3545 16fa E2       		.byte	0xe2
 3546 16fb 01       		.byte	0x1
 3547 16fc 01       		.byte	0x1
 3548 16fd 38       		.uleb128 0x38
 3549 16fe 01       		.byte	0x1
 3550 16ff 88080000 		.4byte	.LASF280
 3551 1703 0B       		.byte	0xb
 3552 1704 1F02     		.2byte	0x21f
 3553 1706 01       		.byte	0x1
 3554 1707 01       		.byte	0x1
 3555 1708 1C170000 		.4byte	0x171c
 3556 170c 12       		.uleb128 0x12
 3557 170d DA080000 		.4byte	0x8da
 3558 1711 12       		.uleb128 0x12
 3559 1712 D8070000 		.4byte	0x7d8
 3560 1716 12       		.uleb128 0x12
 3561 1717 02120000 		.4byte	0x1202
 3562 171b 00       		.byte	0
 3563 171c 39       		.uleb128 0x39
 3564 171d 01       		.byte	0x1
 3565 171e BF0A0000 		.4byte	.LASF281
 3566 1722 0E       		.byte	0xe
 3567 1723 9F       		.byte	0x9f
 3568 1724 01       		.byte	0x1
 3569 1725 01       		.byte	0x1
 3570 1726 30170000 		.4byte	0x1730
 3571 172a 12       		.uleb128 0x12
 3572 172b DA080000 		.4byte	0x8da
 3573 172f 00       		.byte	0
 3574 1730 37       		.uleb128 0x37
ARM GAS  /tmp/ccHDufAi.s 			page 64


 3575 1731 01       		.byte	0x1
 3576 1732 4D060000 		.4byte	.LASF283
 3577 1736 10       		.byte	0x10
 3578 1737 E3       		.byte	0xe3
 3579 1738 01       		.byte	0x1
 3580 1739 01       		.byte	0x1
 3581 173a 00       		.byte	0
 3582              		.section	.debug_abbrev,"",%progbits
 3583              	.Ldebug_abbrev0:
 3584 0000 01       		.uleb128 0x1
 3585 0001 11       		.uleb128 0x11
 3586 0002 01       		.byte	0x1
 3587 0003 25       		.uleb128 0x25
 3588 0004 0E       		.uleb128 0xe
 3589 0005 13       		.uleb128 0x13
 3590 0006 0B       		.uleb128 0xb
 3591 0007 03       		.uleb128 0x3
 3592 0008 0E       		.uleb128 0xe
 3593 0009 1B       		.uleb128 0x1b
 3594 000a 0E       		.uleb128 0xe
 3595 000b 55       		.uleb128 0x55
 3596 000c 06       		.uleb128 0x6
 3597 000d 11       		.uleb128 0x11
 3598 000e 01       		.uleb128 0x1
 3599 000f 52       		.uleb128 0x52
 3600 0010 01       		.uleb128 0x1
 3601 0011 10       		.uleb128 0x10
 3602 0012 06       		.uleb128 0x6
 3603 0013 00       		.byte	0
 3604 0014 00       		.byte	0
 3605 0015 02       		.uleb128 0x2
 3606 0016 16       		.uleb128 0x16
 3607 0017 00       		.byte	0
 3608 0018 03       		.uleb128 0x3
 3609 0019 0E       		.uleb128 0xe
 3610 001a 3A       		.uleb128 0x3a
 3611 001b 0B       		.uleb128 0xb
 3612 001c 3B       		.uleb128 0x3b
 3613 001d 0B       		.uleb128 0xb
 3614 001e 49       		.uleb128 0x49
 3615 001f 13       		.uleb128 0x13
 3616 0020 00       		.byte	0
 3617 0021 00       		.byte	0
 3618 0022 03       		.uleb128 0x3
 3619 0023 24       		.uleb128 0x24
 3620 0024 00       		.byte	0
 3621 0025 0B       		.uleb128 0xb
 3622 0026 0B       		.uleb128 0xb
 3623 0027 3E       		.uleb128 0x3e
 3624 0028 0B       		.uleb128 0xb
 3625 0029 03       		.uleb128 0x3
 3626 002a 0E       		.uleb128 0xe
 3627 002b 00       		.byte	0
 3628 002c 00       		.byte	0
 3629 002d 04       		.uleb128 0x4
 3630 002e 0F       		.uleb128 0xf
 3631 002f 00       		.byte	0
ARM GAS  /tmp/ccHDufAi.s 			page 65


 3632 0030 0B       		.uleb128 0xb
 3633 0031 0B       		.uleb128 0xb
 3634 0032 00       		.byte	0
 3635 0033 00       		.byte	0
 3636 0034 05       		.uleb128 0x5
 3637 0035 24       		.uleb128 0x24
 3638 0036 00       		.byte	0
 3639 0037 0B       		.uleb128 0xb
 3640 0038 0B       		.uleb128 0xb
 3641 0039 3E       		.uleb128 0x3e
 3642 003a 0B       		.uleb128 0xb
 3643 003b 03       		.uleb128 0x3
 3644 003c 08       		.uleb128 0x8
 3645 003d 00       		.byte	0
 3646 003e 00       		.byte	0
 3647 003f 06       		.uleb128 0x6
 3648 0040 0F       		.uleb128 0xf
 3649 0041 00       		.byte	0
 3650 0042 0B       		.uleb128 0xb
 3651 0043 0B       		.uleb128 0xb
 3652 0044 49       		.uleb128 0x49
 3653 0045 13       		.uleb128 0x13
 3654 0046 00       		.byte	0
 3655 0047 00       		.byte	0
 3656 0048 07       		.uleb128 0x7
 3657 0049 26       		.uleb128 0x26
 3658 004a 00       		.byte	0
 3659 004b 49       		.uleb128 0x49
 3660 004c 13       		.uleb128 0x13
 3661 004d 00       		.byte	0
 3662 004e 00       		.byte	0
 3663 004f 08       		.uleb128 0x8
 3664 0050 13       		.uleb128 0x13
 3665 0051 01       		.byte	0x1
 3666 0052 03       		.uleb128 0x3
 3667 0053 0E       		.uleb128 0xe
 3668 0054 0B       		.uleb128 0xb
 3669 0055 0B       		.uleb128 0xb
 3670 0056 3A       		.uleb128 0x3a
 3671 0057 0B       		.uleb128 0xb
 3672 0058 3B       		.uleb128 0x3b
 3673 0059 0B       		.uleb128 0xb
 3674 005a 01       		.uleb128 0x1
 3675 005b 13       		.uleb128 0x13
 3676 005c 00       		.byte	0
 3677 005d 00       		.byte	0
 3678 005e 09       		.uleb128 0x9
 3679 005f 0D       		.uleb128 0xd
 3680 0060 00       		.byte	0
 3681 0061 03       		.uleb128 0x3
 3682 0062 0E       		.uleb128 0xe
 3683 0063 3A       		.uleb128 0x3a
 3684 0064 0B       		.uleb128 0xb
 3685 0065 3B       		.uleb128 0x3b
 3686 0066 0B       		.uleb128 0xb
 3687 0067 49       		.uleb128 0x49
 3688 0068 13       		.uleb128 0x13
ARM GAS  /tmp/ccHDufAi.s 			page 66


 3689 0069 38       		.uleb128 0x38
 3690 006a 0A       		.uleb128 0xa
 3691 006b 00       		.byte	0
 3692 006c 00       		.byte	0
 3693 006d 0A       		.uleb128 0xa
 3694 006e 0D       		.uleb128 0xd
 3695 006f 00       		.byte	0
 3696 0070 03       		.uleb128 0x3
 3697 0071 08       		.uleb128 0x8
 3698 0072 3A       		.uleb128 0x3a
 3699 0073 0B       		.uleb128 0xb
 3700 0074 3B       		.uleb128 0x3b
 3701 0075 0B       		.uleb128 0xb
 3702 0076 49       		.uleb128 0x49
 3703 0077 13       		.uleb128 0x13
 3704 0078 38       		.uleb128 0x38
 3705 0079 0A       		.uleb128 0xa
 3706 007a 00       		.byte	0
 3707 007b 00       		.byte	0
 3708 007c 0B       		.uleb128 0xb
 3709 007d 13       		.uleb128 0x13
 3710 007e 01       		.byte	0x1
 3711 007f 0B       		.uleb128 0xb
 3712 0080 0B       		.uleb128 0xb
 3713 0081 3A       		.uleb128 0x3a
 3714 0082 0B       		.uleb128 0xb
 3715 0083 3B       		.uleb128 0x3b
 3716 0084 0B       		.uleb128 0xb
 3717 0085 01       		.uleb128 0x1
 3718 0086 13       		.uleb128 0x13
 3719 0087 00       		.byte	0
 3720 0088 00       		.byte	0
 3721 0089 0C       		.uleb128 0xc
 3722 008a 13       		.uleb128 0x13
 3723 008b 01       		.byte	0x1
 3724 008c 03       		.uleb128 0x3
 3725 008d 0E       		.uleb128 0xe
 3726 008e 0B       		.uleb128 0xb
 3727 008f 0B       		.uleb128 0xb
 3728 0090 3A       		.uleb128 0x3a
 3729 0091 0B       		.uleb128 0xb
 3730 0092 3B       		.uleb128 0x3b
 3731 0093 05       		.uleb128 0x5
 3732 0094 01       		.uleb128 0x1
 3733 0095 13       		.uleb128 0x13
 3734 0096 00       		.byte	0
 3735 0097 00       		.byte	0
 3736 0098 0D       		.uleb128 0xd
 3737 0099 0D       		.uleb128 0xd
 3738 009a 00       		.byte	0
 3739 009b 03       		.uleb128 0x3
 3740 009c 08       		.uleb128 0x8
 3741 009d 3A       		.uleb128 0x3a
 3742 009e 0B       		.uleb128 0xb
 3743 009f 3B       		.uleb128 0x3b
 3744 00a0 05       		.uleb128 0x5
 3745 00a1 49       		.uleb128 0x49
ARM GAS  /tmp/ccHDufAi.s 			page 67


 3746 00a2 13       		.uleb128 0x13
 3747 00a3 38       		.uleb128 0x38
 3748 00a4 0A       		.uleb128 0xa
 3749 00a5 00       		.byte	0
 3750 00a6 00       		.byte	0
 3751 00a7 0E       		.uleb128 0xe
 3752 00a8 35       		.uleb128 0x35
 3753 00a9 00       		.byte	0
 3754 00aa 49       		.uleb128 0x49
 3755 00ab 13       		.uleb128 0x13
 3756 00ac 00       		.byte	0
 3757 00ad 00       		.byte	0
 3758 00ae 0F       		.uleb128 0xf
 3759 00af 17       		.uleb128 0x17
 3760 00b0 01       		.byte	0x1
 3761 00b1 0B       		.uleb128 0xb
 3762 00b2 0B       		.uleb128 0xb
 3763 00b3 3A       		.uleb128 0x3a
 3764 00b4 0B       		.uleb128 0xb
 3765 00b5 3B       		.uleb128 0x3b
 3766 00b6 0B       		.uleb128 0xb
 3767 00b7 01       		.uleb128 0x1
 3768 00b8 13       		.uleb128 0x13
 3769 00b9 00       		.byte	0
 3770 00ba 00       		.byte	0
 3771 00bb 10       		.uleb128 0x10
 3772 00bc 0D       		.uleb128 0xd
 3773 00bd 00       		.byte	0
 3774 00be 03       		.uleb128 0x3
 3775 00bf 0E       		.uleb128 0xe
 3776 00c0 3A       		.uleb128 0x3a
 3777 00c1 0B       		.uleb128 0xb
 3778 00c2 3B       		.uleb128 0x3b
 3779 00c3 0B       		.uleb128 0xb
 3780 00c4 49       		.uleb128 0x49
 3781 00c5 13       		.uleb128 0x13
 3782 00c6 00       		.byte	0
 3783 00c7 00       		.byte	0
 3784 00c8 11       		.uleb128 0x11
 3785 00c9 15       		.uleb128 0x15
 3786 00ca 01       		.byte	0x1
 3787 00cb 27       		.uleb128 0x27
 3788 00cc 0C       		.uleb128 0xc
 3789 00cd 49       		.uleb128 0x49
 3790 00ce 13       		.uleb128 0x13
 3791 00cf 01       		.uleb128 0x1
 3792 00d0 13       		.uleb128 0x13
 3793 00d1 00       		.byte	0
 3794 00d2 00       		.byte	0
 3795 00d3 12       		.uleb128 0x12
 3796 00d4 05       		.uleb128 0x5
 3797 00d5 00       		.byte	0
 3798 00d6 49       		.uleb128 0x49
 3799 00d7 13       		.uleb128 0x13
 3800 00d8 00       		.byte	0
 3801 00d9 00       		.byte	0
 3802 00da 13       		.uleb128 0x13
ARM GAS  /tmp/ccHDufAi.s 			page 68


 3803 00db 15       		.uleb128 0x15
 3804 00dc 01       		.byte	0x1
 3805 00dd 27       		.uleb128 0x27
 3806 00de 0C       		.uleb128 0xc
 3807 00df 01       		.uleb128 0x1
 3808 00e0 13       		.uleb128 0x13
 3809 00e1 00       		.byte	0
 3810 00e2 00       		.byte	0
 3811 00e3 14       		.uleb128 0x14
 3812 00e4 01       		.uleb128 0x1
 3813 00e5 01       		.byte	0x1
 3814 00e6 49       		.uleb128 0x49
 3815 00e7 13       		.uleb128 0x13
 3816 00e8 01       		.uleb128 0x1
 3817 00e9 13       		.uleb128 0x13
 3818 00ea 00       		.byte	0
 3819 00eb 00       		.byte	0
 3820 00ec 15       		.uleb128 0x15
 3821 00ed 21       		.uleb128 0x21
 3822 00ee 00       		.byte	0
 3823 00ef 49       		.uleb128 0x49
 3824 00f0 13       		.uleb128 0x13
 3825 00f1 2F       		.uleb128 0x2f
 3826 00f2 0B       		.uleb128 0xb
 3827 00f3 00       		.byte	0
 3828 00f4 00       		.byte	0
 3829 00f5 16       		.uleb128 0x16
 3830 00f6 13       		.uleb128 0x13
 3831 00f7 01       		.byte	0x1
 3832 00f8 03       		.uleb128 0x3
 3833 00f9 0E       		.uleb128 0xe
 3834 00fa 0B       		.uleb128 0xb
 3835 00fb 05       		.uleb128 0x5
 3836 00fc 3A       		.uleb128 0x3a
 3837 00fd 0B       		.uleb128 0xb
 3838 00fe 3B       		.uleb128 0x3b
 3839 00ff 05       		.uleb128 0x5
 3840 0100 01       		.uleb128 0x1
 3841 0101 13       		.uleb128 0x13
 3842 0102 00       		.byte	0
 3843 0103 00       		.byte	0
 3844 0104 17       		.uleb128 0x17
 3845 0105 0D       		.uleb128 0xd
 3846 0106 00       		.byte	0
 3847 0107 03       		.uleb128 0x3
 3848 0108 0E       		.uleb128 0xe
 3849 0109 3A       		.uleb128 0x3a
 3850 010a 0B       		.uleb128 0xb
 3851 010b 3B       		.uleb128 0x3b
 3852 010c 05       		.uleb128 0x5
 3853 010d 49       		.uleb128 0x49
 3854 010e 13       		.uleb128 0x13
 3855 010f 38       		.uleb128 0x38
 3856 0110 0A       		.uleb128 0xa
 3857 0111 00       		.byte	0
 3858 0112 00       		.byte	0
 3859 0113 18       		.uleb128 0x18
ARM GAS  /tmp/ccHDufAi.s 			page 69


 3860 0114 04       		.uleb128 0x4
 3861 0115 01       		.byte	0x1
 3862 0116 0B       		.uleb128 0xb
 3863 0117 0B       		.uleb128 0xb
 3864 0118 3A       		.uleb128 0x3a
 3865 0119 0B       		.uleb128 0xb
 3866 011a 3B       		.uleb128 0x3b
 3867 011b 0B       		.uleb128 0xb
 3868 011c 01       		.uleb128 0x1
 3869 011d 13       		.uleb128 0x13
 3870 011e 00       		.byte	0
 3871 011f 00       		.byte	0
 3872 0120 19       		.uleb128 0x19
 3873 0121 28       		.uleb128 0x28
 3874 0122 00       		.byte	0
 3875 0123 03       		.uleb128 0x3
 3876 0124 0E       		.uleb128 0xe
 3877 0125 1C       		.uleb128 0x1c
 3878 0126 0D       		.uleb128 0xd
 3879 0127 00       		.byte	0
 3880 0128 00       		.byte	0
 3881 0129 1A       		.uleb128 0x1a
 3882 012a 16       		.uleb128 0x16
 3883 012b 00       		.byte	0
 3884 012c 03       		.uleb128 0x3
 3885 012d 0E       		.uleb128 0xe
 3886 012e 3A       		.uleb128 0x3a
 3887 012f 0B       		.uleb128 0xb
 3888 0130 3B       		.uleb128 0x3b
 3889 0131 05       		.uleb128 0x5
 3890 0132 49       		.uleb128 0x49
 3891 0133 13       		.uleb128 0x13
 3892 0134 00       		.byte	0
 3893 0135 00       		.byte	0
 3894 0136 1B       		.uleb128 0x1b
 3895 0137 04       		.uleb128 0x4
 3896 0138 01       		.byte	0x1
 3897 0139 0B       		.uleb128 0xb
 3898 013a 0B       		.uleb128 0xb
 3899 013b 3A       		.uleb128 0x3a
 3900 013c 0B       		.uleb128 0xb
 3901 013d 3B       		.uleb128 0x3b
 3902 013e 05       		.uleb128 0x5
 3903 013f 01       		.uleb128 0x1
 3904 0140 13       		.uleb128 0x13
 3905 0141 00       		.byte	0
 3906 0142 00       		.byte	0
 3907 0143 1C       		.uleb128 0x1c
 3908 0144 13       		.uleb128 0x13
 3909 0145 01       		.byte	0x1
 3910 0146 0B       		.uleb128 0xb
 3911 0147 0B       		.uleb128 0xb
 3912 0148 3A       		.uleb128 0x3a
 3913 0149 0B       		.uleb128 0xb
 3914 014a 3B       		.uleb128 0x3b
 3915 014b 05       		.uleb128 0x5
 3916 014c 01       		.uleb128 0x1
ARM GAS  /tmp/ccHDufAi.s 			page 70


 3917 014d 13       		.uleb128 0x13
 3918 014e 00       		.byte	0
 3919 014f 00       		.byte	0
 3920 0150 1D       		.uleb128 0x1d
 3921 0151 13       		.uleb128 0x13
 3922 0152 01       		.byte	0x1
 3923 0153 0B       		.uleb128 0xb
 3924 0154 06       		.uleb128 0x6
 3925 0155 3A       		.uleb128 0x3a
 3926 0156 0B       		.uleb128 0xb
 3927 0157 3B       		.uleb128 0x3b
 3928 0158 0B       		.uleb128 0xb
 3929 0159 01       		.uleb128 0x1
 3930 015a 13       		.uleb128 0x13
 3931 015b 00       		.byte	0
 3932 015c 00       		.byte	0
 3933 015d 1E       		.uleb128 0x1e
 3934 015e 21       		.uleb128 0x21
 3935 015f 00       		.byte	0
 3936 0160 49       		.uleb128 0x49
 3937 0161 13       		.uleb128 0x13
 3938 0162 2F       		.uleb128 0x2f
 3939 0163 05       		.uleb128 0x5
 3940 0164 00       		.byte	0
 3941 0165 00       		.byte	0
 3942 0166 1F       		.uleb128 0x1f
 3943 0167 0D       		.uleb128 0xd
 3944 0168 00       		.byte	0
 3945 0169 03       		.uleb128 0x3
 3946 016a 0E       		.uleb128 0xe
 3947 016b 3A       		.uleb128 0x3a
 3948 016c 0B       		.uleb128 0xb
 3949 016d 3B       		.uleb128 0x3b
 3950 016e 05       		.uleb128 0x5
 3951 016f 49       		.uleb128 0x49
 3952 0170 13       		.uleb128 0x13
 3953 0171 00       		.byte	0
 3954 0172 00       		.byte	0
 3955 0173 20       		.uleb128 0x20
 3956 0174 13       		.uleb128 0x13
 3957 0175 01       		.byte	0x1
 3958 0176 03       		.uleb128 0x3
 3959 0177 0E       		.uleb128 0xe
 3960 0178 0B       		.uleb128 0xb
 3961 0179 05       		.uleb128 0x5
 3962 017a 3A       		.uleb128 0x3a
 3963 017b 0B       		.uleb128 0xb
 3964 017c 3B       		.uleb128 0x3b
 3965 017d 0B       		.uleb128 0xb
 3966 017e 01       		.uleb128 0x1
 3967 017f 13       		.uleb128 0x13
 3968 0180 00       		.byte	0
 3969 0181 00       		.byte	0
 3970 0182 21       		.uleb128 0x21
 3971 0183 2E       		.uleb128 0x2e
 3972 0184 01       		.byte	0x1
 3973 0185 3F       		.uleb128 0x3f
ARM GAS  /tmp/ccHDufAi.s 			page 71


 3974 0186 0C       		.uleb128 0xc
 3975 0187 03       		.uleb128 0x3
 3976 0188 0E       		.uleb128 0xe
 3977 0189 3A       		.uleb128 0x3a
 3978 018a 0B       		.uleb128 0xb
 3979 018b 3B       		.uleb128 0x3b
 3980 018c 05       		.uleb128 0x5
 3981 018d 27       		.uleb128 0x27
 3982 018e 0C       		.uleb128 0xc
 3983 018f 20       		.uleb128 0x20
 3984 0190 0B       		.uleb128 0xb
 3985 0191 01       		.uleb128 0x1
 3986 0192 13       		.uleb128 0x13
 3987 0193 00       		.byte	0
 3988 0194 00       		.byte	0
 3989 0195 22       		.uleb128 0x22
 3990 0196 05       		.uleb128 0x5
 3991 0197 00       		.byte	0
 3992 0198 03       		.uleb128 0x3
 3993 0199 0E       		.uleb128 0xe
 3994 019a 3A       		.uleb128 0x3a
 3995 019b 0B       		.uleb128 0xb
 3996 019c 3B       		.uleb128 0x3b
 3997 019d 05       		.uleb128 0x5
 3998 019e 49       		.uleb128 0x49
 3999 019f 13       		.uleb128 0x13
 4000 01a0 00       		.byte	0
 4001 01a1 00       		.byte	0
 4002 01a2 23       		.uleb128 0x23
 4003 01a3 0B       		.uleb128 0xb
 4004 01a4 01       		.byte	0x1
 4005 01a5 01       		.uleb128 0x1
 4006 01a6 13       		.uleb128 0x13
 4007 01a7 00       		.byte	0
 4008 01a8 00       		.byte	0
 4009 01a9 24       		.uleb128 0x24
 4010 01aa 34       		.uleb128 0x34
 4011 01ab 00       		.byte	0
 4012 01ac 03       		.uleb128 0x3
 4013 01ad 08       		.uleb128 0x8
 4014 01ae 3A       		.uleb128 0x3a
 4015 01af 0B       		.uleb128 0xb
 4016 01b0 3B       		.uleb128 0x3b
 4017 01b1 05       		.uleb128 0x5
 4018 01b2 49       		.uleb128 0x49
 4019 01b3 13       		.uleb128 0x13
 4020 01b4 00       		.byte	0
 4021 01b5 00       		.byte	0
 4022 01b6 25       		.uleb128 0x25
 4023 01b7 0B       		.uleb128 0xb
 4024 01b8 01       		.byte	0x1
 4025 01b9 00       		.byte	0
 4026 01ba 00       		.byte	0
 4027 01bb 26       		.uleb128 0x26
 4028 01bc 2E       		.uleb128 0x2e
 4029 01bd 01       		.byte	0x1
 4030 01be 3F       		.uleb128 0x3f
ARM GAS  /tmp/ccHDufAi.s 			page 72


 4031 01bf 0C       		.uleb128 0xc
 4032 01c0 03       		.uleb128 0x3
 4033 01c1 0E       		.uleb128 0xe
 4034 01c2 3A       		.uleb128 0x3a
 4035 01c3 0B       		.uleb128 0xb
 4036 01c4 3B       		.uleb128 0x3b
 4037 01c5 0B       		.uleb128 0xb
 4038 01c6 27       		.uleb128 0x27
 4039 01c7 0C       		.uleb128 0xc
 4040 01c8 49       		.uleb128 0x49
 4041 01c9 13       		.uleb128 0x13
 4042 01ca 11       		.uleb128 0x11
 4043 01cb 01       		.uleb128 0x1
 4044 01cc 12       		.uleb128 0x12
 4045 01cd 01       		.uleb128 0x1
 4046 01ce 40       		.uleb128 0x40
 4047 01cf 0A       		.uleb128 0xa
 4048 01d0 9742     		.uleb128 0x2117
 4049 01d2 0C       		.uleb128 0xc
 4050 01d3 01       		.uleb128 0x1
 4051 01d4 13       		.uleb128 0x13
 4052 01d5 00       		.byte	0
 4053 01d6 00       		.byte	0
 4054 01d7 27       		.uleb128 0x27
 4055 01d8 05       		.uleb128 0x5
 4056 01d9 00       		.byte	0
 4057 01da 03       		.uleb128 0x3
 4058 01db 0E       		.uleb128 0xe
 4059 01dc 3A       		.uleb128 0x3a
 4060 01dd 0B       		.uleb128 0xb
 4061 01de 3B       		.uleb128 0x3b
 4062 01df 0B       		.uleb128 0xb
 4063 01e0 49       		.uleb128 0x49
 4064 01e1 13       		.uleb128 0x13
 4065 01e2 02       		.uleb128 0x2
 4066 01e3 06       		.uleb128 0x6
 4067 01e4 00       		.byte	0
 4068 01e5 00       		.byte	0
 4069 01e6 28       		.uleb128 0x28
 4070 01e7 05       		.uleb128 0x5
 4071 01e8 00       		.byte	0
 4072 01e9 03       		.uleb128 0x3
 4073 01ea 0E       		.uleb128 0xe
 4074 01eb 3A       		.uleb128 0x3a
 4075 01ec 0B       		.uleb128 0xb
 4076 01ed 3B       		.uleb128 0x3b
 4077 01ee 0B       		.uleb128 0xb
 4078 01ef 49       		.uleb128 0x49
 4079 01f0 13       		.uleb128 0x13
 4080 01f1 02       		.uleb128 0x2
 4081 01f2 0A       		.uleb128 0xa
 4082 01f3 00       		.byte	0
 4083 01f4 00       		.byte	0
 4084 01f5 29       		.uleb128 0x29
 4085 01f6 2E       		.uleb128 0x2e
 4086 01f7 01       		.byte	0x1
 4087 01f8 31       		.uleb128 0x31
ARM GAS  /tmp/ccHDufAi.s 			page 73


 4088 01f9 13       		.uleb128 0x13
 4089 01fa 11       		.uleb128 0x11
 4090 01fb 01       		.uleb128 0x1
 4091 01fc 12       		.uleb128 0x12
 4092 01fd 01       		.uleb128 0x1
 4093 01fe 40       		.uleb128 0x40
 4094 01ff 06       		.uleb128 0x6
 4095 0200 9742     		.uleb128 0x2117
 4096 0202 0C       		.uleb128 0xc
 4097 0203 01       		.uleb128 0x1
 4098 0204 13       		.uleb128 0x13
 4099 0205 00       		.byte	0
 4100 0206 00       		.byte	0
 4101 0207 2A       		.uleb128 0x2a
 4102 0208 05       		.uleb128 0x5
 4103 0209 00       		.byte	0
 4104 020a 31       		.uleb128 0x31
 4105 020b 13       		.uleb128 0x13
 4106 020c 02       		.uleb128 0x2
 4107 020d 06       		.uleb128 0x6
 4108 020e 00       		.byte	0
 4109 020f 00       		.byte	0
 4110 0210 2B       		.uleb128 0x2b
 4111 0211 1D       		.uleb128 0x1d
 4112 0212 01       		.byte	0x1
 4113 0213 31       		.uleb128 0x31
 4114 0214 13       		.uleb128 0x13
 4115 0215 11       		.uleb128 0x11
 4116 0216 01       		.uleb128 0x1
 4117 0217 12       		.uleb128 0x12
 4118 0218 01       		.uleb128 0x1
 4119 0219 58       		.uleb128 0x58
 4120 021a 0B       		.uleb128 0xb
 4121 021b 59       		.uleb128 0x59
 4122 021c 05       		.uleb128 0x5
 4123 021d 00       		.byte	0
 4124 021e 00       		.byte	0
 4125 021f 2C       		.uleb128 0x2c
 4126 0220 0B       		.uleb128 0xb
 4127 0221 01       		.byte	0x1
 4128 0222 11       		.uleb128 0x11
 4129 0223 01       		.uleb128 0x1
 4130 0224 12       		.uleb128 0x12
 4131 0225 01       		.uleb128 0x1
 4132 0226 00       		.byte	0
 4133 0227 00       		.byte	0
 4134 0228 2D       		.uleb128 0x2d
 4135 0229 05       		.uleb128 0x5
 4136 022a 00       		.byte	0
 4137 022b 31       		.uleb128 0x31
 4138 022c 13       		.uleb128 0x13
 4139 022d 00       		.byte	0
 4140 022e 00       		.byte	0
 4141 022f 2E       		.uleb128 0x2e
 4142 0230 0B       		.uleb128 0xb
 4143 0231 01       		.byte	0x1
 4144 0232 11       		.uleb128 0x11
ARM GAS  /tmp/ccHDufAi.s 			page 74


 4145 0233 01       		.uleb128 0x1
 4146 0234 12       		.uleb128 0x12
 4147 0235 01       		.uleb128 0x1
 4148 0236 01       		.uleb128 0x1
 4149 0237 13       		.uleb128 0x13
 4150 0238 00       		.byte	0
 4151 0239 00       		.byte	0
 4152 023a 2F       		.uleb128 0x2f
 4153 023b 34       		.uleb128 0x34
 4154 023c 00       		.byte	0
 4155 023d 31       		.uleb128 0x31
 4156 023e 13       		.uleb128 0x13
 4157 023f 02       		.uleb128 0x2
 4158 0240 06       		.uleb128 0x6
 4159 0241 00       		.byte	0
 4160 0242 00       		.byte	0
 4161 0243 30       		.uleb128 0x30
 4162 0244 898201   		.uleb128 0x4109
 4163 0247 00       		.byte	0
 4164 0248 11       		.uleb128 0x11
 4165 0249 01       		.uleb128 0x1
 4166 024a 31       		.uleb128 0x31
 4167 024b 13       		.uleb128 0x13
 4168 024c 00       		.byte	0
 4169 024d 00       		.byte	0
 4170 024e 31       		.uleb128 0x31
 4171 024f 898201   		.uleb128 0x4109
 4172 0252 01       		.byte	0x1
 4173 0253 11       		.uleb128 0x11
 4174 0254 01       		.uleb128 0x1
 4175 0255 31       		.uleb128 0x31
 4176 0256 13       		.uleb128 0x13
 4177 0257 01       		.uleb128 0x1
 4178 0258 13       		.uleb128 0x13
 4179 0259 00       		.byte	0
 4180 025a 00       		.byte	0
 4181 025b 32       		.uleb128 0x32
 4182 025c 8A8201   		.uleb128 0x410a
 4183 025f 00       		.byte	0
 4184 0260 02       		.uleb128 0x2
 4185 0261 0A       		.uleb128 0xa
 4186 0262 9142     		.uleb128 0x2111
 4187 0264 0A       		.uleb128 0xa
 4188 0265 00       		.byte	0
 4189 0266 00       		.byte	0
 4190 0267 33       		.uleb128 0x33
 4191 0268 34       		.uleb128 0x34
 4192 0269 00       		.byte	0
 4193 026a 03       		.uleb128 0x3
 4194 026b 0E       		.uleb128 0xe
 4195 026c 3A       		.uleb128 0x3a
 4196 026d 0B       		.uleb128 0xb
 4197 026e 3B       		.uleb128 0x3b
 4198 026f 0B       		.uleb128 0xb
 4199 0270 49       		.uleb128 0x49
 4200 0271 13       		.uleb128 0x13
 4201 0272 02       		.uleb128 0x2
ARM GAS  /tmp/ccHDufAi.s 			page 75


 4202 0273 0A       		.uleb128 0xa
 4203 0274 00       		.byte	0
 4204 0275 00       		.byte	0
 4205 0276 34       		.uleb128 0x34
 4206 0277 34       		.uleb128 0x34
 4207 0278 00       		.byte	0
 4208 0279 03       		.uleb128 0x3
 4209 027a 0E       		.uleb128 0xe
 4210 027b 3A       		.uleb128 0x3a
 4211 027c 0B       		.uleb128 0xb
 4212 027d 3B       		.uleb128 0x3b
 4213 027e 05       		.uleb128 0x5
 4214 027f 49       		.uleb128 0x49
 4215 0280 13       		.uleb128 0x13
 4216 0281 3F       		.uleb128 0x3f
 4217 0282 0C       		.uleb128 0xc
 4218 0283 3C       		.uleb128 0x3c
 4219 0284 0C       		.uleb128 0xc
 4220 0285 00       		.byte	0
 4221 0286 00       		.byte	0
 4222 0287 35       		.uleb128 0x35
 4223 0288 34       		.uleb128 0x34
 4224 0289 00       		.byte	0
 4225 028a 03       		.uleb128 0x3
 4226 028b 0E       		.uleb128 0xe
 4227 028c 3A       		.uleb128 0x3a
 4228 028d 0B       		.uleb128 0xb
 4229 028e 3B       		.uleb128 0x3b
 4230 028f 0B       		.uleb128 0xb
 4231 0290 49       		.uleb128 0x49
 4232 0291 13       		.uleb128 0x13
 4233 0292 3F       		.uleb128 0x3f
 4234 0293 0C       		.uleb128 0xc
 4235 0294 02       		.uleb128 0x2
 4236 0295 0A       		.uleb128 0xa
 4237 0296 00       		.byte	0
 4238 0297 00       		.byte	0
 4239 0298 36       		.uleb128 0x36
 4240 0299 34       		.uleb128 0x34
 4241 029a 00       		.byte	0
 4242 029b 03       		.uleb128 0x3
 4243 029c 0E       		.uleb128 0xe
 4244 029d 3A       		.uleb128 0x3a
 4245 029e 0B       		.uleb128 0xb
 4246 029f 3B       		.uleb128 0x3b
 4247 02a0 05       		.uleb128 0x5
 4248 02a1 49       		.uleb128 0x49
 4249 02a2 13       		.uleb128 0x13
 4250 02a3 3F       		.uleb128 0x3f
 4251 02a4 0C       		.uleb128 0xc
 4252 02a5 02       		.uleb128 0x2
 4253 02a6 0A       		.uleb128 0xa
 4254 02a7 00       		.byte	0
 4255 02a8 00       		.byte	0
 4256 02a9 37       		.uleb128 0x37
 4257 02aa 2E       		.uleb128 0x2e
 4258 02ab 00       		.byte	0
ARM GAS  /tmp/ccHDufAi.s 			page 76


 4259 02ac 3F       		.uleb128 0x3f
 4260 02ad 0C       		.uleb128 0xc
 4261 02ae 03       		.uleb128 0x3
 4262 02af 0E       		.uleb128 0xe
 4263 02b0 3A       		.uleb128 0x3a
 4264 02b1 0B       		.uleb128 0xb
 4265 02b2 3B       		.uleb128 0x3b
 4266 02b3 0B       		.uleb128 0xb
 4267 02b4 27       		.uleb128 0x27
 4268 02b5 0C       		.uleb128 0xc
 4269 02b6 3C       		.uleb128 0x3c
 4270 02b7 0C       		.uleb128 0xc
 4271 02b8 00       		.byte	0
 4272 02b9 00       		.byte	0
 4273 02ba 38       		.uleb128 0x38
 4274 02bb 2E       		.uleb128 0x2e
 4275 02bc 01       		.byte	0x1
 4276 02bd 3F       		.uleb128 0x3f
 4277 02be 0C       		.uleb128 0xc
 4278 02bf 03       		.uleb128 0x3
 4279 02c0 0E       		.uleb128 0xe
 4280 02c1 3A       		.uleb128 0x3a
 4281 02c2 0B       		.uleb128 0xb
 4282 02c3 3B       		.uleb128 0x3b
 4283 02c4 05       		.uleb128 0x5
 4284 02c5 27       		.uleb128 0x27
 4285 02c6 0C       		.uleb128 0xc
 4286 02c7 3C       		.uleb128 0x3c
 4287 02c8 0C       		.uleb128 0xc
 4288 02c9 01       		.uleb128 0x1
 4289 02ca 13       		.uleb128 0x13
 4290 02cb 00       		.byte	0
 4291 02cc 00       		.byte	0
 4292 02cd 39       		.uleb128 0x39
 4293 02ce 2E       		.uleb128 0x2e
 4294 02cf 01       		.byte	0x1
 4295 02d0 3F       		.uleb128 0x3f
 4296 02d1 0C       		.uleb128 0xc
 4297 02d2 03       		.uleb128 0x3
 4298 02d3 0E       		.uleb128 0xe
 4299 02d4 3A       		.uleb128 0x3a
 4300 02d5 0B       		.uleb128 0xb
 4301 02d6 3B       		.uleb128 0x3b
 4302 02d7 0B       		.uleb128 0xb
 4303 02d8 27       		.uleb128 0x27
 4304 02d9 0C       		.uleb128 0xc
 4305 02da 3C       		.uleb128 0x3c
 4306 02db 0C       		.uleb128 0xc
 4307 02dc 01       		.uleb128 0x1
 4308 02dd 13       		.uleb128 0x13
 4309 02de 00       		.byte	0
 4310 02df 00       		.byte	0
 4311 02e0 00       		.byte	0
 4312              		.section	.debug_loc,"",%progbits
 4313              	.Ldebug_loc0:
 4314              	.LLST0:
 4315 0000 00000000 		.4byte	.LVL0
ARM GAS  /tmp/ccHDufAi.s 			page 77


 4316 0004 0A000000 		.4byte	.LVL1
 4317 0008 0100     		.2byte	0x1
 4318 000a 50       		.byte	0x50
 4319 000b 0A000000 		.4byte	.LVL1
 4320 000f 12000000 		.4byte	.LVL2
 4321 0013 0400     		.2byte	0x4
 4322 0015 F3       		.byte	0xf3
 4323 0016 01       		.uleb128 0x1
 4324 0017 50       		.byte	0x50
 4325 0018 9F       		.byte	0x9f
 4326 0019 12000000 		.4byte	.LVL2
 4327 001d 14000000 		.4byte	.LVL3
 4328 0021 0100     		.2byte	0x1
 4329 0023 50       		.byte	0x50
 4330 0024 14000000 		.4byte	.LVL3
 4331 0028 16000000 		.4byte	.LVL4
 4332 002c 0400     		.2byte	0x4
 4333 002e F3       		.byte	0xf3
 4334 002f 01       		.uleb128 0x1
 4335 0030 50       		.byte	0x50
 4336 0031 9F       		.byte	0x9f
 4337 0032 16000000 		.4byte	.LVL4
 4338 0036 1C000000 		.4byte	.LVL5
 4339 003a 0100     		.2byte	0x1
 4340 003c 50       		.byte	0x50
 4341 003d 1C000000 		.4byte	.LVL5
 4342 0041 22000000 		.4byte	.LVL6
 4343 0045 0400     		.2byte	0x4
 4344 0047 F3       		.byte	0xf3
 4345 0048 01       		.uleb128 0x1
 4346 0049 50       		.byte	0x50
 4347 004a 9F       		.byte	0x9f
 4348 004b 22000000 		.4byte	.LVL6
 4349 004f 24000000 		.4byte	.LVL7
 4350 0053 0100     		.2byte	0x1
 4351 0055 50       		.byte	0x50
 4352 0056 24000000 		.4byte	.LVL7
 4353 005a 34000000 		.4byte	.LFE118
 4354 005e 0400     		.2byte	0x4
 4355 0060 F3       		.byte	0xf3
 4356 0061 01       		.uleb128 0x1
 4357 0062 50       		.byte	0x50
 4358 0063 9F       		.byte	0x9f
 4359 0064 00000000 		.4byte	0
 4360 0068 00000000 		.4byte	0
 4361              	.LLST1:
 4362 006c 00000000 		.4byte	.LFB119
 4363 0070 04000000 		.4byte	.LCFI0
 4364 0074 0200     		.2byte	0x2
 4365 0076 7D       		.byte	0x7d
 4366 0077 00       		.sleb128 0
 4367 0078 04000000 		.4byte	.LCFI0
 4368 007c 44000000 		.4byte	.LFE119
 4369 0080 0200     		.2byte	0x2
 4370 0082 7D       		.byte	0x7d
 4371 0083 10       		.sleb128 16
 4372 0084 00000000 		.4byte	0
ARM GAS  /tmp/ccHDufAi.s 			page 78


 4373 0088 00000000 		.4byte	0
 4374              	.LLST2:
 4375 008c 00000000 		.4byte	.LVL8
 4376 0090 13000000 		.4byte	.LVL12-1
 4377 0094 0100     		.2byte	0x1
 4378 0096 50       		.byte	0x50
 4379 0097 13000000 		.4byte	.LVL12-1
 4380 009b 44000000 		.4byte	.LFE119
 4381 009f 0100     		.2byte	0x1
 4382 00a1 55       		.byte	0x55
 4383 00a2 00000000 		.4byte	0
 4384 00a6 00000000 		.4byte	0
 4385              	.LLST3:
 4386 00aa 00000000 		.4byte	.LVL8
 4387 00ae 13000000 		.4byte	.LVL12-1
 4388 00b2 0100     		.2byte	0x1
 4389 00b4 51       		.byte	0x51
 4390 00b5 13000000 		.4byte	.LVL12-1
 4391 00b9 44000000 		.4byte	.LFE119
 4392 00bd 0400     		.2byte	0x4
 4393 00bf F3       		.byte	0xf3
 4394 00c0 01       		.uleb128 0x1
 4395 00c1 51       		.byte	0x51
 4396 00c2 9F       		.byte	0x9f
 4397 00c3 00000000 		.4byte	0
 4398 00c7 00000000 		.4byte	0
 4399              	.LLST4:
 4400 00cb 0A000000 		.4byte	.LVL9
 4401 00cf 13000000 		.4byte	.LVL12-1
 4402 00d3 0100     		.2byte	0x1
 4403 00d5 50       		.byte	0x50
 4404 00d6 13000000 		.4byte	.LVL12-1
 4405 00da 38000000 		.4byte	.LVL18
 4406 00de 0100     		.2byte	0x1
 4407 00e0 55       		.byte	0x55
 4408 00e1 00000000 		.4byte	0
 4409 00e5 00000000 		.4byte	0
 4410              	.LLST5:
 4411 00e9 10000000 		.4byte	.LVL11
 4412 00ed 13000000 		.4byte	.LVL12-1
 4413 00f1 0100     		.2byte	0x1
 4414 00f3 53       		.byte	0x53
 4415 00f4 00000000 		.4byte	0
 4416 00f8 00000000 		.4byte	0
 4417              	.LLST6:
 4418 00fc 38000000 		.4byte	.LVL18
 4419 0100 44000000 		.4byte	.LFE119
 4420 0104 0100     		.2byte	0x1
 4421 0106 53       		.byte	0x53
 4422 0107 00000000 		.4byte	0
 4423 010b 00000000 		.4byte	0
 4424              		.section	.debug_aranges,"",%progbits
 4425 0000 24000000 		.4byte	0x24
 4426 0004 0200     		.2byte	0x2
 4427 0006 00000000 		.4byte	.Ldebug_info0
 4428 000a 04       		.byte	0x4
 4429 000b 00       		.byte	0
ARM GAS  /tmp/ccHDufAi.s 			page 79


 4430 000c 0000     		.2byte	0
 4431 000e 0000     		.2byte	0
 4432 0010 00000000 		.4byte	.LFB118
 4433 0014 34000000 		.4byte	.LFE118-.LFB118
 4434 0018 00000000 		.4byte	.LFB119
 4435 001c 44000000 		.4byte	.LFE119-.LFB119
 4436 0020 00000000 		.4byte	0
 4437 0024 00000000 		.4byte	0
 4438              		.section	.debug_ranges,"",%progbits
 4439              	.Ldebug_ranges0:
 4440 0000 00000000 		.4byte	.LFB118
 4441 0004 34000000 		.4byte	.LFE118
 4442 0008 00000000 		.4byte	.LFB119
 4443 000c 44000000 		.4byte	.LFE119
 4444 0010 00000000 		.4byte	0
 4445 0014 00000000 		.4byte	0
 4446              		.section	.debug_line,"",%progbits
 4447              	.Ldebug_line0:
 4448 0000 C9020000 		.section	.debug_str,"MS",%progbits,1
 4448      02008F02 
 4448      00000201 
 4448      FB0E0D00 
 4448      01010101 
 4449              	.LASF11:
 4450 0000 73697A65 		.ascii	"size_t\000"
 4450      5F7400
 4451              	.LASF8:
 4452 0007 73697A65 		.ascii	"sizetype\000"
 4452      74797065 
 4452      00
 4453              	.LASF26:
 4454 0010 73797374 		.ascii	"systime_t\000"
 4454      696D655F 
 4454      7400
 4455              	.LASF31:
 4456 001a 705F6374 		.ascii	"p_ctx\000"
 4456      7800
 4457              	.LASF268:
 4458 0020 76636F6D 		.ascii	"vcom_strings\000"
 4458      5F737472 
 4458      696E6773 
 4458      00
 4459              	.LASF22:
 4460 002d 74707269 		.ascii	"tprio_t\000"
 4460      6F5F7400 
 4461              	.LASF42:
 4462 0035 705F6D73 		.ascii	"p_msgqueue\000"
 4462      67717565 
 4462      756500
 4463              	.LASF205:
 4464 0040 72785F66 		.ascii	"rx_fifo_size\000"
 4464      69666F5F 
 4464      73697A65 
 4464      00
 4465              	.LASF14:
 4466 004d 696E7433 		.ascii	"int32_t\000"
 4466      325F7400 
ARM GAS  /tmp/ccHDufAi.s 			page 80


 4467              	.LASF255:
 4468 0055 77726974 		.ascii	"writet\000"
 4468      657400
 4469              	.LASF140:
 4470 005c 72657376 		.ascii	"resvd4\000"
 4470      643400
 4471              	.LASF131:
 4472 0063 72657376 		.ascii	"resvd8\000"
 4472      643800
 4473              	.LASF142:
 4474 006a 72657376 		.ascii	"resvdC\000"
 4474      644300
 4475              	.LASF109:
 4476 0071 5553425F 		.ascii	"USB_EP0_TX\000"
 4476      4550305F 
 4476      545800
 4477              	.LASF180:
 4478 007c 72657376 		.ascii	"resvd700\000"
 4478      64373030 
 4478      00
 4479              	.LASF62:
 4480 0085 656C5F66 		.ascii	"el_flags\000"
 4480      6C616773 
 4480      00
 4481              	.LASF83:
 4482 008e 636F6E66 		.ascii	"config\000"
 4482      696700
 4483              	.LASF82:
 4484 0095 73746174 		.ascii	"state\000"
 4484      6500
 4485              	.LASF224:
 4486 009b 65705F6D 		.ascii	"ep_mode\000"
 4486      6F646500 
 4487              	.LASF253:
 4488 00a3 70757474 		.ascii	"putt\000"
 4488      00
 4489              	.LASF106:
 4490 00a8 5553425F 		.ascii	"USB_ACTIVE\000"
 4490      41435449 
 4490      564500
 4491              	.LASF284:
 4492 00b3 474E5520 		.ascii	"GNU C 4.7.2\000"
 4492      4320342E 
 4492      372E3200 
 4493              	.LASF272:
 4494 00bf 65703269 		.ascii	"ep2instate\000"
 4494      6E737461 
 4494      746500
 4495              	.LASF285:
 4496 00ca 75736264 		.ascii	"usbdetail.c\000"
 4496      65746169 
 4496      6C2E6300 
 4497              	.LASF56:
 4498 00d6 6D5F6F77 		.ascii	"m_owner\000"
 4498      6E657200 
 4499              	.LASF66:
 4500 00de 65786974 		.ascii	"exitcode\000"
ARM GAS  /tmp/ccHDufAi.s 			page 81


 4500      636F6465 
 4500      00
 4501              	.LASF114:
 4502 00e7 75736265 		.ascii	"usbep0state_t\000"
 4502      70307374 
 4502      6174655F 
 4502      7400
 4503              	.LASF73:
 4504 00f5 715F746F 		.ascii	"q_top\000"
 4504      7000
 4505              	.LASF68:
 4506 00fb 65776D61 		.ascii	"ewmask\000"
 4506      736B00
 4507              	.LASF256:
 4508 0102 72656164 		.ascii	"readt\000"
 4508      7400
 4509              	.LASF269:
 4510 0108 65703169 		.ascii	"ep1instate\000"
 4510      6E737461 
 4510      746500
 4511              	.LASF261:
 4512 0113 76636F6D 		.ascii	"vcom_device_descriptor\000"
 4512      5F646576 
 4512      6963655F 
 4512      64657363 
 4512      72697074 
 4513              	.LASF72:
 4514 012a 715F6275 		.ascii	"q_buffer\000"
 4514      66666572 
 4514      00
 4515              	.LASF116:
 4516 0133 5553425F 		.ascii	"USB_EVENT_ADDRESS\000"
 4516      4556454E 
 4516      545F4144 
 4516      44524553 
 4516      5300
 4517              	.LASF161:
 4518 0145 44494550 		.ascii	"DIEPTXF0\000"
 4518      54584630 
 4518      00
 4519              	.LASF76:
 4520 014e 715F6E6F 		.ascii	"q_notify\000"
 4520      74696679 
 4520      00
 4521              	.LASF32:
 4522 0157 705F6E65 		.ascii	"p_newer\000"
 4522      77657200 
 4523              	.LASF270:
 4524 015f 6570316F 		.ascii	"ep1outstate\000"
 4524      75747374 
 4524      61746500 
 4525              	.LASF7:
 4526 016b 6C6F6E67 		.ascii	"long int\000"
 4526      20696E74 
 4526      00
 4527              	.LASF28:
 4528 0174 705F6E65 		.ascii	"p_next\000"
ARM GAS  /tmp/ccHDufAi.s 			page 82


 4528      787400
 4529              	.LASF75:
 4530 017b 715F7264 		.ascii	"q_rdptr\000"
 4530      70747200 
 4531              	.LASF215:
 4532 0183 7478636E 		.ascii	"txcnt\000"
 4532      7400
 4533              	.LASF29:
 4534 0189 705F7072 		.ascii	"p_prev\000"
 4534      657600
 4535              	.LASF19:
 4536 0190 74737461 		.ascii	"tstate_t\000"
 4536      74655F74 
 4536      00
 4537              	.LASF229:
 4538 0199 6F75745F 		.ascii	"out_maxsize\000"
 4538      6D617873 
 4538      697A6500 
 4539              	.LASF45:
 4540 01a5 705F6D74 		.ascii	"p_mtxlist\000"
 4540      786C6973 
 4540      7400
 4541              	.LASF99:
 4542 01af 7468645F 		.ascii	"thd_wait\000"
 4542      77616974 
 4542      00
 4543              	.LASF209:
 4544 01b8 74786275 		.ascii	"txbuf\000"
 4544      6600
 4545              	.LASF50:
 4546 01be 72656761 		.ascii	"regarm_t\000"
 4546      726D5F74 
 4546      00
 4547              	.LASF187:
 4548 01c7 4441494E 		.ascii	"DAINT\000"
 4548      5400
 4549              	.LASF108:
 4550 01cd 5553425F 		.ascii	"USB_EP0_WAITING_SETUP\000"
 4550      4550305F 
 4550      57414954 
 4550      494E475F 
 4550      53455455 
 4551              	.LASF186:
 4552 01e3 444F4550 		.ascii	"DOEPMSK\000"
 4552      4D534B00 
 4553              	.LASF282:
 4554 01eb 6462675F 		.ascii	"dbg_check_lock_from_isr\000"
 4554      63686563 
 4554      6B5F6C6F 
 4554      636B5F66 
 4554      726F6D5F 
 4555              	.LASF147:
 4556 0203 444F4550 		.ascii	"DOEPCTL\000"
 4556      43544C00 
 4557              	.LASF1:
 4558 020b 7369676E 		.ascii	"signed char\000"
 4558      65642063 
ARM GAS  /tmp/ccHDufAi.s 			page 83


 4558      68617200 
 4559              	.LASF39:
 4560 0217 705F7072 		.ascii	"p_preempt\000"
 4560      65656D70 
 4560      7400
 4561              	.LASF12:
 4562 0221 75696E74 		.ascii	"uint8_t\000"
 4562      385F7400 
 4563              	.LASF120:
 4564 0229 5553425F 		.ascii	"USB_EVENT_STALLED\000"
 4564      4556454E 
 4564      545F5354 
 4564      414C4C45 
 4564      4400
 4565              	.LASF263:
 4566 023b 76636F6D 		.ascii	"vcom_configuration_descriptor\000"
 4566      5F636F6E 
 4566      66696775 
 4566      72617469 
 4566      6F6E5F64 
 4567              	.LASF148:
 4568 0259 444F4550 		.ascii	"DOEPINT\000"
 4568      494E5400 
 4569              	.LASF24:
 4570 0261 6576656E 		.ascii	"eventmask_t\000"
 4570      746D6173 
 4570      6B5F7400 
 4571              	.LASF53:
 4572 026d 636F6E74 		.ascii	"context\000"
 4572      65787400 
 4573              	.LASF221:
 4574 0275 72787369 		.ascii	"rxsize\000"
 4574      7A6500
 4575              	.LASF286:
 4576 027c 2F686F6D 		.ascii	"/home/david/Projects/stm32/src/pressure_sensor\000"
 4576      652F6461 
 4576      7669642F 
 4576      50726F6A 
 4576      65637473 
 4577              	.LASF2:
 4578 02ab 756E7369 		.ascii	"unsigned char\000"
 4578      676E6564 
 4578      20636861 
 4578      7200
 4579              	.LASF113:
 4580 02b9 5553425F 		.ascii	"USB_EP0_ERROR\000"
 4580      4550305F 
 4580      4552524F 
 4580      5200
 4581              	.LASF77:
 4582 02c7 715F6C69 		.ascii	"q_link\000"
 4582      6E6B00
 4583              	.LASF258:
 4584 02ce 64696E64 		.ascii	"dindex\000"
 4584      657800
 4585              	.LASF181:
 4586 02d5 44434647 		.ascii	"DCFG\000"
ARM GAS  /tmp/ccHDufAi.s 			page 84


 4586      00
 4587              	.LASF165:
 4588 02da 47434346 		.ascii	"GCCFG\000"
 4588      4700
 4589              	.LASF87:
 4590 02e0 65703073 		.ascii	"ep0state\000"
 4590      74617465 
 4590      00
 4591              	.LASF143:
 4592 02e9 44494550 		.ascii	"DIEPTSIZ\000"
 4592      5453495A 
 4592      00
 4593              	.LASF237:
 4594 02f2 72657175 		.ascii	"requests_hook_cb\000"
 4594      65737473 
 4594      5F686F6F 
 4594      6B5F6362 
 4594      00
 4595              	.LASF266:
 4596 0303 76636F6D 		.ascii	"vcom_string2\000"
 4596      5F737472 
 4596      696E6732 
 4596      00
 4597              	.LASF170:
 4598 0310 48434647 		.ascii	"HCFG\000"
 4598      00
 4599              	.LASF130:
 4600 0315 48434348 		.ascii	"HCCHAR\000"
 4600      415200
 4601              	.LASF150:
 4602 031c 73746D33 		.ascii	"stm32_otg_out_ep_t\000"
 4602      325F6F74 
 4602      675F6F75 
 4602      745F6570 
 4602      5F7400
 4603              	.LASF10:
 4604 032f 63686172 		.ascii	"char\000"
 4604      00
 4605              	.LASF89:
 4606 0334 6570306E 		.ascii	"ep0n\000"
 4606      00
 4607              	.LASF184:
 4608 0339 72657376 		.ascii	"resvd80C\000"
 4608      64383043 
 4608      00
 4609              	.LASF178:
 4610 0342 48505254 		.ascii	"HPRT\000"
 4610      00
 4611              	.LASF30:
 4612 0347 705F7072 		.ascii	"p_prio\000"
 4612      696F00
 4613              	.LASF86:
 4614 034e 72656365 		.ascii	"receiving\000"
 4614      6976696E 
 4614      6700
 4615              	.LASF69:
 4616 0358 47656E65 		.ascii	"GenericQueue\000"
ARM GAS  /tmp/ccHDufAi.s 			page 85


 4616      72696351 
 4616      75657565 
 4616      00
 4617              	.LASF67:
 4618 0365 77746F62 		.ascii	"wtobjp\000"
 4618      6A7000
 4619              	.LASF271:
 4620 036c 65703163 		.ascii	"ep1config\000"
 4620      6F6E6669 
 4620      6700
 4621              	.LASF225:
 4622 0376 73657475 		.ascii	"setup_cb\000"
 4622      705F6362 
 4622      00
 4623              	.LASF123:
 4624 037f 75645F73 		.ascii	"ud_string\000"
 4624      7472696E 
 4624      6700
 4625              	.LASF226:
 4626 0389 696E5F63 		.ascii	"in_cb\000"
 4626      6200
 4627              	.LASF254:
 4628 038f 67657474 		.ascii	"gett\000"
 4628      00
 4629              	.LASF51:
 4630 0394 73746B61 		.ascii	"stkalign_t\000"
 4630      6C69676E 
 4630      5F7400
 4631              	.LASF80:
 4632 039f 4F757470 		.ascii	"OutputQueue\000"
 4632      75745175 
 4632      65756500 
 4633              	.LASF172:
 4634 03ab 48464E55 		.ascii	"HFNUM\000"
 4634      4D00
 4635              	.LASF127:
 4636 03b1 75736265 		.ascii	"usbeventcb_t\000"
 4636      76656E74 
 4636      63625F74 
 4636      00
 4637              	.LASF138:
 4638 03be 73746D33 		.ascii	"stm32_otg_host_chn_t\000"
 4638      325F6F74 
 4638      675F686F 
 4638      73745F63 
 4638      686E5F74 
 4639              	.LASF85:
 4640 03d3 7472616E 		.ascii	"transmitting\000"
 4640      736D6974 
 4640      74696E67 
 4640      00
 4641              	.LASF134:
 4642 03e0 48435453 		.ascii	"HCTSIZ\000"
 4642      495A00
 4643              	.LASF217:
 4644 03e7 55534249 		.ascii	"USBInEndpointState\000"
 4644      6E456E64 
ARM GAS  /tmp/ccHDufAi.s 			page 86


 4644      706F696E 
 4644      74537461 
 4644      746500
 4645              	.LASF189:
 4646 03fa 72657376 		.ascii	"resvd820\000"
 4646      64383230 
 4646      00
 4647              	.LASF190:
 4648 0403 72657376 		.ascii	"resvd824\000"
 4648      64383234 
 4648      00
 4649              	.LASF192:
 4650 040c 44564255 		.ascii	"DVBUSPULSE\000"
 4650      5350554C 
 4650      534500
 4651              	.LASF273:
 4652 0417 65703263 		.ascii	"ep2config\000"
 4652      6F6E6669 
 4652      6700
 4653              	.LASF194:
 4654 0421 44494550 		.ascii	"DIEPEMPMSK\000"
 4654      454D504D 
 4654      534B00
 4655              	.LASF124:
 4656 042c 55534244 		.ascii	"USBDescriptor\000"
 4656      65736372 
 4656      6970746F 
 4656      7200
 4657              	.LASF208:
 4658 043a 73746D33 		.ascii	"stm32_otg_params_t\000"
 4658      325F6F74 
 4658      675F7061 
 4658      72616D73 
 4658      5F7400
 4659              	.LASF91:
 4660 044d 73657475 		.ascii	"setup\000"
 4660      7000
 4661              	.LASF52:
 4662 0453 696E7463 		.ascii	"intctx\000"
 4662      747800
 4663              	.LASF44:
 4664 045a 705F6570 		.ascii	"p_epending\000"
 4664      656E6469 
 4664      6E6700
 4665              	.LASF155:
 4666 0465 47525354 		.ascii	"GRSTCTL\000"
 4666      43544C00 
 4667              	.LASF121:
 4668 046d 75736265 		.ascii	"usbevent_t\000"
 4668      76656E74 
 4668      5F7400
 4669              	.LASF195:
 4670 0478 72657376 		.ascii	"resvd838\000"
 4670      64383338 
 4670      00
 4671              	.LASF122:
 4672 0481 75645F73 		.ascii	"ud_size\000"
ARM GAS  /tmp/ccHDufAi.s 			page 87


 4672      697A6500 
 4673              	.LASF250:
 4674 0489 53657269 		.ascii	"SerialUSBDriverVMT\000"
 4674      616C5553 
 4674      42447269 
 4674      76657256 
 4674      4D5400
 4675              	.LASF105:
 4676 049c 5553425F 		.ascii	"USB_SELECTED\000"
 4676      53454C45 
 4676      43544544 
 4676      00
 4677              	.LASF94:
 4678 04a9 636F6E66 		.ascii	"configuration\000"
 4678      69677572 
 4678      6174696F 
 4678      6E00
 4679              	.LASF160:
 4680 04b7 47525846 		.ascii	"GRXFSIZ\000"
 4680      53495A00 
 4681              	.LASF64:
 4682 04bf 65735F6E 		.ascii	"es_next\000"
 4682      65787400 
 4683              	.LASF71:
 4684 04c7 715F636F 		.ascii	"q_counter\000"
 4684      756E7465 
 4684      7200
 4685              	.LASF197:
 4686 04d1 72657376 		.ascii	"resvd840\000"
 4686      64383430 
 4686      00
 4687              	.LASF63:
 4688 04da 4576656E 		.ascii	"EventSource\000"
 4688      74536F75 
 4688      72636500 
 4689              	.LASF168:
 4690 04e6 44494550 		.ascii	"DIEPTXF\000"
 4690      54584600 
 4691              	.LASF9:
 4692 04ee 6C6F6E67 		.ascii	"long unsigned int\000"
 4692      20756E73 
 4692      69676E65 
 4692      6420696E 
 4692      7400
 4693              	.LASF92:
 4694 0500 73746174 		.ascii	"status\000"
 4694      757300
 4695              	.LASF84:
 4696 0507 70617261 		.ascii	"param\000"
 4696      6D00
 4697              	.LASF93:
 4698 050d 61646472 		.ascii	"address\000"
 4698      65737300 
 4699              	.LASF90:
 4700 0515 65703065 		.ascii	"ep0endcb\000"
 4700      6E646362 
 4700      00
ARM GAS  /tmp/ccHDufAi.s 			page 88


 4701              	.LASF153:
 4702 051e 47414842 		.ascii	"GAHBCFG\000"
 4702      43464700 
 4703              	.LASF232:
 4704 0526 696E5F6D 		.ascii	"in_multiplier\000"
 4704      756C7469 
 4704      706C6965 
 4704      7200
 4705              	.LASF59:
 4706 0534 656C5F6E 		.ascii	"el_next\000"
 4706      65787400 
 4707              	.LASF248:
 4708 053c 75736270 		.ascii	"usbp\000"
 4708      00
 4709              	.LASF207:
 4710 0541 6E756D5F 		.ascii	"num_endpoints\000"
 4710      656E6470 
 4710      6F696E74 
 4710      7300
 4711              	.LASF74:
 4712 054f 715F7772 		.ascii	"q_wrptr\000"
 4712      70747200 
 4713              	.LASF214:
 4714 0557 74787369 		.ascii	"txsize\000"
 4714      7A6500
 4715              	.LASF103:
 4716 055e 5553425F 		.ascii	"USB_STOP\000"
 4716      53544F50 
 4716      00
 4717              	.LASF242:
 4718 0567 5344555F 		.ascii	"SDU_READY\000"
 4718      52454144 
 4718      5900
 4719              	.LASF98:
 4720 0571 7468645F 		.ascii	"thd_ptr\000"
 4720      70747200 
 4721              	.LASF251:
 4722 0579 77726974 		.ascii	"write\000"
 4722      6500
 4723              	.LASF222:
 4724 057f 7278636E 		.ascii	"rxcnt\000"
 4724      7400
 4725              	.LASF107:
 4726 0585 75736273 		.ascii	"usbstate_t\000"
 4726      74617465 
 4726      5F7400
 4727              	.LASF173:
 4728 0590 72657376 		.ascii	"resvd40C\000"
 4728      64343043 
 4728      00
 4729              	.LASF151:
 4730 0599 474F5447 		.ascii	"GOTGCTL\000"
 4730      43544C00 
 4731              	.LASF218:
 4732 05a1 72786275 		.ascii	"rxbuf\000"
 4732      6600
 4733              	.LASF159:
ARM GAS  /tmp/ccHDufAi.s 			page 89


 4734 05a7 47525853 		.ascii	"GRXSTSP\000"
 4734      54535000 
 4735              	.LASF230:
 4736 05af 696E5F73 		.ascii	"in_state\000"
 4736      74617465 
 4736      00
 4737              	.LASF158:
 4738 05b8 47525853 		.ascii	"GRXSTSR\000"
 4738      54535200 
 4739              	.LASF119:
 4740 05c0 5553425F 		.ascii	"USB_EVENT_WAKEUP\000"
 4740      4556454E 
 4740      545F5741 
 4740      4B455550 
 4740      00
 4741              	.LASF201:
 4742 05d1 50434743 		.ascii	"PCGCCTL\000"
 4742      43544C00 
 4743              	.LASF235:
 4744 05d9 6576656E 		.ascii	"event_cb\000"
 4744      745F6362 
 4744      00
 4745              	.LASF54:
 4746 05e2 4D757465 		.ascii	"Mutex\000"
 4746      7800
 4747              	.LASF287:
 4748 05e8 6765745F 		.ascii	"get_descriptor\000"
 4748      64657363 
 4748      72697074 
 4748      6F7200
 4749              	.LASF5:
 4750 05f7 6C6F6E67 		.ascii	"long long int\000"
 4750      206C6F6E 
 4750      6720696E 
 4750      7400
 4751              	.LASF104:
 4752 0605 5553425F 		.ascii	"USB_READY\000"
 4752      52454144 
 4752      5900
 4753              	.LASF276:
 4754 060f 53445531 		.ascii	"SDU1\000"
 4754      00
 4755              	.LASF55:
 4756 0614 6D5F7175 		.ascii	"m_queue\000"
 4756      65756500 
 4757              	.LASF177:
 4758 061c 72657376 		.ascii	"resvd41C\000"
 4758      64343143 
 4758      00
 4759              	.LASF88:
 4760 0625 6570306E 		.ascii	"ep0next\000"
 4760      65787400 
 4761              	.LASF246:
 4762 062d 69717565 		.ascii	"iqueue\000"
 4762      756500
 4763              	.LASF193:
 4764 0634 72657376 		.ascii	"resvd830\000"
ARM GAS  /tmp/ccHDufAi.s 			page 90


 4764      64383330 
 4764      00
 4765              	.LASF126:
 4766 063d 75736265 		.ascii	"usbepcallback_t\000"
 4766      7063616C 
 4766      6C626163 
 4766      6B5F7400 
 4767              	.LASF283:
 4768 064d 6462675F 		.ascii	"dbg_check_unlock_from_isr\000"
 4768      63686563 
 4768      6B5F756E 
 4768      6C6F636B 
 4768      5F66726F 
 4769              	.LASF198:
 4770 0667 72657376 		.ascii	"resvd880\000"
 4770      64383830 
 4770      00
 4771              	.LASF274:
 4772 0670 49544D5F 		.ascii	"ITM_RxBuffer\000"
 4772      52784275 
 4772      66666572 
 4772      00
 4773              	.LASF196:
 4774 067d 72657376 		.ascii	"resvd83C\000"
 4774      64383343 
 4774      00
 4775              	.LASF78:
 4776 0686 716E6F74 		.ascii	"qnotify_t\000"
 4776      6966795F 
 4776      7400
 4777              	.LASF41:
 4778 0690 705F7761 		.ascii	"p_waiting\000"
 4778      6974696E 
 4778      6700
 4779              	.LASF245:
 4780 069a 6576656E 		.ascii	"event\000"
 4780      7400
 4781              	.LASF37:
 4782 06a0 705F666C 		.ascii	"p_flags\000"
 4782      61677300 
 4783              	.LASF149:
 4784 06a8 444F4550 		.ascii	"DOEPTSIZ\000"
 4784      5453495A 
 4784      00
 4785              	.LASF252:
 4786 06b1 72656164 		.ascii	"read\000"
 4786      00
 4787              	.LASF175:
 4788 06b6 4841494E 		.ascii	"HAINT\000"
 4788      5400
 4789              	.LASF0:
 4790 06bc 756E7369 		.ascii	"unsigned int\000"
 4790      676E6564 
 4790      20696E74 
 4790      00
 4791              	.LASF239:
 4792 06c9 55534243 		.ascii	"USBConfig\000"
ARM GAS  /tmp/ccHDufAi.s 			page 91


 4792      6F6E6669 
 4792      6700
 4793              	.LASF243:
 4794 06d3 73647573 		.ascii	"sdustate_t\000"
 4794      74617465 
 4794      5F7400
 4795              	.LASF97:
 4796 06de 74787065 		.ascii	"txpending\000"
 4796      6E64696E 
 4796      6700
 4797              	.LASF47:
 4798 06e8 705F6D70 		.ascii	"p_mpool\000"
 4798      6F6F6C00 
 4799              	.LASF204:
 4800 06f0 73746D33 		.ascii	"stm32_otg_t\000"
 4800      325F6F74 
 4800      675F7400 
 4801              	.LASF38:
 4802 06fc 705F7265 		.ascii	"p_refs\000"
 4802      667300
 4803              	.LASF233:
 4804 0703 73657475 		.ascii	"setup_buf\000"
 4804      705F6275 
 4804      6600
 4805              	.LASF202:
 4806 070d 72657376 		.ascii	"resvdE04\000"
 4806      64453034 
 4806      00
 4807              	.LASF49:
 4808 0716 54687265 		.ascii	"ThreadsList\000"
 4808      6164734C 
 4808      69737400 
 4809              	.LASF179:
 4810 0722 72657376 		.ascii	"resvd444\000"
 4810      64343434 
 4810      00
 4811              	.LASF227:
 4812 072b 6F75745F 		.ascii	"out_cb\000"
 4812      636200
 4813              	.LASF249:
 4814 0732 53657269 		.ascii	"SerialUSBConfig\000"
 4814      616C5553 
 4814      42436F6E 
 4814      66696700 
 4815              	.LASF81:
 4816 0742 55534244 		.ascii	"USBDriver\000"
 4816      72697665 
 4816      7200
 4817              	.LASF176:
 4818 074c 4841494E 		.ascii	"HAINTMSK\000"
 4818      544D534B 
 4818      00
 4819              	.LASF25:
 4820 0755 666C6167 		.ascii	"flagsmask_t\000"
 4820      736D6173 
 4820      6B5F7400 
 4821              	.LASF228:
ARM GAS  /tmp/ccHDufAi.s 			page 92


 4822 0761 696E5F6D 		.ascii	"in_maxsize\000"
 4822      61787369 
 4822      7A6500
 4823              	.LASF157:
 4824 076c 47494E54 		.ascii	"GINTMSK\000"
 4824      4D534B00 
 4825              	.LASF40:
 4826 0774 705F7469 		.ascii	"p_time\000"
 4826      6D6500
 4827              	.LASF264:
 4828 077b 76636F6D 		.ascii	"vcom_string0\000"
 4828      5F737472 
 4828      696E6730 
 4828      00
 4829              	.LASF231:
 4830 0788 6F75745F 		.ascii	"out_state\000"
 4830      73746174 
 4830      6500
 4831              	.LASF244:
 4832 0792 53657269 		.ascii	"SerialUSBDriver\000"
 4832      616C5553 
 4832      42447269 
 4832      76657200 
 4833              	.LASF46:
 4834 07a2 705F7265 		.ascii	"p_realprio\000"
 4834      616C7072 
 4834      696F00
 4835              	.LASF95:
 4836 07ad 6F746770 		.ascii	"otgparams\000"
 4836      6172616D 
 4836      7300
 4837              	.LASF102:
 4838 07b7 5553425F 		.ascii	"USB_UNINIT\000"
 4838      554E494E 
 4838      495400
 4839              	.LASF223:
 4840 07c2 5553424F 		.ascii	"USBOutEndpointState\000"
 4840      7574456E 
 4840      64706F69 
 4840      6E745374 
 4840      61746500 
 4841              	.LASF200:
 4842 07d6 72657376 		.ascii	"resvdD00\000"
 4842      64443030 
 4842      00
 4843              	.LASF6:
 4844 07df 6C6F6E67 		.ascii	"long long unsigned int\000"
 4844      206C6F6E 
 4844      6720756E 
 4844      7369676E 
 4844      65642069 
 4845              	.LASF167:
 4846 07f6 48505458 		.ascii	"HPTXFSIZ\000"
 4846      4653495A 
 4846      00
 4847              	.LASF33:
 4848 07ff 705F6F6C 		.ascii	"p_older\000"
ARM GAS  /tmp/ccHDufAi.s 			page 93


 4848      64657200 
 4849              	.LASF13:
 4850 0807 75696E74 		.ascii	"uint16_t\000"
 4850      31365F74 
 4850      00
 4851              	.LASF132:
 4852 0810 4843494E 		.ascii	"HCINT\000"
 4852      5400
 4853              	.LASF211:
 4854 0816 6C696E65 		.ascii	"linear\000"
 4854      617200
 4855              	.LASF23:
 4856 081d 6D73675F 		.ascii	"msg_t\000"
 4856      7400
 4857              	.LASF182:
 4858 0823 4443544C 		.ascii	"DCTL\000"
 4858      00
 4859              	.LASF234:
 4860 0828 55534245 		.ascii	"USBEndpointConfig\000"
 4860      6E64706F 
 4860      696E7443 
 4860      6F6E6669 
 4860      6700
 4861              	.LASF262:
 4862 083a 76636F6D 		.ascii	"vcom_configuration_descriptor_data\000"
 4862      5F636F6E 
 4862      66696775 
 4862      72617469 
 4862      6F6E5F64 
 4863              	.LASF133:
 4864 085d 4843494E 		.ascii	"HCINTMSK\000"
 4864      544D534B 
 4864      00
 4865              	.LASF220:
 4866 0866 72787175 		.ascii	"rxqueued\000"
 4866      65756564 
 4866      00
 4867              	.LASF277:
 4868 086f 75736263 		.ascii	"usbcfg\000"
 4868      666700
 4869              	.LASF21:
 4870 0876 74736C69 		.ascii	"tslices_t\000"
 4870      6365735F 
 4870      7400
 4871              	.LASF152:
 4872 0880 474F5447 		.ascii	"GOTGINT\000"
 4872      494E5400 
 4873              	.LASF280:
 4874 0888 75736249 		.ascii	"usbInitEndpointI\000"
 4874      6E697445 
 4874      6E64706F 
 4874      696E7449 
 4874      00
 4875              	.LASF212:
 4876 0899 71756575 		.ascii	"queue\000"
 4876      6500
 4877              	.LASF219:
ARM GAS  /tmp/ccHDufAi.s 			page 94


 4878 089f 72787175 		.ascii	"rxqueue\000"
 4878      65756500 
 4879              	.LASF188:
 4880 08a7 4441494E 		.ascii	"DAINTMSK\000"
 4880      544D534B 
 4880      00
 4881              	.LASF191:
 4882 08b0 44564255 		.ascii	"DVBUSDIS\000"
 4882      53444953 
 4882      00
 4883              	.LASF146:
 4884 08b9 73746D33 		.ascii	"stm32_otg_in_ep_t\000"
 4884      325F6F74 
 4884      675F696E 
 4884      5F65705F 
 4884      7400
 4885              	.LASF206:
 4886 08cb 6F74675F 		.ascii	"otg_ram_size\000"
 4886      72616D5F 
 4886      73697A65 
 4886      00
 4887              	.LASF117:
 4888 08d8 5553425F 		.ascii	"USB_EVENT_CONFIGURED\000"
 4888      4556454E 
 4888      545F434F 
 4888      4E464947 
 4888      55524544 
 4889              	.LASF203:
 4890 08ed 4649464F 		.ascii	"FIFO\000"
 4890      00
 4891              	.LASF70:
 4892 08f2 715F7761 		.ascii	"q_waiting\000"
 4892      6974696E 
 4892      6700
 4893              	.LASF18:
 4894 08fc 746D6F64 		.ascii	"tmode_t\000"
 4894      655F7400 
 4895              	.LASF257:
 4896 0904 64747970 		.ascii	"dtype\000"
 4896      6500
 4897              	.LASF129:
 4898 090a 75736267 		.ascii	"usbgetdescriptor_t\000"
 4898      65746465 
 4898      73637269 
 4898      70746F72 
 4898      5F7400
 4899              	.LASF100:
 4900 091d 77615F70 		.ascii	"wa_pump\000"
 4900      756D7000 
 4901              	.LASF247:
 4902 0925 6F717565 		.ascii	"oqueue\000"
 4902      756500
 4903              	.LASF3:
 4904 092c 73686F72 		.ascii	"short int\000"
 4904      7420696E 
 4904      7400
 4905              	.LASF16:
ARM GAS  /tmp/ccHDufAi.s 			page 95


 4906 0936 75696E74 		.ascii	"uint64_t\000"
 4906      36345F74 
 4906      00
 4907              	.LASF216:
 4908 093f 6D6F6465 		.ascii	"mode\000"
 4908      00
 4909              	.LASF259:
 4910 0944 6C616E67 		.ascii	"lang\000"
 4910      00
 4911              	.LASF115:
 4912 0949 5553425F 		.ascii	"USB_EVENT_RESET\000"
 4912      4556454E 
 4912      545F5245 
 4912      53455400 
 4913              	.LASF135:
 4914 0959 72657376 		.ascii	"resvd14\000"
 4914      64313400 
 4915              	.LASF136:
 4916 0961 72657376 		.ascii	"resvd18\000"
 4916      64313800 
 4917              	.LASF144:
 4918 0969 44545846 		.ascii	"DTXFSTS\000"
 4918      53545300 
 4919              	.LASF210:
 4920 0971 74787175 		.ascii	"txqueue\000"
 4920      65756500 
 4921              	.LASF145:
 4922 0979 72657376 		.ascii	"resvd1C\000"
 4922      64314300 
 4923              	.LASF185:
 4924 0981 44494550 		.ascii	"DIEPMSK\000"
 4924      4D534B00 
 4925              	.LASF17:
 4926 0989 626F6F6C 		.ascii	"bool_t\000"
 4926      5F7400
 4927              	.LASF240:
 4928 0990 5344555F 		.ascii	"SDU_UNINIT\000"
 4928      554E494E 
 4928      495400
 4929              	.LASF137:
 4930 099b 72657376 		.ascii	"resvd1c\000"
 4930      64316300 
 4931              	.LASF128:
 4932 09a3 75736272 		.ascii	"usbreqhandler_t\000"
 4932      65716861 
 4932      6E646C65 
 4932      725F7400 
 4933              	.LASF139:
 4934 09b3 44494550 		.ascii	"DIEPCTL\000"
 4934      43544C00 
 4935              	.LASF125:
 4936 09bb 75736263 		.ascii	"usbcallback_t\000"
 4936      616C6C62 
 4936      61636B5F 
 4936      7400
 4937              	.LASF27:
 4938 09c9 54687265 		.ascii	"Thread\000"
ARM GAS  /tmp/ccHDufAi.s 			page 96


 4938      616400
 4939              	.LASF156:
 4940 09d0 47494E54 		.ascii	"GINTSTS\000"
 4940      53545300 
 4941              	.LASF260:
 4942 09d8 76636F6D 		.ascii	"vcom_device_descriptor_data\000"
 4942      5F646576 
 4942      6963655F 
 4942      64657363 
 4942      72697074 
 4943              	.LASF141:
 4944 09f4 44494550 		.ascii	"DIEPINT\000"
 4944      494E5400 
 4945              	.LASF162:
 4946 09fc 484E5054 		.ascii	"HNPTXSTS\000"
 4946      58535453 
 4946      00
 4947              	.LASF275:
 4948 0a05 55534244 		.ascii	"USBD1\000"
 4948      3100
 4949              	.LASF20:
 4950 0a0b 74726566 		.ascii	"trefs_t\000"
 4950      735F7400 
 4951              	.LASF238:
 4952 0a13 736F665F 		.ascii	"sof_cb\000"
 4952      636200
 4953              	.LASF58:
 4954 0a1a 4576656E 		.ascii	"EventListener\000"
 4954      744C6973 
 4954      74656E65 
 4954      7200
 4955              	.LASF163:
 4956 0a28 72657376 		.ascii	"resvd30\000"
 4956      64333000 
 4957              	.LASF199:
 4958 0a30 72657376 		.ascii	"resvd8C0\000"
 4958      64384330 
 4958      00
 4959              	.LASF164:
 4960 0a39 72657376 		.ascii	"resvd34\000"
 4960      64333400 
 4961              	.LASF15:
 4962 0a41 75696E74 		.ascii	"uint32_t\000"
 4962      33325F74 
 4962      00
 4963              	.LASF101:
 4964 0a4a 75736265 		.ascii	"usbep_t\000"
 4964      705F7400 
 4965              	.LASF241:
 4966 0a52 5344555F 		.ascii	"SDU_STOP\000"
 4966      53544F50 
 4966      00
 4967              	.LASF48:
 4968 0a5b 54687265 		.ascii	"ThreadsQueue\000"
 4968      61647351 
 4968      75657565 
 4968      00
ARM GAS  /tmp/ccHDufAi.s 			page 97


 4969              	.LASF118:
 4970 0a68 5553425F 		.ascii	"USB_EVENT_SUSPEND\000"
 4970      4556454E 
 4970      545F5355 
 4970      5350454E 
 4970      4400
 4971              	.LASF278:
 4972 0a7a 73657275 		.ascii	"serusbcfg\000"
 4972      73626366 
 4972      6700
 4973              	.LASF65:
 4974 0a84 7264796D 		.ascii	"rdymsg\000"
 4974      736700
 4975              	.LASF4:
 4976 0a8b 73686F72 		.ascii	"short unsigned int\000"
 4976      7420756E 
 4976      7369676E 
 4976      65642069 
 4976      6E7400
 4977              	.LASF279:
 4978 0a9e 7573625F 		.ascii	"usb_event\000"
 4978      6576656E 
 4978      7400
 4979              	.LASF183:
 4980 0aa8 44535453 		.ascii	"DSTS\000"
 4980      00
 4981              	.LASF236:
 4982 0aad 6765745F 		.ascii	"get_descriptor_cb\000"
 4982      64657363 
 4982      72697074 
 4982      6F725F63 
 4982      6200
 4983              	.LASF281:
 4984 0abf 73647543 		.ascii	"sduConfigureHookI\000"
 4984      6F6E6669 
 4984      67757265 
 4984      486F6F6B 
 4984      4900
 4985              	.LASF79:
 4986 0ad1 496E7075 		.ascii	"InputQueue\000"
 4986      74517565 
 4986      756500
 4987              	.LASF35:
 4988 0adc 705F7374 		.ascii	"p_stklimit\000"
 4988      6B6C696D 
 4988      697400
 4989              	.LASF174:
 4990 0ae7 48505458 		.ascii	"HPTXSTS\000"
 4990      53545300 
 4991              	.LASF61:
 4992 0aef 656C5F6D 		.ascii	"el_mask\000"
 4992      61736B00 
 4993              	.LASF166:
 4994 0af7 72657376 		.ascii	"resvd58\000"
 4994      64353800 
 4995              	.LASF112:
 4996 0aff 5553425F 		.ascii	"USB_EP0_SENDING_STS\000"
ARM GAS  /tmp/ccHDufAi.s 			page 98


 4996      4550305F 
 4996      53454E44 
 4996      494E475F 
 4996      53545300 
 4997              	.LASF171:
 4998 0b13 48464952 		.ascii	"HFIR\000"
 4998      00
 4999              	.LASF110:
 5000 0b18 5553425F 		.ascii	"USB_EP0_WAITING_STS\000"
 5000      4550305F 
 5000      57414954 
 5000      494E475F 
 5000      53545300 
 5001              	.LASF34:
 5002 0b2c 705F6E61 		.ascii	"p_name\000"
 5002      6D6500
 5003              	.LASF57:
 5004 0b33 6D5F6E65 		.ascii	"m_next\000"
 5004      787400
 5005              	.LASF96:
 5006 0b3a 706D6E65 		.ascii	"pmnext\000"
 5006      787400
 5007              	.LASF213:
 5008 0b41 74787175 		.ascii	"txqueued\000"
 5008      65756564 
 5008      00
 5009              	.LASF154:
 5010 0b4a 47555342 		.ascii	"GUSBCFG\000"
 5010      43464700 
 5011              	.LASF111:
 5012 0b52 5553425F 		.ascii	"USB_EP0_RX\000"
 5012      4550305F 
 5012      525800
 5013              	.LASF265:
 5014 0b5d 76636F6D 		.ascii	"vcom_string1\000"
 5014      5F737472 
 5014      696E6731 
 5014      00
 5015              	.LASF169:
 5016 0b6a 72657376 		.ascii	"resvd140\000"
 5016      64313430 
 5016      00
 5017              	.LASF267:
 5018 0b73 76636F6D 		.ascii	"vcom_string3\000"
 5018      5F737472 
 5018      696E6733 
 5018      00
 5019              	.LASF43:
 5020 0b80 705F6D73 		.ascii	"p_msg\000"
 5020      6700
 5021              	.LASF60:
 5022 0b86 656C5F6C 		.ascii	"el_listener\000"
 5022      69737465 
 5022      6E657200 
 5023              	.LASF36:
 5024 0b92 705F7374 		.ascii	"p_state\000"
 5024      61746500 
ARM GAS  /tmp/ccHDufAi.s 			page 99


 5025              		.ident	"GCC: (crosstool-NG 1.17.0 - PSAS ST32F4 GFE) 4.7.2"
ARM GAS  /tmp/ccHDufAi.s 			page 100


DEFINED SYMBOLS
                            *ABS*:0000000000000000 usbdetail.c
     /tmp/ccHDufAi.s:21     .text.get_descriptor:0000000000000000 $t
     /tmp/ccHDufAi.s:27     .text.get_descriptor:0000000000000000 get_descriptor
     /tmp/ccHDufAi.s:74     .text.get_descriptor:0000000000000028 $d
     /tmp/ccHDufAi.s:81     .text.usb_event:0000000000000000 $t
     /tmp/ccHDufAi.s:87     .text.usb_event:0000000000000000 usb_event
     /tmp/ccHDufAi.s:156    .text.usb_event:000000000000003c $d
     /tmp/ccHDufAi.s:491    .rodata.serusbcfg:0000000000000000 serusbcfg
     /tmp/ccHDufAi.s:303    .rodata.usbcfg:0000000000000000 usbcfg
     /tmp/ccHDufAi.s:260    .bss.SDU1:0000000000000000 SDU1
     /tmp/ccHDufAi.s:168    .rodata.ep1config:0000000000000000 $d
     /tmp/ccHDufAi.s:172    .rodata.ep1config:0000000000000000 ep1config
     /tmp/ccHDufAi.s:266    .bss.ep1instate:0000000000000000 ep1instate
     /tmp/ccHDufAi.s:335    .bss.ep1outstate:0000000000000000 ep1outstate
     /tmp/ccHDufAi.s:185    .rodata.vcom_configuration_descriptor_data:0000000000000000 $d
     /tmp/ccHDufAi.s:188    .rodata.vcom_configuration_descriptor_data:0000000000000000 vcom_configuration_descriptor_data
     /tmp/ccHDufAi.s:257    .bss.SDU1:0000000000000000 $d
     /tmp/ccHDufAi.s:263    .bss.ep1instate:0000000000000000 $d
     /tmp/ccHDufAi.s:269    .rodata.vcom_configuration_descriptor:0000000000000000 $d
     /tmp/ccHDufAi.s:273    .rodata.vcom_configuration_descriptor:0000000000000000 vcom_configuration_descriptor
     /tmp/ccHDufAi.s:277    .rodata.ep2config:0000000000000000 $d
     /tmp/ccHDufAi.s:281    .rodata.ep2config:0000000000000000 ep2config
     /tmp/ccHDufAi.s:297    .bss.ep2instate:0000000000000000 ep2instate
     /tmp/ccHDufAi.s:294    .bss.ep2instate:0000000000000000 $d
     /tmp/ccHDufAi.s:300    .rodata.usbcfg:0000000000000000 $d
     /tmp/ccHDufAi.s:309    .rodata.vcom_device_descriptor_data:0000000000000000 $d
     /tmp/ccHDufAi.s:312    .rodata.vcom_device_descriptor_data:0000000000000000 vcom_device_descriptor_data
     /tmp/ccHDufAi.s:332    .bss.ep1outstate:0000000000000000 $d
     /tmp/ccHDufAi.s:338    .rodata.vcom_string0:0000000000000000 $d
     /tmp/ccHDufAi.s:341    .rodata.vcom_string0:0000000000000000 vcom_string0
     /tmp/ccHDufAi.s:347    .rodata.vcom_string1:0000000000000000 $d
     /tmp/ccHDufAi.s:350    .rodata.vcom_string1:0000000000000000 vcom_string1
     /tmp/ccHDufAi.s:390    .rodata.vcom_string2:0000000000000000 $d
     /tmp/ccHDufAi.s:393    .rodata.vcom_string2:0000000000000000 vcom_string2
     /tmp/ccHDufAi.s:451    .rodata.vcom_string3:0000000000000000 $d
     /tmp/ccHDufAi.s:454    .rodata.vcom_string3:0000000000000000 vcom_string3
     /tmp/ccHDufAi.s:474    .rodata.vcom_strings:0000000000000000 $d
     /tmp/ccHDufAi.s:478    .rodata.vcom_strings:0000000000000000 vcom_strings
     /tmp/ccHDufAi.s:488    .rodata.serusbcfg:0000000000000000 $d
     /tmp/ccHDufAi.s:494    .rodata.vcom_device_descriptor:0000000000000000 $d
     /tmp/ccHDufAi.s:498    .rodata.vcom_device_descriptor:0000000000000000 vcom_device_descriptor
                     .debug_frame:0000000000000010 $d
     /tmp/ccHDufAi.s:80     .text.get_descriptor:0000000000000034 $t
     /tmp/ccHDufAi.s:167    .text.usb_event:0000000000000044 $t

UNDEFINED SYMBOLS
dbg_check_lock_from_isr
usbInitEndpointI
sduConfigureHookI
dbg_check_unlock_from_isr
sduDataTransmitted
sduDataReceived
sduInterruptTransmitted
sduRequestsHook
USBD1
